Module(name="app_process", base_address=0x4004b000, size=12288, path="/system/bin/app_process")
	func_name	RVA
	_ZN7android2spINS_12ProcessStateEED2Ev	0x12d1
	_ZN7android2spINS_12ProcessStateEED1Ev	0x12d1
	__popcountdi2	0x133c
Module(name="linker", base_address=0x4004f000, size=69632, path="/system/bin/linker")
	func_name	RVA
	_start	0xa60
	rtld_db_dlactivity	0x3bf9
	malloc	0x24bd
	free	0x24ed
	realloc	0x251d
	calloc	0x254d
Module(name="libcutils.so", base_address=0x40065000, size=45056, path="/system/lib/libcutils.so")
	func_name	RVA
	android_memset32	0x3404
	android_memset16	0x33e8
	android_compiler_barrier	0x3478
	android_memory_barrier	0x347c
	android_memory_store_barrier	0x3484
	android_atomic_acquire_load	0x348c
	android_atomic_release_load	0x3498
	android_atomic_acquire_store	0x34a4
	android_atomic_release_store	0x34b0
	android_atomic_cas	0x34bc
	android_atomic_acquire_cas	0x34e0
	android_atomic_release_cas	0x3508
	android_atomic_add	0x3530
	android_atomic_inc	0x3550
	android_atomic_dec	0x3570
	android_atomic_and	0x3594
	android_atomic_or	0x35b4
	hashmapCreate	0x364d
	hashmapSize	0x36a3
	hashmapLock	0x36a7
	hashmapUnlock	0x36ad
	hashmapFree	0x36b3
	hashmapHash	0x36f1
	hashmapPut	0x370b
	hashmapGet	0x3789
	hashmapContainsKey	0x37c9
	hashmapMemoize	0x380d
	hashmapRemove	0x3899
	hashmapForEach	0x38f3
	hashmapCurrentCapacity	0x3927
	hashmapCountCollisions	0x3931
	hashmapIntHash	0x3957
	hashmapIntEquals	0x395b
	native_handle_create	0x3969
	native_handle_delete	0x3981
	native_handle_close	0x3999
	socket_inaddr_any_server	0x39c5
	socket_make_sockaddr_un	0x3a5d
	socket_local_client_connect	0x3af1
	socket_local_client	0x3b41
	socket_local_server_bind	0x3b75
	socket_local_server	0x3be9
	socket_loopback_client	0x3c2d
	socket_loopback_server	0x3c9d
	socket_network_client	0x3d3d
	socket_peer_is_trusted	0x3dc1
	__android_log_print	0x67f9
	config_node	0x3f11
	config_find	0x3f57
	config_bool	0x3ff7
	config_str	0x401b
	config_set	0x402b
	config_load	0x4047
	config_load_file	0x406f
	load_file	0x41a1
	config_free	0x4087
	get_cpu_serial_number	0x40a5
	list_init	0x4215
	list_add_tail	0x421b
	list_remove	0x4229
	open_memstream	0x4335
	strnlen16to8	0x4395
	strncpy16to8	0x4409
	strndup16to8	0x4467
	strlen8to16	0x4501
	strcpy8to16	0x4541
	strdup8to16	0x45ad
	strcpylen8to16	0x45e1
	record_stream_new	0x4667
	record_stream_free	0x4691
	record_stream_get_next	0x46a5
	set_process_name	0x4735
	property_get	0x5c79
	get_process_name	0x4811
	thread_store_get	0x481d
	thread_store_set	0x482b
	__android_log_buf_print	0x6855
	get_sched_policy	0x4925
	set_sched_policy	0x4acd
	get_sched_policy_name	0x4c1d
	android_set_ioprio	0x4c4d
	android_get_ioprio	0x4c69
	str_parms_create	0x4d65
	str_parms_del	0x4d9d
	str_parms_destroy	0x4db5
	str_parms_create_str	0x4de5
	str_parms_add_str	0x4ea5
	str_parms_add_int	0x4ef5
	str_parms_add_float	0x4f45
	str_parms_get_str	0x4fa1
	str_parms_get_int	0x4fc3
	str_parms_get_float	0x4ffb
	str_parms_to_str	0x502d
	str_parms_dump	0x5061
	fs_prepare_dir	0x5071
	fs_read_atomic_int	0x51ed
	fs_write_atomic_int	0x52ed
	fs_mkdirs	0x54a1
	multiuser_get_user_id	0x56a5
	multiuser_get_app_id	0x56b5
	multiuser_get_uid	0x56c5
	android_reboot	0x57b1
	ashmem_create_region	0x584d
	ashmem_set_prot_region	0x58c9
	ashmem_pin_region	0x58d5
	ashmem_unpin_region	0x58e9
	ashmem_get_size_region	0x58fd
	dump_tombstone	0x5909
	dump_backtrace_to_file	0x59c1
	klog_set_level	0x5ac9
	klog_init	0x5ad5
	klog_write	0x5b21
	partition_wiped	0x5bb5
	property_set	0x5c9f
	property_list	0x5ca5
	qtaguid_resTrack	0x5da1
	qtaguid_tagSocket	0x5ded
	qtaguid_untagSocket	0x5e61
	qtaguid_setCounterSet	0x5ea5
	qtaguid_deleteTagData	0x5ec9
	qtaguid_setPacifier	0x5f35
	atrace_update_tags	0x6221
	atrace_set_tracing_enabled	0x6299
	atrace_set_debuggable	0x62ad
	atrace_setup	0x62bd
	uevent_kernel_multicast_uid_recv	0x62d1
	uevent_kernel_multicast_recv	0x6379
	uevent_open_socket	0x638b
	__android_log_dev_available	0x6531
	__android_log_write	0x6571
	__android_log_buf_write	0x668d
	__android_log_vprint	0x67ad
	__android_log_assert	0x68b5
	__android_log_bwrite	0x6921
	__android_log_btwrite	0x6949
	android_log_shouldPrintLine	0x6bad
	android_log_format_new	0x6bdf
	android_log_format_free	0x6bf3
	android_log_setPrintFormat	0x6c11
	android_log_formatFromString	0x6c15
	android_log_addFilterRule	0x6d11
	android_log_addFilterString	0x6e11
	android_log_processLogBuffer	0x6e65
	android_log_processBinaryLogBuffer	0x6ef1
	android_lookupEventTag	0x7885
	android_log_formatLogLine	0x7019
	android_log_printLogLine	0x72f5
	logprint_run_tests	0x73ad
	android_closeEventTagMap	0x74bb
	android_openEventTagMap	0x74d5
Module(name="liblog.so", base_address=0x40070000, size=20480, path="/system/lib/liblog.so")
	func_name	RVA
	__android_log_dev_available	0x10e9
	__android_log_write	0x1129
	__android_log_buf_write	0x1245
	__android_log_vprint	0x1365
	__android_log_print	0x13b1
	__android_log_buf_print	0x140d
	__android_log_assert	0x146d
	__android_log_bwrite	0x14d9
	__android_log_btwrite	0x1501
	android_log_shouldPrintLine	0x1765
	android_log_format_new	0x1797
	android_log_format_free	0x17ab
	android_log_setPrintFormat	0x17c9
	android_log_formatFromString	0x17cd
	android_log_addFilterRule	0x18c9
	android_log_addFilterString	0x19c9
	android_log_processLogBuffer	0x1a1d
	android_log_processBinaryLogBuffer	0x1aa9
	android_lookupEventTag	0x243d
	android_log_formatLogLine	0x1bd1
	android_log_printLogLine	0x1ead
	logprint_run_tests	0x1f65
	android_closeEventTagMap	0x2073
	android_openEventTagMap	0x208d
Module(name="libc.so", base_address=0x40075000, size=315392, path="/system/lib/libc.so")
	func_name	RVA
	__init_tls	0xd070
	__set_tls	0x217f8
	mmap	0x12c5d
	sigaltstack	0x2027c
	__aeabi_unwind_cpp_pr0	0x3c1dc
	__thread_entry	0xd128
	pthread_mutex_lock	0xe7dc
	pthread_mutex_destroy	0xec68
	pthread_exit	0xed58
	_init_thread	0xd17c
	pthread_cond_init	0xecec
	_pthread_internal_add	0x12ee1
	sched_setscheduler	0x213f4
	__errno	0x14449
	strerror	0x13415
	pthread_create	0xd218
	calloc	0xdc15
	pthread_mutex_init	0xe5b8
	__pthread_clone	0x21848
	pthread_mutex_unlock	0xe8e0
	free	0xdc01
	_thread_created_hook	0x242a8
	munmap	0x20440
	pthread_attr_init	0x12ca9
	mprotect	0x204a0
	pthread_key_create	0xd6b4
	pthread_key_delete	0xd7b0
	pthread_getspecific	0xd900
	pthread_setspecific	0xd920
	fclose	0x14495
	get_malloc_leak_info	0xda7d
	dlmalloc	0xfdcd
	dlfree	0x11225
	qsort	0x15ec1
	memset	0x220dc
	memcpy	0x21fcd
	free_malloc_leak_info	0xdbd1
	mallinfo	0xdbd5
	dlmallinfo	0x11c5d
	valloc	0xdbe1
	dlvalloc	0x11961
	pvalloc	0xdbe5
	dlpvalloc	0x11989
	posix_memalign	0xdbe9
	dlposix_memalign	0x11913
	malloc	0xdbed
	__aeabi_unwind_cpp_pr1	0x3c1d4
	realloc	0xdc29
	memalign	0xdc3d
	malloc_usable_size	0xdc51
	pthread_once	0xef94
	_Z18InitMallocFunctionIPFPvjjEEvS0_PT_PKcS6_	0xdccd
	snprintf	0x26109
	__stack_chk_fail	0x11ef5
	__system_property_get	0x2e66d
	atoi	0x2b6a1
	strstr	0x2b2b1
	strcmp	0x22138
	dlcalloc	0x11785
	dlrealloc	0x117cd
	dlmemalign	0x11905
	dlmalloc_usable_size	0x11ed1
	__aeabi_uidiv	0x3a2b4
	gettid	0x1ff2c
	getpid	0x203f8
	__libc_init	0xe319
	__cxa_atexit	0x286a5
	exit	0x28a27
	__libc_fini	0x122ad
	clock_gettime	0x20e98
	__futex_wake_ex	0xe3d0
	__futex_syscall3	0x218fc
	__futex_wait_ex	0xe448
	__futex_syscall4	0x21910
	__pthread_cleanup_push	0xe458
	__get_thread	0x12f21
	__pthread_cleanup_pop	0xe47c
	pthread_mutexattr_init	0xe4ac
	pthread_mutexattr_destroy	0xe4c0
	pthread_mutexattr_gettype	0xe4d8
	pthread_mutexattr_settype	0xe504
	pthread_mutexattr_setpshared	0xe548
	pthread_mutexattr_getpshared	0xe590
	pthread_mutex_trylock	0xe9cc
	pthread_mutex_lock_timeout_np	0xec64
	pthread_condattr_init	0xe4ac
	pthread_condattr_getpshared	0xec88
	pthread_condattr_setpshared	0xecac
	pthread_condattr_destroy	0xecd0
	pthread_cond_destroy	0xed2c
	pthread_cond_broadcast	0xed48
	pthread_cond_signal	0xed50
	sigprocmask	0x210e4
	_exit_with_stack_teardown	0x218c8
	_exit_thread	0x1fd7c
	__pthread_cond_timedwait_relative	0xee94
	__pthread_cond_timedwait	0xeee4
	pthread_cond_timedwait	0xef30
	pthread_cond_wait	0xef38
	pthread_cond_timedwait_monotonic	0xef40
	pthread_cond_timedwait_monotonic_np	0xef40
	pthread_cond_timedwait_relative_np	0xef48
	pthread_cond_timeout_np	0xef4c
	__pthread_gettid	0xf024
	__pthread_settid	0xf02c
	__cxa_finalize	0x28799
	atexit	0xf04d
	fputs	0x14a2d
	__gnu_Unwind_Find_exidx	0xf091
	__bionic_name_mem	0x2d6e5
	sysconf	0x13ced
	abort	0x21840
	time	0x251f1
	pthread_atfork	0x233e0
	sbrk	0x1320d
	mremap	0x20460
	dlrealloc_in_place	0x1188d
	dlindependent_calloc	0x119b9
	dlindependent_comalloc	0x119cd
	dlbulk_free	0x119d5
	dlmalloc_inspect_all	0x11ac5
	dlmalloc_trim	0x11ba1
	dlmalloc_footprint	0x11bfd
	dlmalloc_max_footprint	0x11c0d
	dlmalloc_footprint_limit	0x11c1d
	dlmalloc_set_footprint_limit	0x11c35
	dlmalloc_stats	0x11d69
	fprintf	0x2552d
	dlmallopt	0x11e75
	raise	0x131eb
	sigaction	0x210c4
	_exit	0x1fd5c
	__assert	0x11f5d
	__assert2	0x11f75
	brk	0x11f91
	__brk	0x20094
	getdents	0x2072c
	dirfd	0x12025
	fdopendir	0x12029
	fstat	0x20abc
	opendir	0x1205d
	open	0x2d745
	readdir	0x12077
	readdir_r	0x12097
	closedir	0x120ff
	close	0x20390
	rewinddir	0x1212b
	lseek	0x203b0
	alphasort	0x12151
	strcoll	0x1ccb1
	eventfd_read	0x1215d
	read	0x202bc
	eventfd_write	0x12171
	write	0x202dc
	futimens	0x1218d
	utimensat	0x21038
	getauxval	0x12199
	getcwd	0x121b9
	__getcwd	0x20b9c
	strdup	0x2b219
	__get_sp	0x21950
	getrlimit	0x20134
	pthread_attr_setstack	0x12d41
	__system_properties_init	0x2e4c5
	__aeabi_uldivmod	0x3b5c8
	writev	0x205c0
	strlen	0x22f85
	__aeabi_llsl	0x3a4b0
	__aeabi_lasr	0x3a494
	getuid	0x1fe6c
	strcpy	0x22c3d
	basename_r	0x12a79
	basename	0x12b1d
	dirname_r	0x12b59
	dirname	0x12c21
	__mmap2	0x20418
	madvise	0x204c0
	pthread_attr_destroy	0x12cc3
	pthread_attr_setdetachstate	0x12cd1
	pthread_attr_getdetachstate	0x12cef
	pthread_attr_setschedpolicy	0x12cfb
	pthread_attr_getschedpolicy	0x12d01
	pthread_attr_setschedparam	0x12d09
	pthread_attr_getschedparam	0x12d11
	pthread_attr_setstacksize	0x12d19
	pthread_attr_getstacksize	0x12d29
	pthread_attr_setstackaddr	0x12d31
	pthread_attr_getstackaddr	0x12d35
	pthread_attr_getstack	0x12d5f
	pthread_attr_setguardsize	0x12d6b
	pthread_attr_getguardsize	0x12d71
	pthread_getattr_np	0x12d79
	pthread_attr_setscope	0x12d91
	pthread_attr_getscope	0x12da1
	pthread_detach	0x12da5
	pthread_equal	0x12dfd
	pthread_getcpuclockid	0x12e05
	pthread_getschedparam	0x12e4d
	sched_getparam	0x21474
	sched_getscheduler	0x21414
	pthread_join	0x12f29
	pthread_self	0x13021
	pthread_kill	0x12fb1
	tgkill	0x21f84
	pthread_setname_np	0x13025
	prctl	0x20214
	pthread_setschedparam	0x13139
	pthread_sigmask	0x13199
	__rt_sigprocmask	0x21144
	scandir	0x13251
	sched_getaffinity	0x132ef
	__sched_getaffinity	0x21514
	__set_errno	0x1330f
	setlocale	0x12da1
	signalfd	0x1331f
	signalfd4	0x211a4
	sigwait	0x13335
	__rt_sigtimedwait	0x21164
	statvfs	0x13377
	__statfs64	0x20d70
	fstatvfs	0x133b9
	__fstatfs64	0x207ec
	strerror_r	0x134a1
	strsignal	0x1354d
	__aeabi_uidivmod	0x3a35c
	isdigit	0x28905
	strtoul	0x2ae8d
	getpwuid	0x13901
	getpwnam	0x13941
	getpwuid_r	0x13a51
	getpwnam_r	0x13a6f
	getgrouplist	0x13a91
	getlogin	0x13aa9
	getgrgid	0x13ab9
	getgrnam	0x13b05
	getnetbyname	0x12da1
	getnetbyaddr	0x12da1
	getprotobyname	0x12da1
	getprotobynumber	0x12da1
	endpwent	0x13b6d
	getmntent	0x13b79
	ttyname	0x13b8d
	ttyname_r	0x13ba1
	getusershell	0x13bb5
	setusershell	0x13bc9
	endusershell	0x13bd5
	fopen	0x14929
	sscanf	0x261b9
	fgets	0x147b5
	__strchr_chk	0x230bd
	clock_getres	0x20ee0
	tdestroy	0x13e65
	mkstemp	0x14f5d
	unlink	0x20994
	fdopen	0x1453d
	tmpfile	0x13f6d
	wait	0x13f91
	wait4	0x1fde4
	wait3	0x13f9f
	waitpid	0x13fb7
	waitid	0x13fbd
	__waitid	0x1fdbc
	__wait4	0x13fc9
	isalnum	0x288a5
	isalpha	0x288c5
	iscntrl	0x288e5
	isgraph	0x28925
	islower	0x28945
	isprint	0x28965
	ispunct	0x28985
	isspace	0x289a5
	isupper	0x289c5
	isxdigit	0x289e5
	btowc	0x1415d
	fwprintf	0x1415f
	wprintf	0x1417b
	swprintf	0x14197
	vwprintf	0x141b3
	vfwprintf	0x141b3
	vswprintf	0x141b3
	fwscanf	0x141c3
	wscanf	0x1417b
	swscanf	0x141c3
	iswalnum	0x141db
	iswalpha	0x141df
	iswcntrl	0x141e3
	iswdigit	0x141e7
	iswgraph	0x141eb
	iswlower	0x141ef
	iswprint	0x141f3
	iswpunct	0x141f7
	iswspace	0x141fb
	iswupper	0x141ff
	iswxdigit	0x14203
	iswctype	0x14207
	fgetwc	0x1426b
	fgetc	0x14281
	fgetws	0x1426f
	fputwc	0x14273
	fputc	0x25545
	fputws	0x14279
	fwide	0x1427d
	getwc	0x14281
	__srget	0x1518b
	getc	0x14bb1
	getwchar	0x142b5
	mbsinit	0x142f1
	mbrlen	0x142f5
	mbrtowc	0x142fd
	mbsrtowcs	0x14325
	memchr	0x39f0f
	mbstowcs	0x14351
	putwc	0x14273
	putwchar	0x14365
	putc	0x14fd1
	__swbuf	0x28631
	towlower	0x143b5
	towupper	0x143d5
	ungetwc	0x143f5
	ungetc	0x26291
	wcrtomb	0x143fb
	wcsftime	0x14405
	strftime	0x1f841
	wcsrtombs	0x14325
	wcstombs	0x14351
	wcstod	0x14409
	strtod	0x29609
	wcstol	0x1440d
	strtol	0x2ad31
	wcstoul	0x14411
	wcswcs	0x14415
	wctob	0x1415d
	wctype	0x14419
	wcwidth	0x14441
	clearerr	0x14451
	flockfile	0x2bc4f
	funlockfile	0x2bc69
	clearerr_unlocked	0x14489
	__sflush	0x252a7
	__sflags	0x148b3
	fcntl	0x2bbf1
	__sfp	0x25419
	__sread	0x26209
	__swrite	0x2622b
	__sseek	0x26263
	__sclose	0x26287
	feof	0x14601
	feof_unlocked	0x14635
	ferror	0x1463d
	ferror_unlocked	0x14671
	__slbexpand	0x14679
	fgetln	0x1469d
	__srefill	0x25f8d
	fgetpos	0x1479d
	ftello	0x25bf9
	fileno	0x1487d
	fileno_unlocked	0x148ad
	fpurge	0x149c1
	fsetpos	0x14a79
	fseeko	0x2594d
	funopen	0x14a81
	_fwalk	0x14acd
	fwrite	0x14b0d
	getc_unlocked	0x14bf9
	getchar	0x14c15
	getchar_unlocked	0x14c65
	__swhatbuf	0x14c91
	__smakebuf	0x14d05
	isatty	0x2cb45
	_cleanup	0x2538d
	mktemp	0x14fa5
	strchr	0x23283
	arc4random_uniform	0x2b66d
	__memcpy_chk	0x21fc5
	stat	0x20adc
	mkdir	0x20b1c
	lstat	0x20afc
	mkstemps	0x14f39
	mkdtemp	0x14f75
	putc_unlocked	0x1500d
	putchar	0x15049
	putchar_unlocked	0x1508d
	puts	0x15091
	putw	0x15105
	remove	0x15159
	rmdir	0x20b5c
	setbuf	0x151ab
	setvbuf	0x151d5
	setbuffer	0x151bb
	setlinebuf	0x151c9
	tempnam	0x15331
	issetugid	0x12da1
	getenv	0x28ab1
	tmpnam	0x15461
	__swsetup	0x154a9
	__sinit	0x253a1
	abs	0x1555d
	__aeabi_idivmod	0x3a458
	__aeabi_idiv	0x3a37c
	strncmp	0x39e91
	warnx	0x2bb21
	getopt	0x15d95
	getopt_long	0x15da3
	getopt_long_only	0x15db3
	imaxabs	0x15dc3
	__aeabi_ldivmod	0x3b584
	imaxdiv	0x15ddb
	labs	0x1555d
	llabs	0x15dc3
	realpath	0x16151
	strlcpy	0x3a019
	__memmove_chk	0x2309d
	strrchr	0x39f07
	strlcat	0x39fcd
	readlink	0x20b3c
	wcpcpy	0x16461
	wcpncpy	0x16475
	wcscasecmp	0x164a7
	wcscspn	0x164d5
	wcsdup	0x164fb
	wcslen	0x3a0d5
	wmemcpy	0x16767
	wcslcat	0x1651b
	wcslcpy	0x1656b
	wcsncasecmp	0x165ad
	wcsncat	0x165f1
	wcsncmp	0x1661b
	wcsncpy	0x1663d
	wcsnlen	0x16665
	wcspbrk	0x16679
	wcsspn	0x1669b
	wcsstr	0x166c1
	wcstok	0x166fb
	wmemchr	0x1674b
	wmemmove	0x1676d
	memmove	0x2328c
	wmemset	0x16773
	SHA1Transform	0x16785
	SHA1Init	0x1797d
	SHA1Update	0x179cd
	SHA1Final	0x17a79
	inet_aton	0x17b69
	inet_addr	0x17cb9
	creat	0x17ccd
	ftw	0x17d05
	fts_open	0x2c3bd
	fts_read	0x2c599
	fts_close	0x2c529
	nftw	0x17da1
	nice	0x17e79
	getpriority	0x2c9b7
	setpriority	0x200f4
	popen	0x17ed5
	socketpair	0x211ec
	pipe2	0x20680
	pthread_rwlock_rdlock	0x23690
	vfork	0x201b4
	pthread_rwlock_unlock	0x237b4
	dup2	0x206a4
	execl	0x242dd
	pclose	0x180cd
	pthread_rwlock_wrlock	0x237ac
	psignal	0x18181
	psiginfo	0x18205
	longjmperror	0x1820d
	utime	0x1821d
	utimes	0x21014
	inet_ntoa	0x18265
	inet_ntop	0x18345
	inet_pton	0x186f1
	__evConsIovec	0x188fd
	__evConsTime	0x18921
	__evAddTime	0x18929
	__evSubTime	0x18965
	__evCmpTime	0x1899d
	__evNowTime	0x189d3
	gettimeofday	0x20e18
	__evUTCTime	0x189d3
	__evTimeSpec	0x18a17
	__evTimeVal	0x18a2f
	regcomp	0x1a005
	regfree	0x1c499
	regerror	0x1a34d
	memcmp	0x21b70
	regexec	0x1ba59
	__getdelim	0x1c52d
	getdelim	0x1c64d
	getline	0x1c695
	bsearch	0x1c69d
	div	0x1c73d
	drand48	0x1c76d
	erand48	0x1c781
	__dorand48	0x1c8c5
	ldexp	0x2cba1
	jrand48	0x1c811
	ldiv	0x1c73d
	lldiv	0x15ddb
	lrand48	0x1c845
	mrand48	0x1c869
	nrand48	0x1c88d
	seed48	0x1c931
	srand48	0x1c9b9
	tdelete	0x1ca05
	tfind	0x1cab9
	tsearch	0x1cb29
	memccpy	0x1cba9
	strcasestr	0x1cc15
	strncasecmp	0x2b1c5
	strxfrm	0x1cd05
	killpg	0x1cd75
	kill	0x21958
	asctime_r	0x1cd95
	__strlen_chk	0x23125
	__sprintf_chk	0x23265
	asctime	0x1ceb5
	difftime	0x1cec1
	__strncpy_chk	0x23199
	strncpy	0x39edf
	tzsetwall	0x1ea29
	__strcpy_chk	0x22625
	tzset	0x1eb5d
	localtime_r	0x1eb6f
	localtime	0x1eb95
	gmtime_r	0x1eba1
	gmtime	0x1ebc1
	ctime	0x1ebcd
	ctime_r	0x1ebdb
	mktime	0x1ebf1
	timelocal	0x1ec19
	timegm	0x1ec25
	time2posix	0x1ec4d
	posix2time	0x1ec65
	mktime_tz	0x1ecc5
	localtime_tz	0x1ed25
	mktime64	0x2ee69
	strftime_tz	0x1f7f5
	strptime	0x1fd45
	__fork	0x1fd9c
	__sys_clone	0x1fe04
	execve	0x1fe2c
	__setuid	0x1fe4c
	getgid	0x1fe8c
	geteuid	0x1feac
	getegid	0x1fecc
	getresuid	0x1feec
	getresgid	0x1ff0c
	readahead	0x1ff4c
	getgroups	0x1ff74
	getpgid	0x1ff94
	getppid	0x1ffb4
	getsid	0x1ffd4
	setsid	0x1fff4
	setgid	0x20014
	__setreuid	0x20034
	__setresuid	0x20054
	setresgid	0x20074
	__ptrace	0x200b4
	__getpriority	0x200d4
	setrlimit	0x20114
	getrusage	0x20154
	setgroups	0x20174
	setpgid	0x20194
	setregid	0x201d4
	chroot	0x201f4
	capget	0x2023c
	capset	0x2025c
	acct	0x2029c
	pread64	0x202fc
	pwrite64	0x20324
	__open	0x2034c
	__openat	0x2036c
	__llseek	0x203d0
	msync	0x20480
	mlock	0x204e0
	munlock	0x20500
	mlockall	0x20520
	munlockall	0x20540
	mincore	0x20560
	__ioctl	0x20580
	readv	0x205a0
	__fcntl	0x205e0
	flock	0x20600
	fchmod	0x20620
	dup	0x20640
	pipe	0x20660
	select	0x206c4
	ftruncate	0x206ec
	ftruncate64	0x2070c
	fsync	0x2074c
	fdatasync	0x2076c
	fchown	0x2078c
	sync	0x207ac
	__fcntl64	0x207cc
	sendfile	0x20810
	fstatat	0x20830
	mkdirat	0x20854
	fchownat	0x20878
	fchmodat	0x208a4
	renameat	0x208c8
	fsetxattr	0x208ec
	fgetxattr	0x20914
	flistxattr	0x20934
	fremovexattr	0x20954
	link	0x20974
	unlinkat	0x209b4
	chdir	0x209d4
	mknod	0x209f4
	chmod	0x20a14
	chown	0x20a34
	lchown	0x20a54
	mount	0x20a74
	umount2	0x20a9c
	rename	0x20b7c
	access	0x20bbc
	faccessat	0x20bdc
	symlink	0x20c00
	fchdir	0x20c20
	truncate	0x20c40
	setxattr	0x20c60
	lsetxattr	0x20c88
	getxattr	0x20cb0
	lgetxattr	0x20cd0
	listxattr	0x20cf0
	llistxattr	0x20d10
	removexattr	0x20d30
	lremovexattr	0x20d50
	unshare	0x20d94
	swapon	0x20db8
	swapoff	0x20dd8
	pause	0x20df8
	settimeofday	0x20e38
	times	0x20e58
	nanosleep	0x20e78
	clock_settime	0x20ebc
	clock_nanosleep	0x20f00
	getitimer	0x20f24
	setitimer	0x20f44
	__timer_create	0x20f64
	__timer_settime	0x20f88
	__timer_gettime	0x20fac
	__timer_getoverrun	0x20fd0
	__timer_delete	0x20ff0
	timerfd_create	0x21058
	timerfd_settime	0x2107c
	timerfd_gettime	0x210a0
	__sigsuspend	0x21104
	__rt_sigaction	0x21124
	sigpending	0x21184
	socket	0x211c8
	bind	0x2120c
	connect	0x21230
	listen	0x21254
	accept	0x21274
	getsockname	0x21298
	getpeername	0x212bc
	sendto	0x212e0
	recvfrom	0x2130c
	shutdown	0x21334
	setsockopt	0x21358
	getsockopt	0x21384
	sendmsg	0x213b0
	recvmsg	0x213d0
	sched_yield	0x21434
	sched_setparam	0x21454
	sched_get_priority_max	0x21494
	sched_get_priority_min	0x214b4
	sched_rr_get_interval	0x214d4
	sched_setaffinity	0x214f4
	__getcpu	0x21534
	ioprio_set	0x21558
	ioprio_get	0x2157c
	uname	0x215a0
	umask	0x215c0
	__reboot	0x215e0
	__syslog	0x21600
	init_module	0x21620
	delete_module	0x21640
	klogctl	0x21600
	sysinfo	0x21660
	personality	0x21680
	perf_event_open	0x216a0
	futex	0x216c8
	epoll_create	0x216f0
	epoll_ctl	0x21710
	epoll_wait	0x21730
	inotify_init	0x21750
	inotify_add_watch	0x21770
	inotify_rm_watch	0x21794
	poll	0x217b8
	eventfd	0x217d8
	cacheflush	0x2181c
	__bionic_clone	0x21884
	__bionic_clone_entry	0x2b791
	ffs	0x218e8
	__futex_wait	0x21914
	__futex_wake	0x21934
	__memcmp16	0x21978
	_setjmp	0x21dfc
	_longjmp	0x21e28
	setjmp	0x21e78
	sigblock	0x2df35
	longjmp	0x21ebc
	sigsetmask	0x2dfab
	sigsetjmp	0x21f2c
	siglongjmp	0x21f3c
	syscall	0x21f50
	tkill	0x21fa4
	__memcpy_chk_fail	0x2209d
	__memcpy_base	0x21fd5
	__memset_chk	0x220b0
	bzero	0x220d4
	__strcat_chk	0x2244d
	__strcat_chk_failed	0x22611
	__strcat_chk_memcpy_base	0x22549
	__strcpy_chk_failed	0x227d1
	__strcpy_chk_memcpy_base	0x22709
	strcat	0x227e5
	__fgets_chk	0x23071
	__strlcat_chk	0x230ed
	__strlcpy_chk	0x23109
	__strncat_chk	0x23141
	__strrchr_chk	0x231b9
	__umask_chk	0x231e9
	__vsnprintf_chk	0x23209
	vsnprintf	0x28535
	__snprintf_chk	0x23229
	__vsprintf_chk	0x23241
	bcopy	0x39db5
	__bionic_atfork_run_prepare	0x232dc
	__bionic_atfork_run_child	0x23328
	__bionic_atfork_run_parent	0x23394
	pthread_rwlockattr_init	0xe4ac
	pthread_rwlockattr_destroy	0xe4c0
	pthread_rwlockattr_setpshared	0xecac
	pthread_rwlockattr_getpshared	0xec88
	pthread_rwlock_init	0x23470
	pthread_rwlock_destroy	0x23524
	pthread_rwlock_tryrdlock	0x23564
	pthread_rwlock_timedrdlock	0x235c8
	pthread_rwlock_trywrlock	0x23698
	pthread_rwlock_timedwrlock	0x236f4
	timer_create	0x23e08
	timer_delete	0x23ff8
	timer_gettime	0x24068
	timer_settime	0x240d0
	timer_getoverrun	0x2421c
	ptrace	0x24270
	alarm	0x242ad
	execle	0x24365
	execv	0x243e1
	execvp	0x24401
	strsep	0x2b25d
	execlp	0x24615
	fnmatch	0x2499d
	strnlen	0x39fb7
	isblank	0x28a05
	setlogmask	0x24cb9
	openlog_r	0x24ccd
	openlog	0x24cf1
	closelog_r	0x24cfd
	vsyslog_r	0x24d15
	syslog	0x250b1
	syslog_r	0x25081
	send	0x2deb5
	usleep	0x2f5a9
	vsyslog	0x25099
	closelog	0x250c9
	setlogmask_r	0x250d5
	system	0x250e1
	bsd_signal	0x2df9b
	clock	0x25221
	asprintf	0x25235
	__vfprintf	0x26a99
	__sflush_locked	0x252fd
	fflush	0x25331
	vfprintf	0x27c79
	fread	0x255a9
	freopen	0x2576d
	fscanf	0x25935
	vfscanf	0x27cb5
	fseek	0x25bf5
	ftell	0x25c85
	gets	0x25ed5
	printf	0x25f4d
	rewind	0x260a5
	scanf	0x260e1
	sprintf	0x26167
	vasprintf	0x263f1
	strtoumax	0x2afb9
	strtoimax	0x2aa91
	vprintf	0x28511
	vsprintf	0x2858b
	vscanf	0x285c9
	vsscanf	0x285ed
	_thread_atexit_lock	0x2ea2d
	_thread_atexit_unlock	0x2ea39
	isascii	0x28a17
	toascii	0x28a21
	__findenv	0x28a39
	putenv	0x28abb
	setenv	0x28af9
	unsetenv	0x28c11
	freedtoa	0x2a051
	strtoll	0x2ae89
	strtoull	0x2afb5
	tolower	0x2b16d
	toupper	0x2b185
	strcasecmp	0x2b19d
	strcspn	0x2b1f9
	strpbrk	0x2b239
	strspn	0x2b28f
	strtok_r	0x2b2eb
	strtok	0x2b33d
	wcswidth	0x2b349
	wcsxfrm	0x2b373
	wcscpy	0x3a09f
	__arc4_getbyte	0x2b4e9
	arc4random_stir	0x2b52d
	arc4random_addrandom	0x2b54d
	arc4random	0x2b589
	arc4random_buf	0x2b601
	atol	0x2b6a1
	atoll	0x2b6ad
	bindresvport	0x2b6b5
	clone	0x2b7a1
	clearenv	0x2b7ed
	cpuacct_add	0x2b815
	daemon	0x2b8f9
	fork	0x2bc75
	verr	0x2b979
	err	0x2b9e9
	verrx	0x2b9f9
	errx	0x2ba45
	vwarn	0x2ba55
	warn	0x2bac1
	vwarnx	0x2bad9
	ether_aton_r	0x2bb5f
	ether_aton	0x2bba5
	ether_ntoa_r	0x2bbb1
	ether_ntoa	0x2bbe5
	vfdprintf	0x2bc0b
	fdprintf	0x2bc37
	ftrylockfile	0x2bc5b
	fstatfs	0x2bcb7
	ftime	0x2bcbf
	ftok	0x2bd09
	fts_set	0x2c865
	fts_children	0x2c87d
	getdtablesize	0x2c92d
	gethostname	0x2c949
	getpgrp	0x2c9b1
	getpt	0x2c9c9
	if_indextoname	0x2c9d9
	ioctl	0x2cb29
	if_nametoindex	0x2ca5d
	initgroups	0x2cac9
	lseek64	0x2cc91
	MD5_Init	0x2ccb9
	MD5_Update	0x2ccdd
	MD5_Final	0x2d581
	memmem	0x2d635
	memswap	0x2d6cd
	openat	0x2d6fd
	__openat_2	0x2d721
	__open_2	0x2d769
	pathconf	0x2d78d
	statfs	0x2dffb
	fpathconf	0x2d845
	perror	0x2d8fd
	pread	0x2d97d
	pselect	0x2d98d
	ptsname	0x2da05
	ptsname_r	0x2da39
	pututline	0x2dabd
	pwrite	0x2db81
	reboot	0x2db91
	recv	0x2dba5
	__sched_cpualloc	0x2dbb3
	__sched_cpufree	0x2a051
	__popcountsi2	0x3b65c
	__sched_cpucount	0x2dbbd
	sched_getcpu	0x2dbdd
	sem_init	0x2dc69
	sem_destroy	0x2dc95
	sem_open	0x2dcbd
	sem_close	0x2dcd3
	sem_unlink	0x2dced
	sem_wait	0x2dcfd
	sem_timedwait	0x2dd3d
	sem_post	0x2ddf9
	sem_trywait	0x2de69
	sem_getvalue	0x2de93
	setegid	0x2dec3
	seteuid	0x2decf
	setpgrp	0x2dee7
	setresuid	0x2deef
	setreuid	0x2df0b
	setuid	0x2df23
	siginterrupt	0x2df4d
	sysv_signal	0x2dfa3
	sigsuspend	0x2dfc3
	sleep	0x2dfcf
	strndup	0x2e003
	strntoimax	0x2e02d
	strntoumax	0x2e031
	strtotimeval	0x2e13d
	__system_property_set_filename	0x2e3d1
	__system_property_area_init	0x2e3fd
	__system_property_find	0x2e5d5
	__system_property_find_compat	0x2e921
	__system_property_read	0x2e611
	__system_property_read_compat	0x2e985
	__system_property_set	0x2e689
	__system_property_wait	0x2e7a9
	__system_property_update	0x2e7e9
	__system_property_add	0x2e84d
	__system_property_serial	0x12025
	__system_property_wait_any	0x2e8a9
	__system_property_foreach	0x2e8cd
	__system_property_foreach_compat	0x2e9c9
	__system_property_find_nth	0x2e8f5
	tcgetpgrp	0x2ea01
	tcsetpgrp	0x2ea19
	timegm64	0x2ebc1
	fake_localtime_r	0x2ee09
	fake_gmtime_r	0x2ee39
	timelocal64	0x2f031
	gmtime64_r	0x2f039
	localtime64_r	0x2f3f9
	asctime64_r	0x2f4e1
	ctime64_r	0x2f541
	localtime64	0x2f559
	gmtime64	0x2f565
	asctime64	0x2f571
	ctime64	0x2f57d
	umount	0x2f58b
	unlockpt	0x2f591
	setutent	0x2f5e1
	getutent	0x2f5f9
	endutent	0x2f649
	utmpname	0x2f661
	wcscoll	0x2f699
	wcscmp	0x3a085
	__res_get_static	0x345f1
	__get_h_errno	0x345d1
	__res_get_state	0x345e5
	__res_put_state	0x1415d
	dn_expand	0x30c91
	_getshort	0x30da7
	__res_dnok	0x30d83
	__p_class	0x315dd
	__p_type	0x31571
	__res_hnok	0x30ccd
	__res_nsearch	0x32fc5
	res_setiface	0x32a89
	res_setmark	0x32aa7
	__res_nquery	0x32ce5
	__hostalias	0x12da1
	nsdispatch	0x35755
	gethostbyname	0x307f1
	gethostbyname_r	0x30835
	android_gethostbynameforiface	0x3086f
	gethostbyname2	0x308a5
	android_gethostbyaddrforiface_proxy	0x308ad
	android_gethostbyaddrforiface_real	0x30949
	android_gethostbyaddrforiface	0x30a2d
	gethostbyaddr	0x30a7d
	gethostent	0x30a89
	inet_nsap_addr	0x30aa1
	inet_nsap_ntoa	0x30b75
	hstrerror	0x30be1
	herror	0x30c0d
	__ns_name_uncompress	0x38181
	__dn_comp	0x30cad
	__ns_name_compress	0x381d1
	__dn_skipname	0x30cb1
	__ns_name_skip	0x3823f
	__res_ownok	0x30d31
	__res_mailok	0x30d4b
	__putlong	0x30d9b
	__ns_put32	0x386eb
	__putshort	0x30d9f
	__ns_put16	0x386e3
	_getlong	0x30da3
	__ns_get32	0x386cb
	__ns_get16	0x386c1
	res_init	0x30dad
	__res_randomid	0x323e1
	__res_vinit	0x32555
	__fp_nquery	0x30df9
	__res_pquery	0x31a05
	__fp_query	0x30e35
	__p_query	0x30e41
	res_mkquery	0x30e59
	__res_nmkquery	0x32ab1
	res_query	0x30ec5
	__res_send_setqhook	0x30f1d
	__res_send_setrhook	0x30f35
	__res_isourserver	0x30f4d
	__res_send	0x30f65
	__res_nsend	0x336e5
	__res_close	0x30fa9
	__res_nclose	0x32451
	res_search	0x30fbd
	__res_querydomain	0x31015
	__res_nquerydomain	0x32ec1
	__res_opt	0x31071
	__res_nopt	0x32c59
	__p_cdnname	0x31389
	__p_cdname	0x3140d
	__p_fqnname	0x31419
	__p_fqname	0x31461
	__sym_ston	0x314b1
	__sym_ntos	0x314dd
	__sym_ntop	0x31525
	__p_section	0x315bd
	__ns_msg_getflag	0x38295
	__ns_parserr	0x383d1
	__ns_sprintrr	0x39c91
	__p_option	0x3185d
	__p_time	0x319bd
	__ns_format_ttl	0x38595
	__p_rcode	0x319f5
	__ns_initparse	0x3831b
	__p_sockun	0x31d9d
	__loc_aton	0x31e19
	__loc_ntoa	0x32055
	__dn_count_labels	0x32279
	__p_secstodate	0x322b5
	__res_nametoclass	0x32309
	__res_nametotype	0x32375
	__res_ndestroy	0x3249d
	__res_get_nibblesuffix	0x324c1
	__res_get_nibblesuffix2	0x324d9
	__res_setservers	0x324f1
	__res_ninit	0x32a1d
	__res_getservers	0x32a23
	__res_hostalias	0x12da1
	getnameinfo	0x374ff
	__res_nameinquery	0x33561
	__ns_samename	0x39d49
	__res_queriesmatch	0x3360d
	_resolv_flush_cache_for_default_iface	0x34f51
	_resolv_flush_cache_for_iface	0x34f8d
	_resolv_set_default_iface	0x34fc5
	_resolv_set_nameservers_for_iface	0x35011
	freeaddrinfo	0x366a5
	getaddrinfo	0x36f41
	_cache_get_nameserver_addr	0x351d1
	_resolv_set_addr_of_iface	0x35229
	_resolv_set_iface_for_pid	0x3526d
	_resolv_clear_iface_for_pid	0x352e9
	_resolv_get_pids_associated_interface	0x35341
	_resolv_clear_iface_uid_range_mapping	0x353c1
	_resolv_clear_iface_pid_mapping	0x35415
	_resolv_set_iface_for_uid_range	0x35469
	_resolv_clear_iface_for_uid_range	0x354f1
	_resolv_get_uids_associated_interface	0x35575
	getservbyname	0x3751d
	gai_strerror	0x36691
	android_getaddrinfoforiface	0x3678d
	getservbyport	0x378e5
	android_getnameinfoforiface	0x37499
	getservent_r	0x3757d
	setservent	0x37569
	endservent	0x1415d
	getservent	0x37679
	__b64_ntop	0x3768d
	__b64_pton	0x3777d
	__ns_name_ntop	0x37959
	__ns_name_pton	0x37b85
	__ns_name_ntol	0x37e11
	__ns_name_unpack	0x37ebd
	__ns_name_pack	0x37f9f
	__ns_name_rollback	0x38221
	__ns_skiprr	0x382c1
	__ns_sprintrrf	0x3896d
	__ns_makecanon	0x39ce5
	strncat	0x39eb7
	memrchr	0x39f57
	index	0x39fa1
	wcschr	0x3a055
	wcsrchr	0x3a06d
	wmemcmp	0x3a0ad
	wcscat	0x3a0e7
	__atomic_cmpxchg	0x3a101
	__atomic_swap	0x3a123
	__atomic_dec	0x3a147
	__atomic_inc	0x3a161
	__aeabi_atexit	0x3a17b
	__aeabi_memcpy8	0x3a185
	__aeabi_memcpy4	0x3a185
	__aeabi_memcpy	0x3a185
	__aeabi_memmove8	0x3a189
	__aeabi_memmove4	0x3a189
	__aeabi_memmove	0x3a189
	__aeabi_memset8	0x3a18d
	__aeabi_memset4	0x3a18d
	__aeabi_memset	0x3a18d
	__aeabi_memclr8	0x3a197
	__aeabi_memclr4	0x3a197
	__aeabi_memclr	0x3a197
	__bionic_libgcc_compat_hooks	0x3a19d
	__adddf3	0x3a4d8
	__addsf3	0x3af60
	__aeabi_cdcmpeq	0x3ada8
	__aeabi_cdcmple	0x3ada8
	__aeabi_cdrcmple	0x3ad8c
	__aeabi_d2f	0x3aeb4
	__aeabi_d2iz	0x3ae58
	__aeabi_dadd	0x3a4d8
	__aeabi_dcmpeq	0x3adbc
	__aeabi_dcmpge	0x3adf8
	__aeabi_dcmpgt	0x3ae0c
	__aeabi_dcmple	0x3ade4
	__aeabi_dcmplt	0x3add0
	__aeabi_dcmpun	0x3ae20
	__aeabi_ddiv	0x3aaf0
	__aeabi_dmul	0x3a884
	__aeabi_drsub	0x3a4cc
	__aeabi_dsub	0x3a4d4
	__aeabi_f2d	0x3a7d0
	__aeabi_f2iz	0x3b4d4
	__aeabi_f2uiz	0x3b530
	__aeabi_fadd	0x3af60
	__aeabi_fcmpun	0x3b49c
	__aeabi_fdiv	0x3b33c
	__aeabi_fmul	0x3b1a4
	__aeabi_frsub	0x3af54
	__aeabi_fsub	0x3af5c
	__aeabi_i2d	0x3a7a8
	__aeabi_i2f	0x3b0f8
	__aeabi_l2d	0x3a824
	__aeabi_l2f	0x3b128
	__aeabi_lmul	0x3b614
	__aeabi_llsr	0x3a478
	__aeabi_ui2d	0x3a784
	__aeabi_ui2f	0x3b0f0
	__aeabi_ul2d	0x3a810
	__aeabi_ul2f	0x3b118
	__cmpdf2	0x3ad04
	__divdf3	0x3aaf0
	__divsf3	0x3b33c
	__eqdf2	0x3ad04
	__extendsfdf2	0x3a7d0
	__fixdfsi	0x3ae58
	__fixsfsi	0x3b4d4
	__floatdidf	0x3a824
	__floatdisf	0x3b128
	__floatsidf	0x3a7a8
	__floatsisf	0x3b0f8
	__floatundidf	0x3a810
	__floatundisf	0x3b118
	__floatunsidf	0x3a784
	__floatunsisf	0x3b0f0
	__gedf2	0x3acf4
	__gtdf2	0x3acf4
	__ledf2	0x3acfc
	__ltdf2	0x3acfc
	__muldf3	0x3a884
	__muldi3	0x3b614
	__mulsf3	0x3b1a4
	__nedf2	0x3ad04
	__subdf3	0x3a4d4
	__subsf3	0x3af5c
	__truncdfsf2	0x3aeb4
	__unorddf2	0x3ae20
	__unordsf2	0x3b49c
	__udivsi3	0x3a2b4
	__aeabi_idiv0	0x3b604
	__divsi3	0x3a37c
	__lshrdi3	0x3a478
	__ashrdi3	0x3a494
	__ashldi3	0x3a4b0
	__fixunssfsi	0x3b530
	__aeabi_ldiv0	0x3b604
	__gnu_ldivmod_helper	0x3b6a0
	__gnu_uldivmod_helper	0x3b6dc
	__divdi3	0x3cc48
	__udivdi3	0x3d0d0
	__aeabi_unwind_cpp_pr2	0x3c1cc
	__gnu_Unwind_Restore_VFP_D	0x3c61c
	__gnu_Unwind_Restore_VFP	0x3c60c
	__gnu_Unwind_Restore_VFP_D_16_to_31	0x3c62c
	__gnu_Unwind_Restore_WMMXD	0x3c63c
	__gnu_Unwind_Restore_WMMXC	0x3c6c4
	restore_core_regs	0x3c5f8
	_Unwind_GetCFA	0x3bb50
	__gnu_Unwind_RaiseException	0x3bb58
	__gnu_Unwind_ForcedUnwind	0x3bbfc
	__gnu_Unwind_Resume	0x3bc18
	__gnu_Unwind_Resume_or_Rethrow	0x3bc90
	_Unwind_Complete	0x3bcb0
	_Unwind_DeleteException	0x3bcb4
	_Unwind_VRS_Get	0x3bcd4
	_Unwind_VRS_Set	0x3bd40
	__gnu_unwind_execute	0x3c828
	__gnu_Unwind_Backtrace	0x3c1e4
	_Unwind_VRS_Pop	0x3c2a4
	__gnu_Unwind_Save_VFP_D	0x3c624
	__gnu_Unwind_Save_VFP	0x3c614
	__gnu_Unwind_Save_VFP_D_16_to_31	0x3c634
	__gnu_Unwind_Save_WMMXD	0x3c680
	__gnu_Unwind_Save_WMMXC	0x3c6d8
	__restore_core_regs	0x3c5f8
	___Unwind_RaiseException	0x3c6ec
	_Unwind_RaiseException	0x3c6ec
	___Unwind_Resume	0x3c710
	_Unwind_Resume	0x3c710
	___Unwind_Resume_or_Rethrow	0x3c734
	_Unwind_Resume_or_Rethrow	0x3c734
	___Unwind_ForcedUnwind	0x3c758
	_Unwind_ForcedUnwind	0x3c758
	___Unwind_Backtrace	0x3c77c
	_Unwind_Backtrace	0x3c77c
	__gnu_unwind_frame	0x3cbcc
	_Unwind_GetRegionStart	0x3cc0c
	_Unwind_GetLanguageSpecificData	0x3cc1c
	_Unwind_GetDataRelBase	0x3cc38
	_Unwind_GetTextRelBase	0x3cc40
Module(name="libstdc++.so", base_address=0x400d0000, size=12288, path="/system/lib/libstdc++.so")
	func_name	RVA
	__cxa_guard_acquire	0x885
	__cxa_guard_release	0x8db
	__cxa_guard_abort	0x909
	_Znwj	0x919
	_Znaj	0x919
	_ZdlPv	0x927
	_ZdaPv	0x927
	_ZnwjRKSt9nothrow_t	0x92b
	_ZnajRKSt9nothrow_t	0x92b
	_ZdlPvRKSt9nothrow_t	0x927
	_ZdaPvRKSt9nothrow_t	0x927
	__cxa_pure_virtual	0x931
	_ZN9type_infoD2Ev	0x951
	_ZN9type_infoD1Ev	0x951
	_ZN9type_infoD0Ev	0x961
	_ZN9type_infoC2Ev	0x951
	_ZN9type_infoC1Ev	0x951
	_ZNK9type_info4nameEv	0x979
	_ZNK9type_infoeqERKS_	0x985
	_ZNK9type_infoneERKS_	0x985
	_ZNK9type_info6beforeERKS_	0x985
	_ZN9type_infoC2ERKS_	0x951
	_ZN9type_infoC1ERKS_	0x951
Module(name="libm.so", base_address=0x400d3000, size=106496, path="/system/lib/libm.so")
	func_name	RVA
	__fpclassifyf	0x2980
	__fpclassifyd	0x29d4
	__broken__fpclassify	0x2a28
	__isinf	0x2a5c
	__isinff	0x2a98
	__broken__isinfl	0x2ab4
	sincos	0x2abc
	sin	0x13dc0
	cos	0xdf60
	sincosf	0x2b0c
	sinf	0x14210
	cosf	0xe3a0
	sincosl	0x2b54
	sinl	0x15194
	cosl	0x15124
	__exp__D	0x2ba8
	scalb	0xb238
	__log__D	0x2d48
	logb	0x12830
	tgamma	0x3210
	ceil	0xda08
	acosl	0x3688
	acos	0x3688
	sqrt	0xb6dc
	acosf	0x3998
	sqrtf	0xb8d4
	acoshl	0x150f8
	acosh	0x3ba0
	log1p	0x12260
	log	0x9730
	acoshf	0x3cd8
	log1pf	0x12588
	logf	0x99e8
	asinl	0x3df0
	asin	0x3df0
	asinf	0x4068
	atan2l	0x41a8
	atan2	0x41a8
	atan	0xcc10
	atan2f	0x4538
	atanf	0xcea8
	atanhl	0x15100
	atanh	0x48a8
	atanhf	0x49b8
	cosh	0x4a80
	expm1	0x10d28
	exp	0x4c70
	__ldexp_exp	0xbb58
	coshf	0x4b78
	expm1f	0x110a0
	expf	0x4fc0
	__ldexp_expf	0xbc64
	expl	0x4c70
	fmod	0x5268
	fmodf	0x5600
	gamma	0x57dc
	gamma_r	0x5818
	gammaf	0x57f8
	gammaf_r	0x5814
	lgammaf_r	0x7fe0
	lgamma_r	0x8708
	hypotl	0x5820
	hypot	0x5820
	hypotf	0x5a40
	j0	0x5e50
	y0	0x6088
	j0f	0x651c
	y0f	0x66e0
	j1	0x6b10
	y1	0x6d28
	j1f	0x716c
	y1f	0x731c
	jn	0x7540
	yn	0x7938
	jnf	0x7b68
	ynf	0x7e6c
	lgamma	0x7fa8
	lgammaf	0x7fc4
	floorf	0x115c8
	__kernel_sindf	0xc6a8
	__kernel_cosdf	0xbaa8
	floor	0x11460
	__kernel_cos	0xba00
	__kernel_sin	0xc5f0
	log10l	0x1515c
	log10	0x8fc0
	log10f	0x91f0
	log2l	0x15164
	log2	0x9390
	log2f	0x95a0
	logl	0x1516c
	pow	0x9c38
	scalbn	0x13ad8
	powf	0xa488
	scalbnf	0x13c28
	remainderl	0xab38
	remainder	0xab38
	remainderf	0xac68
	__ieee754_rem_pio2	0xad88
	__kernel_rem_pio2	0xbd68
	__ieee754_rem_pio2f	0xb138
	rint	0x137ac
	scalbf	0xb348
	rintf	0x13910
	sinh	0xb448
	sinhf	0xb5a0
	sqrtl	0x15198
	__ldexp_cexp	0xbb9c
	__ldexp_cexpf	0xbcb0
	__kernel_tan	0xc708
	__kernel_tandf	0xc8f8
	asinhl	0x150fc
	asinh	0xc988
	asinhf	0xcad8
	atanl	0xcc10
	carg	0xd098
	cargf	0xd0bc
	cbrt	0xd0d0
	cbrtf	0xd228
	ccosh	0xd308
	ccos	0xd618
	ccoshf	0xd67c
	ccosf	0xd9c8
	ceill	0xda08
	ceilf	0xdb68
	cexp	0xdc14
	cexpf	0xdd98
	cimag	0xded4
	cimagf	0xdee8
	conj	0xdef8
	conjf	0xdf28
	copysign	0xdf40
	copysignf	0xdf50
	cproj	0xe788
	cprojf	0xe820
	creal	0xe890
	crealf	0xe890
	csinh	0xe898
	csin	0xebe0
	csinhf	0xec48
	csinf	0xef6c
	csqrtl	0xefb0
	csqrt	0xefb0
	__signbit	0x13d58
	csqrtf	0xf1c8
	__isnanf	0x1211c
	__signbitf	0x13d60
	ctanh	0xf3b8
	__isfinite	0x120a8
	tan	0x145e0
	ctan	0xf5b0
	ctanhf	0xf618
	__isfinitef	0x120bc
	tanf	0x14a18
	ctanf	0xf7d8
	erf	0xf818
	erfc	0xfcf0
	erff	0x101e0
	erfcf	0x105b8
	exp2l	0x109b0
	exp2	0x109b0
	exp2f	0x10bb8
	expm1l	0x15130
	fabs	0x11398
	fabsf	0x113a0
	fdim	0x113a8
	fdimf	0x113f0
	fdiml	0x113a8
	finite	0x11440
	finitef	0x11450
	floorl	0x11460
	fmal	0x11688
	fma	0x11688
	frexp	0x11e90
	ilogb	0x11f9c
	__isnormal	0x1214c
	nextafter	0x12d6c
	fmaf	0x11af8
	fmax	0x11bbc
	fmaxf	0x11c70
	fmin	0x11d24
	fminf	0x11dd8
	frexpl	0x11e90
	frexpf	0x11f18
	ilogbf	0x12040
	__broken__isfinitel	0x120d0
	isnanf	0x1211c
	isnan	0x120d8
	__broken__isnanl	0x2ab4
	__isnormalf	0x12168
	__broken__isnormall	0x12184
	__aeabi_d2lz	0x15210
	llrint	0x12198
	__aeabi_f2lz	0x151d0
	llrintf	0x121ec
	llround	0x12240
	round	0x139a8
	llroundf	0x12250
	roundf	0x13a38
	log1pl	0x15160
	logbl	0x15168
	logbf	0x128b0
	lrint	0x12920
	lrintf	0x1297c
	lround	0x129d8
	lroundf	0x12a38
	modf	0x12a50
	modff	0x12b48
	nanl	0x12ca0
	nan	0x12ca0
	_scan_nan	0x12bbc
	nanf	0x12cd4
	nearbyint	0x12d00
	nearbyintf	0x12d24
	nearbyintl	0x12d48
	rintl	0x15184
	nexttoward	0x12d6c
	nexttowardl	0x12d6c
	nextafterl	0x12d6c
	nextafterf	0x12ec8
	nexttowardf	0x12f9c
	remquol	0x130b0
	remquo	0x130b0
	remquof	0x13508
	scalbln	0x13ac8
	scalblnf	0x13acc
	scalblnl	0x13ad0
	scalbnl	0x13ac8
	ldexpl	0x13ad8
	ldexpf	0x13c28
	__broken_signbitl	0x13d58
	significand	0x13d68
	significandf	0x13d98
	tanl	0x151c8
	tanh	0x14d40
	tanhf	0x14e40
	tgammaf	0x14f24
	truncl	0x14f48
	trunc	0x14f48
	truncf	0x15030
	cabsl	0x150bc
	cabs	0x150bc
	cabsf	0x150c0
	drem	0x150c4
	dremf	0x150c8
	isinf	0x150cc
	__fpclassifyl	0x150d0
	__isfinitel	0x150d4
	__isinfl	0x150cc
	__isnanl	0x150d8
	__isnormall	0x150f0
	__signbitl	0x150f4
	cbrtl	0x15104
	copysignl	0x15108
	coshl	0x15120
	erfcl	0x15128
	erfl	0x1512c
	fabsl	0x15134
	fmaxl	0x15144
	fmodl	0x15148
	fminl	0x1514c
	ilogbl	0x15150
	lgammal	0x15154
	llrintl	0x15158
	lrintl	0x15170
	llroundl	0x15174
	lroundl	0x15178
	modfl	0x1517c
	powl	0x15180
	roundl	0x15188
	significandl	0x1518c
	sinhl	0x15190
	tanhl	0x151c4
	tgammal	0x151cc
	__aeabi_fcmplt	0x15428
	__fixsfdi	0x151d0
	__aeabi_f2ulz	0x1525c
	__fixdfdi	0x15210
	__aeabi_d2ulz	0x152c4
	__aeabi_d2uiz	0x15328
	__fixunssfdi	0x1525c
	__fixunsdfdi	0x152c4
	__fixunsdfsi	0x15328
	__gtsf2	0x1537c
	__gesf2	0x1537c
	__ltsf2	0x15384
	__lesf2	0x15384
	__cmpsf2	0x1538c
	__nesf2	0x1538c
	__eqsf2	0x1538c
	__aeabi_cfrcmple	0x153f0
	__aeabi_cfcmpeq	0x15400
	__aeabi_cfcmple	0x15400
	__aeabi_fcmpeq	0x15414
	__aeabi_fcmple	0x1543c
	__aeabi_fcmpge	0x15450
	__aeabi_fcmpgt	0x15464
Module(name="libutils.so", base_address=0x400ed000, size=90112, path="/system/lib/libutils.so")
	func_name	RVA
	_ZN7android18BasicHashtableImplD2Ev	0xa7dd
	_ZN7android18BasicHashtableImplD1Ev	0xa7dd
	_ZN7android18BasicHashtableImplD0Ev	0xa7ed
	_ZN7android18BasicHashtableImplC2ERKS0_	0xa805
	_ZNK7android12SharedBuffer7acquireEv	0xd2f5
	_ZN7android18BasicHashtableImplC1ERKS0_	0xa805
	_ZNK7android18BasicHashtableImpl4nextEi	0xa845
	_ZNK7android18BasicHashtableImpl4findEijPKv	0xa86b
	_ZNK7android18BasicHashtableImpl15allocateBucketsEj	0xa909
	_ZN7android12SharedBuffer5allocEj	0xd2c1
	_ZNK7android18BasicHashtableImpl14destroyBucketsEPvj	0xa955
	_ZNK7android18BasicHashtableImpl14releaseBucketsEPvj	0xa97f
	_ZNK7android12SharedBuffer7releaseEj	0xd2f9
	_ZN7android12SharedBuffer7deallocEPKS0_	0xd2d7
	_ZN7android18BasicHashtableImpl5setToERKS0_	0xa9b3
	_ZN7android18BasicHashtableImpl7disposeEv	0xa9ed
	_ZN7android18BasicHashtableImpl5clearEv	0xa9f9
	_ZNK7android18BasicHashtableImpl11copyBucketsEPKvPvj	0xaa43
	_ZN7android18BasicHashtableImpl5cloneEv	0xaa7b
	_ZN7android18BasicHashtableImpl8removeAtEj	0xaab7
	_ZN7android18BasicHashtableImpl17determineCapacityEjfPjS1_	0xaaf1
	_ZN7android18BasicHashtableImpl6rehashEjf	0xabd5
	_ZN7android18BasicHashtableImpl3addEjPKv	0xacbf
	_ZN7android18BasicHashtableImplC2Ejbjf	0xad75
	_ZN7android18BasicHashtableImplC1Ejbjf	0xad75
	_ZNK7android12SortedVectorINS_9BlobCache10CacheEntryEE12do_constructEPvj	0xadad
	_ZN7android10VectorImpl13finish_vectorEv	0xf557
	_ZN7android16SortedVectorImplD2Ev	0xf455
	_ZN7android7RefBaseD2Ev	0xd085
	_ZN7android9BlobCache4BlobD2Ev	0xae41
	_ZN7android9BlobCache4BlobD1Ev	0xae41
	_ZN7android9BlobCache4BlobD0Ev	0xae65
	_ZN7android9BlobCacheC2Ejjj	0xae79
	_ZN7android7RefBaseC2Ev	0xd289
	_ZN7android16SortedVectorImplC2Ejj	0xfa85
	systemTime	0xeac1
	_ZN7android9BlobCacheC1Ejjj	0xae79
	_ZN7android9BlobCache11blob_randomEv	0xaed5
	_ZNK7android9BlobCache11isCleanableEv	0xaedb
	_ZN7android9BlobCache4BlobC2EPKvjb	0xaeed
	_ZN7android9BlobCache4BlobC1EPKvjb	0xaeed
	_ZNK7android9BlobCache4BlobltERKS1_	0xaf29
	_ZNK7android9BlobCache4Blob7getDataEv	0xaf47
	_ZNK7android9BlobCache4Blob7getSizeEv	0xaf4b
	_ZN7android9BlobCache10CacheEntryC2Ev	0xaf4f
	_ZN7android9BlobCache10CacheEntryC1Ev	0xaf4f
	_ZNK7android9BlobCache10CacheEntryltERKS1_	0xaf57
	_ZNK7android12SortedVectorINS_9BlobCache10CacheEntryEE10do_compareEPKvS5_	0xaf5f
	_ZN7android2spINS_9BlobCache4BlobEEC2EPS2_	0xaf79
	_ZNK7android7RefBase9incStrongEPKv	0xd0cb
	_ZN7android2spINS_9BlobCache4BlobEEC1EPS2_	0xaf79
	_ZN7android2spINS_9BlobCache4BlobEED2Ev	0xaf8d
	_ZNK7android7RefBase9decStrongEPKv	0xd173
	_ZN7android2spINS_9BlobCache4BlobEED1Ev	0xaf8d
	_ZNK7android12SortedVectorINS_9BlobCache10CacheEntryEE10do_destroyEPvj	0xafb3
	_ZN7android2spINS_9BlobCache4BlobEEC2ERKS3_	0xafcb
	_ZN7android2spINS_9BlobCache4BlobEEC1ERKS3_	0xafcb
	_ZNK7android9BlobCache10CacheEntry8getValueEv	0xafdf
	_ZNK7android9BlobCache10CacheEntry6getKeyEv	0xafed
	_ZNK7android9BlobCache7flattenEPvj	0xaff9
	_ZNK7android9BlobCache16getFlattenedSizeEv	0xb0ed
	_ZN7android9BlobCache5cleanEv	0xb139
	_ZN7android10VectorImpl13removeItemsAtEjj	0xfa37
	_ZN7android9BlobCache10CacheEntryC2ERKS1_	0xb1a1
	_ZN7android9BlobCache10CacheEntryC1ERKS1_	0xb1a1
	_ZNK7android12SortedVectorINS_9BlobCache10CacheEntryEE7do_copyEPvPKvj	0xb1b7
	_ZNK7android12SortedVectorINS_9BlobCache10CacheEntryEE8do_splatEPvPKvj	0xb1d5
	_ZNK7android12SortedVectorINS_9BlobCache10CacheEntryEE15do_move_forwardEPvPKvj	0xb1f1
	_ZNK7android12SortedVectorINS_9BlobCache10CacheEntryEE16do_move_backwardEPvPKvj	0xb217
	_ZN7android9BlobCache10CacheEntryC2ERKNS_2spINS0_4BlobEEES6_	0xb23b
	_ZN7android9BlobCache10CacheEntryC1ERKNS_2spINS0_4BlobEEES6_	0xb23b
	_ZN7android9BlobCache3getEPKvjPvj	0xb251
	_ZNK7android16SortedVectorImpl7indexOfEPKv	0xfb23
	_ZN7android2spINS_9BlobCache4BlobEEaSERKS3_	0xb2dd
	_ZN7android9BlobCache10CacheEntry8setValueERKNS_2spINS0_4BlobEEE	0xb2fd
	_ZN7android9BlobCache3setEPKvjS2_j	0xb305
	_ZN7android16SortedVectorImpl3addEPKv	0xfb29
	_ZN7android10VectorImpl16editItemLocationEj	0xf663
	_ZN7android9BlobCache9unflattenEPKvj	0xb4a1
	_ZN7android10VectorImpl5clearEv	0xfa2f
	_ZN7android9BlobCache10CacheEntryaSERKS1_	0xb58d
	_ZN7android7RefBase10onFirstRefEv	0xb5c3
	_ZN7android7RefBase15onLastStrongRefEPKv	0xb5c3
	_ZN7android7RefBase20onIncStrongAttemptedEjPKv	0xd07d
	_ZN7android7RefBase13onLastWeakRefEPKv	0xb5c3
	_ZN7android9CallStackC2Ev	0xb5a3
	_ZN7android9CallStackC1Ev	0xb5a3
	_ZN7android9CallStackC2ERKS0_	0xb5a9
	_ZN7android9CallStackC1ERKS0_	0xb5a9
	_ZN7android9CallStackD2Ev	0xb5c3
	_ZN7android9CallStackD1Ev	0xb5c3
	_ZN7android9CallStackaSERKS0_	0xb5a9
	_ZNK7android9CallStackeqERKS0_	0xb5c5
	_ZNK7android9CallStackneERKS0_	0xb5ef
	_ZNK7android9CallStackltERKS0_	0xb5fd
	_ZNK7android9CallStackgeERKS0_	0xb61f
	_ZNK7android9CallStackgtERKS0_	0xb62d
	_ZNK7android9CallStackleERKS0_	0xb655
	_ZNK7android9CallStackixEi	0xb663
	_ZN7android9CallStack5clearEv	0xb677
	_ZN7android9CallStack6updateEiii	0xb67d
	_ZNK7android9CallStack5printERNS_7PrinterE	0xb6d5
	_ZNK7android9CallStack3logEPKc19android_LogPriorityS2_	0xb771
	_ZN7android10LogPrinterC1EPKc19android_LogPriorityS2_b	0xc219
	_ZN7android7PrinterD2Ev	0xc0bd
	_ZN7android9CallStackC2EPKcii	0xb7a9
	_ZN7android9CallStackC1EPKcii	0xb7a9
	_ZNK7android9CallStack4dumpEiiPKc	0xb7cd
	_ZN7android9FdPrinterC1EijPKc	0xc299
	_ZNK7android9CallStack8toStringEPKc	0xb819
	_ZN7android7String8C1Ev	0xd65d
	_ZN7android14String8PrinterC1EPNS_7String8EPKc	0xc2f5
	_ZN7android7FileMapC2Ev	0xb859
	_ZN7android7FileMapC1Ev	0xb859
	_ZN7android7FileMapD2Ev	0xb86d
	_ZN7android7FileMapD1Ev	0xb86d
	_ZN7android7FileMap6createEPKcixjb	0xb8ad
	_ZN7android7FileMap6adviseENS0_9MapAdviceE	0xb981
	_ZN7android17JenkinsHashWhitenEj	0xb9e1
	_ZN7android19JenkinsHashMixBytesEjPKhj	0xb9ef
	_ZN7android20JenkinsHashMixShortsEjPKtj	0xba6b
	_ZN7android15LinearAllocatorC2Ev	0xbab3
	_ZN7android15LinearAllocatorC1Ev	0xbab3
	_ZN7android15LinearAllocatorD2Ev	0xbad1
	_ZN7android15LinearAllocatorD1Ev	0xbad1
	_ZN7android15LinearAllocator5startEPNS0_4PageE	0xbae9
	_ZN7android15LinearAllocator3endEPNS0_4PageE	0xbaf1
	_ZN7android15LinearAllocator17fitsInCurrentPageEj	0xbaf7
	_ZN7android15LinearAllocator17rewindIfLastAllocEPvj	0xbb13
	_ZN7android15LinearAllocator7newPageEj	0xbb4f
	_ZN7android15LinearAllocator10ensureNextEj	0xbb6f
	_ZN7android15LinearAllocator5allocEj	0xbbbf
	_ZN7android15LinearAllocator15dumpMemoryStatsEPKc	0xbc15
	_ZNK7android15LinearTransform18doForwardTransformExPx	0xbf05
	_ZNK7android15LinearTransform18doReverseTransformExPx	0xbf35
	_ZN7android15LinearTransform6reduceIyEEvPT_S3_	0xbf69
	_ZN7android15LinearTransform6reduceIjEEvPT_S3_	0xbfef
	_ZN7android15LinearTransform6reduceEPiPj	0xc037
	_ZN7android9LogIfSlowC2EPKc19android_LogPriorityiS2_	0xc063
	_ZN7android9LogIfSlowC1EPKc19android_LogPriorityiS2_	0xc063
	_ZN7android9LogIfSlowD2Ev	0xc07d
	_ZN7android9LogIfSlowD1Ev	0xc07d
	_ZN7android7PrinterD1Ev	0xc0bd
	_ZN7android13PrefixPrinter9printLineEPKc	0xc0cd
	_ZN7android7PrinterD0Ev	0xc0e9
	_ZN7android7Printer15printFormatLineEPKcz	0xc101
	_ZN7android14String8Printer9printLineEPKc	0xc151
	_ZN7android7String86appendEPKc	0xd8f9
	_ZN7android9FdPrinter9printLineEPKc	0xc1b1
	_ZN7android7PrinterC2Ev	0xc0bd
	_ZN7android7PrinterC1Ev	0xc0bd
	_ZN7android10LogPrinterC2EPKc19android_LogPriorityS2_b	0xc219
	_ZN7android10LogPrinter8printRawEPKc	0xc241
	_ZN7android10LogPrinter9printLineEPKc	0xc25d
	_ZN7android9FdPrinterC2EijPKc	0xc299
	_ZN7android14String8PrinterC2EPNS_7String8EPKc	0xc2f5
	_ZN7android13PrefixPrinterC2ERNS_7PrinterEPKc	0xc339
	_ZN7android13PrefixPrinterC1ERNS_7PrinterEPKc	0xc339
	_ZNK7android12SortedVectorINS_16key_value_pair_tIiNS_16ProcessCallStack10ThreadInfoEEEE10do_compareEPKvS7_	0xc48d
	_ZN7android16ProcessCallStackC2ERKS0_	0xc4a5
	_ZN7android10VectorImplC2ERKS0_	0xf49d
	_ZN7android16ProcessCallStackC1ERKS0_	0xc4a5
	_ZN7android16ProcessCallStackD2Ev	0xc4dd
	_ZN7android16ProcessCallStackD1Ev	0xc4dd
	_ZN7android16ProcessCallStack5clearEv	0xc4e9
	_ZNK7android12SortedVectorINS_16key_value_pair_tIiNS_16ProcessCallStack10ThreadInfoEEEE12do_constructEPvj	0xc513
	_ZN7android7String8D1Ev	0xd74d
	_ZNK7android12SortedVectorINS_16key_value_pair_tIiNS_16ProcessCallStack10ThreadInfoEEEE10do_destroyEPvj	0xc543
	_ZNK7android16ProcessCallStack13printInternalERNS_7PrinterES2_	0xc55d
	_ZN7android7String8C1EPKc	0xd69d
	_ZNK7android16ProcessCallStack5printERNS_7PrinterE	0xc669
	_ZNK7android16ProcessCallStack3logEPKc19android_LogPriorityS2_	0xc6a5
	_ZNK7android16ProcessCallStack4dumpEiiPKc	0xc6dd
	_ZNK7android16ProcessCallStack8toStringEPKc	0xc74d
	_ZNK7android16ProcessCallStack4sizeEv	0xaf47
	_ZN7android16ProcessCallStackC2Ev	0xc7b5
	_ZN7android16ProcessCallStackC1Ev	0xc7b5
	_ZN7android7String8C1ERKS0_	0xd683
	_ZN7android16ProcessCallStack6updateEi	0xc7dd
	_ZN7android7String85setToERKS0_	0xd785
	_ZNK7android12SortedVectorINS_16key_value_pair_tIiNS_16ProcessCallStack10ThreadInfoEEEE16do_move_backwardEPvPKvj	0xca45
	_ZNK7android12SortedVectorINS_16key_value_pair_tIiNS_16ProcessCallStack10ThreadInfoEEEE15do_move_forwardEPvPKvj	0xca6d
	_ZNK7android12SortedVectorINS_16key_value_pair_tIiNS_16ProcessCallStack10ThreadInfoEEEE8do_splatEPvPKvj	0xca9b
	_ZNK7android12SortedVectorINS_16key_value_pair_tIiNS_16ProcessCallStack10ThreadInfoEEEE7do_copyEPvPKvj	0xcab9
	_ZNK7android12SortedVectorINS_16key_value_pair_tINS_7String8ES2_EEE15do_move_forwardEPvPKvj	0xcadb
	_ZNK7android12SortedVectorINS_16key_value_pair_tINS_7String8ES2_EEE16do_move_backwardEPvPKvj	0xcadb
	_ZNK7android12SortedVectorINS_16key_value_pair_tINS_7String8ES2_EEE12do_constructEPvj	0xcb1f
	_ZNK7android12SortedVectorINS_16key_value_pair_tINS_7String8ES2_EEE10do_compareEPKvS6_	0xcb41
	_ZN7android11PropertyMapD2Ev	0xcb8b
	_ZN7android11PropertyMapD1Ev	0xcb8b
	_ZN7android11PropertyMap5clearEv	0xcb97
	_ZN7android11PropertyMap6ParserC2EPS0_PNS_9TokenizerE	0xcb9b
	_ZN7android11PropertyMap6ParserC1EPS0_PNS_9TokenizerE	0xcb9b
	_ZN7android11PropertyMap6ParserD2Ev	0xb5c3
	_ZN7android11PropertyMap6ParserD1Ev	0xb5c3
	_ZNK7android12SortedVectorINS_16key_value_pair_tINS_7String8ES2_EEE10do_destroyEPvj	0xcbb5
	_ZN7android11PropertyMap11addPropertyERKNS_7String8ES3_	0xcbf5
	_ZN7android11PropertyMap6addAllEPKS0_	0xcbf9
	_ZNK7android11PropertyMap11hasPropertyERKNS_7String8E	0xcc3f
	_ZN7android11PropertyMap6Parser5parseEv	0xcc4d
	_ZN7android9Tokenizer14skipDelimitersEPKc	0xee0b
	_ZNK7android9Tokenizer11getLocationEv	0xed55
	_ZN7android9Tokenizer9nextTokenEPKc	0xeda3
	_ZNK7android7String84findEPKcj	0xda49
	_ZNK7android9Tokenizer19peekRemainderOfLineEv	0xed75
	_ZN7android9Tokenizer8nextLineEv	0xede7
	_ZNK7android11PropertyMap14tryGetPropertyERKNS_7String8ERS1_	0xce49
	_ZNK7android11PropertyMap14tryGetPropertyERKNS_7String8ERf	0xce6d
	_ZNK7android11PropertyMap14tryGetPropertyERKNS_7String8ERi	0xcee1
	_ZNK7android11PropertyMap14tryGetPropertyERKNS_7String8ERb	0xcf4d
	_ZN7android11PropertyMapC2Ev	0xcf8d
	_ZN7android11PropertyMapC1Ev	0xcf8d
	_ZN7android11PropertyMap4loadERKNS_7String8EPPS0_	0xcf99
	_ZN7android9Tokenizer4openERKNS_7String8EPPS0_	0xebc1
	_ZN7android9TokenizerD1Ev	0xeb9f
	_ZNK7android12SortedVectorINS_16key_value_pair_tINS_7String8ES2_EEE8do_splatEPvPKvj	0xd043
	_ZNK7android12SortedVectorINS_16key_value_pair_tINS_7String8ES2_EEE7do_copyEPvPKvj	0xd05f
	_ZN7android7RefBaseD1Ev	0xd085
	_ZN7android7RefBaseD0Ev	0xd0b9
	_ZNK7android7RefBase14forceIncStrongEPKv	0xd0f5
	_ZNK7android7RefBase14getStrongCountEv	0xd121
	_ZNK7android7RefBase12weakref_type7refBaseEv	0xaf47
	_ZN7android7RefBase12weakref_type7incWeakEPKv	0xd127
	_ZN7android7RefBase12weakref_type7decWeakEPKv	0xd12d
	_ZN7android7RefBase12weakref_type16attemptIncStrongEPKv	0xd1a9
	_ZN7android7RefBase12weakref_type14attemptIncWeakEPKv	0xd249
	_ZNK7android7RefBase12weakref_type12getWeakCountEv	0xd273
	_ZNK7android7RefBase12weakref_type9printRefsEv	0xb5c3
	_ZN7android7RefBase12weakref_type7trackMeEbb	0xb5c3
	_ZNK7android7RefBase10createWeakEPKv	0xd277
	_ZNK7android7RefBase11getWeakRefsEv	0xd273
	_ZN7android7RefBaseC1Ev	0xd289
	_ZN7android7RefBase20extendObjectLifetimeEi	0xd2b5
	_ZN7android7RefBase10renameRefsEjRKNS_16ReferenceRenamerE	0xb5c3
	_ZN7android7RefBase11renameRefIdEPNS0_12weakref_typeEPKvS4_	0xb5c3
	_ZN7android7RefBase11renameRefIdEPS0_PKvS3_	0xb5c3
	_ZNK7android12SharedBuffer11attemptEditEv	0xd2eb
	_ZNK7android12SharedBuffer5resetEj	0xd323
	_ZNK7android12SharedBuffer10editResizeEj	0xd33d
	_ZNK7android12SharedBuffer4editEv	0xd38b
	_ZN7android18terminate_string16Ev	0xde31
	_ZN7android17terminate_string8Ev	0xd62d
	_ZN7android18initialize_string8Ev	0xd5ed
	_ZN7android19initialize_string16Ev	0xde0d
	_ZNK7android9StopWatch4nameEv	0xd3f9
	_ZNK7android9StopWatch11elapsedTimeEv	0xd3fd
	_ZN7android9StopWatch3lapEv	0xd417
	_ZN7android9StopWatchD2Ev	0xd461
	_ZN7android9StopWatchD1Ev	0xd461
	_ZN7android9StopWatch5resetEv	0xd4f5
	_ZN7android9StopWatchC2EPKcij	0xd50b
	_ZN7android9StopWatchC1EPKcij	0xd50b
	utf32_to_utf8_length	0xefdd
	utf32_to_utf8	0xf005
	utf16_to_utf8_length	0xf231
	utf16_to_utf8	0xf151
	_ZN7android7String8C2Ev	0xd65d
	_ZN7android7String8C2ENS0_13StaticLinkageE	0xd66b
	_ZN7android7String8C1ENS0_13StaticLinkageE	0xd66b
	_ZN7android7String8C2ERKS0_	0xd683
	_ZN7android7String8C2EPKc	0xd69d
	_ZN7android7String8C2EPKcj	0xd6bf
	_ZN7android7String8C1EPKcj	0xd6bf
	_ZN7android7String8C2ERKNS_8String16E	0xd6d9
	_ZN7android7String8C1ERKNS_8String16E	0xd6d9
	_ZN7android7String8C2EPKt	0xd6f5
	strlen16	0xf081
	_ZN7android7String8C1EPKt	0xd6f5
	_ZN7android7String8C2EPKtj	0xd70f
	_ZN7android7String8C1EPKtj	0xd70f
	_ZN7android7String8C2EPKj	0xd721
	strlen32	0xef89
	_ZN7android7String8C1EPKj	0xd721
	_ZN7android7String8C2EPKjj	0xd73b
	_ZN7android7String8C1EPKjj	0xd73b
	_ZN7android7String8D2Ev	0xd74d
	_ZN7android7String85clearEv	0xd767
	_ZN7android7String85setToEPKc	0xd7b1
	_ZN7android7String85setToEPKcj	0xd7ed
	_ZN7android7String85setToEPKtj	0xd821
	_ZN7android7String85setToEPKjj	0xd855
	_ZN7android7String811real_appendEPKcj	0xd889
	_ZN7android7String86appendEPKcj	0xd8c9
	_ZN7android7String86appendERKS0_	0xd913
	_ZN7android7String810lockBufferEj	0xd947
	_ZN7android7String813appendFormatVEPKcSt9__va_list	0xd965
	_ZN7android7String812appendFormatEPKcz	0xd9ad
	_ZN7android7String87formatVEPKcSt9__va_list	0xd9c5
	_ZN7android7String86formatEPKcz	0xd9df
	_ZN7android7String812unlockBufferEj	0xd9fb
	_ZN7android7String812unlockBufferEv	0xda33
	_ZN7android7String87toLowerEjj	0xda71
	_ZN7android7String87toLowerEv	0xdad5
	_ZN7android7String87toUpperEjj	0xdaed
	_ZN7android7String87toUpperEv	0xdb51
	_ZNK7android7String814getUtf32LengthEv	0xdb67
	utf8_to_utf32_length	0xf283
	_ZNK7android7String810getUtf32AtEjPj	0xdb7b
	utf32_from_utf8_at	0xefb5
	_ZNK7android7String88getUtf32EPj	0xdb97
	utf8_to_utf32	0xf2b7
	_ZN7android7String811setPathNameEPKcj	0xdbaf
	_ZN7android7String811setPathNameEPKc	0xdbe5
	_ZNK7android7String811getPathLeafEv	0xdbff
	_ZNK7android7String810getPathDirEv	0xdc25
	_ZNK7android7String88walkPathEPS0_	0xdc55
	_ZNK7android7String814find_extensionEv	0xdcdd
	_ZNK7android7String816getPathExtensionEv	0xdcfd
	_ZNK7android7String811getBasePathEv	0xdd21
	_ZN7android7String810appendPathEPKc	0xdd49
	_ZN7android7String816convertToResPathEv	0xb5c3
	utf8_to_utf16_length	0xf2e1
	utf8_to_utf16	0xf387
	_ZN7android8String16C2Ev	0xde61
	_ZN7android8String16C1Ev	0xde61
	_ZN7android8String16C2ENS0_13StaticLinkageE	0xde6f
	_ZN7android8String16C1ENS0_13StaticLinkageE	0xde6f
	_ZN7android8String16C2ERKS0_	0xd683
	_ZN7android8String16C1ERKS0_	0xd683
	_ZN7android8String16C2EPKt	0xde87
	strcpy16	0xf073
	_ZN7android8String16C1EPKt	0xde87
	_ZN7android8String16C2EPKtj	0xdeb7
	_ZN7android8String16C1EPKtj	0xdeb7
	_ZN7android8String16C2ERKNS_7String8E	0xdeeb
	_ZN7android8String16C1ERKNS_7String8E	0xdeeb
	_ZN7android8String16C2EPKc	0xdf07
	_ZN7android8String16C1EPKc	0xdf07
	_ZN7android8String16C2EPKcj	0xdf21
	_ZN7android8String16C1EPKcj	0xdf21
	_ZN7android8String16D2Ev	0xd74d
	_ZN7android8String16D1Ev	0xd74d
	_ZN7android8String165setToERKS0_	0xd785
	_ZN7android8String165setToEPKtj	0xdf33
	_ZN7android8String165setToEPKt	0xdf6f
	_ZN7android8String165setToERKS0_jj	0xdf89
	_ZN7android8String16C2ERKS0_jj	0xdff5
	_ZN7android8String16C1ERKS0_jj	0xdff5
	_ZN7android8String166appendERKS0_	0xe015
	_ZN7android8String166appendEPKtj	0xe06f
	_ZN7android8String166insertEjPKtj	0xe0d3
	_ZN7android8String166insertEjPKt	0xe157
	_ZNK7android8String169findFirstEt	0xe175
	_ZNK7android8String168findLastEt	0xe1a1
	_ZNK7android8String1610startsWithERKS0_	0xe1cd
	strzcmp16	0xf0cd
	_ZNK7android8String1610startsWithEPKt	0xe1ff
	strncmp16	0xf053
	_ZN7android8String169makeLowerEv	0xe231
	_ZN7android8String1610replaceAllEtt	0xe2a5
	_ZN7android8String166removeEjj	0xe2fd
	_ZN7android12uptimeMillisEv	0xe391
	_ZN7android19elapsedRealtimeNanoEv	0xe3a9
	_ZN7android15elapsedRealtimeEv	0xe415
	_ZN7android6Thread10readyToRunEv	0xe429
	androidCreateRawThreadEtc	0xe42d
	_ZN7android6Thread11requestExitEv	0xe4f9
	androidSetThreadName	0xe517
	androidGetThreadId	0xe593
	androidCreateThreadEtc	0xe599
	_Z24androidCreateThreadGetIDPFiPvES_PS_	0xe5b1
	androidCreateThread	0xe5cd
	androidSetCreateThreadFunc	0xe5e9
	androidGetTid	0xe5f5
	androidSetThreadPriority	0xe5f9
	androidGetThreadPriority	0xe649
	_ZN7android6ThreadC2Eb	0xe651
	_ZN7android6ThreadC1Eb	0xe68d
	_ZN7android6Thread18requestExitAndWaitEv	0xe6d9
	_ZN7android6Thread4joinEv	0xe739
	_ZNK7android6Thread9isRunningEv	0xe795
	_ZNK7android6Thread6getTidEv	0xe7b5
	_ZNK7android6Thread11exitPendingEv	0xe7f9
	_ZN7android2spINS_6ThreadEED2Ev	0xe817
	_ZN7android2spINS_6ThreadEED1Ev	0xe817
	_ZN7android6ThreadD1Ev	0xe831
	_ZN7android6ThreadD0Ev	0xe86d
	_ZN7android6ThreadD2Ev	0xe87f
	_ZN7android2spINS_6ThreadEE5clearEv	0xe8ab
	_ZN7android6Thread3runEPKcij	0xe8c9
	_ZN7android6Thread11_threadLoopEPv	0xe985
	_ZTv0_n12_N7android6ThreadD0Ev	0xeaa9
	_ZTv0_n12_N7android6ThreadD1Ev	0xeab5
	toMillisecondTimeoutDelay	0xeaf9
	_ZN7android9TokenizerC2ERKNS_7String8EPNS_7FileMapEPcbj	0xeb7b
	_ZN7android9TokenizerC1ERKNS_7String8EPNS_7FileMapEPcbj	0xeb7b
	_ZN7android9TokenizerD2Ev	0xeb9f
	_ZN7android9Tokenizer12fromContentsERKNS_7String8EPKcPPS0_	0xed1d
	strnlen32	0xef9b
	strcmp16	0xf03d
	strncpy16	0xf093
	strnlen16	0xf0b3
	strzcmp16_h_n	0xf109
	utf8_length	0xf1a9
	utf8_to_utf16_no_null_terminator	0xf32b
	utf8_to_utf16_n	0xf393
	_ZN7android10VectorImplD2Ev	0xf409
	_ZN7android10VectorImplD1Ev	0xf409
	_ZN7android10VectorImplD0Ev	0xf441
	_ZN7android16SortedVectorImplD1Ev	0xf455
	_ZN7android16SortedVectorImplD0Ev	0xf46d
	_ZN7android10VectorImplC2Ejj	0xf481
	_ZN7android10VectorImplC1Ejj	0xf481
	_ZN7android10VectorImplC1ERKS0_	0xf49d
	_ZNK7android10VectorImpl8capacityEv	0xf4c9
	_ZNK7android10VectorImpl12itemLocationEj	0xf4e1
	_ZNK7android10VectorImpl8itemSizeEv	0xf503
	_ZN7android10VectorImpl15release_storageEv	0xf52b
	_ZN7android10VectorImplaSERKS0_	0xf569
	_ZN7android10VectorImpl11setCapacityEj	0xf5e9
	_ZN7android10VectorImpl13editArrayImplEv	0xf627
	_ZN7android10VectorImpl9replaceAtEPKvj	0xf687
	_ZN7android10VectorImpl9replaceAtEj	0xf6d3
	_ZN7android10VectorImpl4sortEPFiPKvS2_PvES3_	0xf6db
	_ZN7android10VectorImpl4sortEPFiPKvS2_E	0xf7dd
	_ZN7android10VectorImpl5_growEjj	0xf7ed
	_ZN7android10VectorImpl8insertAtEPKvjj	0xf8b3
	_ZN7android10VectorImpl3addEPKv	0xf8fb
	_ZN7android10VectorImpl3addEv	0xf903
	_ZN7android10VectorImpl4pushEPKv	0xf8fb
	_ZN7android10VectorImpl4pushEv	0xf903
	_ZN7android10VectorImpl8insertAtEjj	0xf909
	_ZN7android10VectorImpl13insertArrayAtEPKvjj	0xf91b
	_ZN7android10VectorImpl11appendArrayEPKvj	0xf951
	_ZN7android10VectorImpl14insertVectorAtERKS0_j	0xf959
	_ZN7android10VectorImpl12appendVectorERKS0_	0xf963
	_ZN7android10VectorImpl7_shrinkEjj	0xf969
	_ZN7android10VectorImpl6resizeEj	0xfa51
	_ZN7android10VectorImpl3popEv	0xfa77
	_ZN7android16SortedVectorImplC1Ejj	0xfa85
	_ZN7android16SortedVectorImplC2ERKNS_10VectorImplE	0xfaa1
	_ZN7android16SortedVectorImplC1ERKNS_10VectorImplE	0xfaa1
	_ZN7android16SortedVectorImplaSERKS0_	0xfab9
	_ZNK7android16SortedVectorImpl13_indexOrderOfEPKvPj	0xfabd
	_ZNK7android16SortedVectorImpl7orderOfEPKv	0xfb17
	_ZN7android16SortedVectorImpl5mergeERKNS_10VectorImplE	0xfb4d
	_ZN7android16SortedVectorImpl5mergeERKS0_	0xfb7f
	_ZN7android16SortedVectorImpl6removeEPKv	0xfbe3
	_ZNK7android6VectorINS_28sysprop_change_callback_infoEE12do_constructEPvj	0xb5c3
	_ZNK7android6VectorINS_28sysprop_change_callback_infoEE10do_destroyEPvj	0xb5c3
	_ZNK7android6VectorINS_28sysprop_change_callback_infoEE7do_copyEPvPKvj	0xfbfd
	_ZNK7android6VectorINS_28sysprop_change_callback_infoEE8do_splatEPvPKvj	0xfc19
	_ZNK7android6VectorINS_28sysprop_change_callback_infoEE15do_move_forwardEPvPKvj	0xfc31
	_ZNK7android6VectorINS_28sysprop_change_callback_infoEE16do_move_backwardEPvPKvj	0xfbfd
	_ZN7android21report_sysprop_changeEv	0xfcb5
	_ZN7android27add_sysprop_change_callbackEPFvvEi	0xfd09
	_ZN7android20SimpleLooperCallback11handleEventEiiPv	0xfd81
	_ZNK7android6VectorINS_6Looper8ResponseEE12do_constructEPvj	0xfd8f
	_ZNK7android12SortedVectorINS_16key_value_pair_tIiNS_6Looper7RequestEEEE12do_constructEPvj	0xfd8f
	_ZNK7android6VectorINS_6Looper15MessageEnvelopeEE12do_constructEPvj	0xfda9
	_ZN7android6Looper16threadDestructorEPv	0xfde1
	_ZN7android6Looper10initTLSKeyEv	0xff4d
	_ZNK7android12SortedVectorINS_16key_value_pair_tIiNS_6Looper7RequestEEEE10do_compareEPKvS7_	0xc48d
	_ZN7android6LooperD2Ev	0xff85
	_ZN7android6LooperD1Ev	0xff85
	_ZN7android6LooperD0Ev	0xffd1
	_ZN7android20SimpleLooperCallbackD1Ev	0xffe5
	_ZN7android20SimpleLooperCallbackD0Ev	0x10005
	_ZN7android18WeakMessageHandlerD1Ev	0x10019
	_ZN7android18WeakMessageHandlerD0Ev	0x10059
	_ZN7android18WeakMessageHandlerC2ERKNS_2wpINS_14MessageHandlerEEE	0x1006b
	_ZN7android18WeakMessageHandlerC1ERKNS_2wpINS_14MessageHandlerEEE	0x1009d
	_ZN7android18WeakMessageHandlerD2Ev	0x100d1
	_ZN7android20SimpleLooperCallbackC2EPFiiiPvE	0x100ff
	_ZN7android20SimpleLooperCallbackC1EPFiiiPvE	0x1011d
	_ZN7android20SimpleLooperCallbackD2Ev	0x10145
	_ZN7android6Looper12getForThreadEv	0x10161
	_ZN7android6Looper12setForThreadERKNS_2spIS0_EE	0x101b9
	_ZNK7android6Looper20getAllowNonCallbacksEv	0x10201
	_ZN7android6Looper4wakeEv	0x10205
	_ZN7android6Looper6awokenEv	0x10259
	_ZN7android6Looper14removeMessagesERKNS_2spINS_14MessageHandlerEEE	0x102a1
	_ZN7android6Looper14removeMessagesERKNS_2spINS_14MessageHandlerEEEi	0x102eb
	_ZNK7android6Looper8isIdlingEv	0x10341
	_ZN7android2spINS_14MessageHandlerEED2Ev	0xe817
	_ZN7android2spINS_14MessageHandlerEED1Ev	0xe817
	_ZN7android18WeakMessageHandler13handleMessageERKNS_7MessageE	0x10347
	_ZNK7android6VectorINS_6Looper15MessageEnvelopeEE10do_destroyEPvj	0x1037f
	_ZN7android2spINS_14MessageHandlerEEC2ERKS2_	0x10399
	_ZN7android2spINS_14MessageHandlerEEC1ERKS2_	0x10399
	_ZN7android6Looper17sendMessageAtTimeExRKNS_2spINS_14MessageHandlerEEERKNS_7MessageE	0x103b5
	_ZN7android6Looper18sendMessageDelayedExRKNS_2spINS_14MessageHandlerEEERKNS_7MessageE	0x1045f
	_ZN7android6Looper11sendMessageERKNS_2spINS_14MessageHandlerEEERKNS_7MessageE	0x1048b
	_ZN7android2spINS_14LooperCallbackEED2Ev	0xe817
	_ZN7android2spINS_14LooperCallbackEED1Ev	0xe817
	_ZNK7android6VectorINS_6Looper8ResponseEE10do_destroyEPvj	0x104b9
	_ZNK7android12SortedVectorINS_16key_value_pair_tIiNS_6Looper7RequestEEEE10do_destroyEPvj	0x104b9
	_ZN7android6Looper8removeFdEi	0x104f1
	_ZN7android2spINS_14LooperCallbackEEaSERKS2_	0x10575
	_ZN7android6Looper12pushResponseEiRKNS0_7RequestE	0x105a3
	_ZN7android6Looper9pollInnerEi	0x105dd
	_ZN7android6Looper8pollOnceEiPiS1_PPv	0x1080d
	_ZN7android6Looper7pollAllEiPiS1_PPv	0x10879
	_ZN7android6LooperC2Eb	0x10909
	_ZN7android6LooperC1Eb	0x10909
	_ZN7android6Looper7prepareEi	0x10a85
	_ZN7android6Looper5addFdEiiiRKNS_2spINS_14LooperCallbackEEEPv	0x10b0d
	_ZN7android6Looper5addFdEiiiPFiiiPvES1_	0x10c75
	_ZNK7android6VectorINS_6Looper8ResponseEE7do_copyEPvPKvj	0x10ce5
	_ZNK7android6VectorINS_6Looper8ResponseEE8do_splatEPvPKvj	0x10d03
	_ZNK7android6VectorINS_6Looper8ResponseEE15do_move_forwardEPvPKvj	0x10d1f
	_ZNK7android6VectorINS_6Looper8ResponseEE16do_move_backwardEPvPKvj	0x10d47
	_ZNK7android6VectorINS_6Looper15MessageEnvelopeEE7do_copyEPvPKvj	0x10d85
	_ZNK7android6VectorINS_6Looper15MessageEnvelopeEE8do_splatEPvPKvj	0x10da3
	_ZNK7android6VectorINS_6Looper15MessageEnvelopeEE15do_move_forwardEPvPKvj	0x10dbf
	_ZNK7android6VectorINS_6Looper15MessageEnvelopeEE16do_move_backwardEPvPKvj	0x10de7
	_ZNK7android12SortedVectorINS_16key_value_pair_tIiNS_6Looper7RequestEEEE16do_move_backwardEPvPKvj	0x10d47
	_ZNK7android12SortedVectorINS_16key_value_pair_tIiNS_6Looper7RequestEEEE15do_move_forwardEPvPKvj	0x10d1f
	_ZNK7android12SortedVectorINS_16key_value_pair_tIiNS_6Looper7RequestEEEE8do_splatEPvPKvj	0x10d03
	_ZNK7android12SortedVectorINS_16key_value_pair_tIiNS_6Looper7RequestEEEE7do_copyEPvPKvj	0x10ce5
	_ZTv0_n12_N7android18WeakMessageHandlerD0Ev	0x10e0d
	_ZTv0_n12_N7android18WeakMessageHandlerD1Ev	0x10e19
	_ZTv0_n12_N7android20SimpleLooperCallbackD0Ev	0x10e25
	_ZTv0_n12_N7android20SimpleLooperCallbackD1Ev	0x10e31
Module(name="libcorkscrew.so", base_address=0x40103000, size=20480, path="/system/lib/libcorkscrew.so")
	func_name	RVA
	unwind_backtrace_signal_arch	0x22ff
	rewind_pc_arch	0x1e6b
	add_backtrace_entry	0x15d9
	unwind_backtrace	0x12c1
	acquire_my_map_info_list	0x1839
	init_memory	0x195d
	release_my_map_info_list	0x1901
	unwind_backtrace_thread	0x1311
	unwind_backtrace_ptrace	0x1441
	unwind_backtrace_ptrace_arch	0x2367
	get_backtrace_symbols	0x1445
	find_map_info	0x17f1
	demangle_symbol_name	0x160d
	get_backtrace_symbols_ptrace	0x14bf
	find_symbol_ptrace	0x1a91
	free_backtrace_symbols	0x1525
	format_backtrace_line	0x1569
	load_map_info_list	0x1619
	free_map_info_list	0x17c1
	is_readable_map	0x1805
	is_writable_map	0x1815
	is_executable_map	0x1825
	flush_my_map_info_list	0x1929
	init_memory_ptrace	0x1967
	try_get_word	0x196f
	try_get_word_ptrace	0x19cf
	load_ptrace_context	0x19e1
	load_symbol_table	0x1af5
	load_ptrace_map_info_data_arch	0x23bd
	free_ptrace_context	0x1a55
	free_symbol_table	0x1d69
	free_ptrace_map_info_data_arch	0x2469
	find_symbol	0x1d9d
Module(name="libgccdemangle.so", base_address=0x40108000, size=28672, path="/system/lib/libgccdemangle.so")
	func_name	RVA
	__cxa_demangle	0x314d
	__gcclibcxx_demangle_callback	0x31f1
Module(name="libbinder.so", base_address=0x4010f000, size=184320, path="/system/lib/libbinder.so")
	func_name	RVA
	_ZN7android2spINS_7IBinderEED2Ev	0x18cad
	_ZN7android2spINS_7IBinderEED1Ev	0x18cad
	_ZN7android7BBinderC1Ev	0x1940d
	_ZN7android13AppOpsManagerC2Ev	0x18d75
	_ZN7android13AppOpsManagerC1Ev	0x18d75
	_ZN7android2spINS_14IAppOpsServiceEED2Ev	0x18cad
	_ZN7android2spINS_14IAppOpsServiceEED1Ev	0x18cad
	_ZN7android2spINS_14IAppOpsServiceEEC2ERKS2_	0x18d87
	_ZN7android2spINS_14IAppOpsServiceEEC1ERKS2_	0x18d87
	_ZN7android2spINS_14IAppOpsServiceEEaSERKS2_	0x18da3
	_ZN7android13AppOpsManager10getServiceEv	0x18dd1
	_ZN7android21defaultServiceManagerEv	0x1e6d9
	_ZN7android14IAppOpsService11asInterfaceERKNS_2spINS_7IBinderEEE	0x1b30d
	_ZN7android10IInterface8asBinderEv	0x1b9b1
	_ZN7android13AppOpsManager16stopWatchingModeERKNS_2spINS_15IAppOpsCallbackEEE	0x18ee9
	_ZN7android13AppOpsManager17startWatchingModeEiRKNS_8String16ERKNS_2spINS_15IAppOpsCallbackEEE	0x18f0b
	_ZN7android13AppOpsManager8finishOpEiiRKNS_8String16E	0x18f35
	_ZN7android13AppOpsManager7startOpEiiRKNS_8String16E	0x18f6f
	_ZN7android13AppOpsManager6noteOpEiiRKNS_8String16E	0x18fb3
	_ZN7android13AppOpsManager7checkOpEiiRKNS_8String16E	0x18fe5
	_ZN7android7IBinder11localBinderEv	0x19071
	_ZN7android7IBinder12remoteBinderEv	0x19071
	_ZNK7android7IBinder13checkSubclassEPKv	0x19071
	_ZNK7android7BBinder13isBinderAliveEv	0x19075
	_ZN7android7BBinder10pingBinderEv	0x19071
	_ZN7android7BBinder11linkToDeathERKNS_2spINS_7IBinder14DeathRecipientEEEPvj	0x19079
	_ZN7android7BBinder13unlinkToDeathERKNS_2wpINS_7IBinder14DeathRecipientEEEPvjPS4_	0x19079
	_ZN7android7BBinder4dumpEiRKNS_6VectorINS_8String16EEE	0x19071
	_ZN7android7BBinder11localBinderEv	0x1907f
	_ZNK7android6VectorINS_8String16EE15do_move_forwardEPvPKvj	0x19081
	_ZNK7android6VectorINS_8String16EE16do_move_backwardEPvPKvj	0x19081
	_ZNK7android6VectorINS_8String16EE7do_copyEPvPKvj	0x1908b
	_ZNK7android6VectorINS_8String16EE8do_splatEPvPKvj	0x190a9
	_ZNK7android6VectorINS_8String16EE10do_destroyEPvj	0x190c5
	_ZNK7android6VectorINS_8String16EE12do_constructEPvj	0x190dd
	_ZN7android9BpRefBase20onIncStrongAttemptedEjPKv	0x1912f
	_ZN7android9BpRefBase15onLastStrongRefEPKv	0x1913d
	_ZN7android9BpRefBase10onFirstRefEv	0x19151
	_ZN7android9BpRefBaseD1Ev	0x1915d
	_ZN7android9BpRefBaseD0Ev	0x191a1
	_ZN7android7IBinderD1Ev	0x191b5
	_ZN7android7IBinderD0Ev	0x191d5
	_ZN7android7BBinder8transactEjRKNS_6ParcelEPS1_j	0x191e9
	_ZNK7android6Parcel15setDataPositionEj	0x1fbd1
	_ZN7android6Parcel10writeInt32Ei	0x20d25
	_ZNK7android7BBinder22getInterfaceDescriptorEv	0x1923d
	_ZN7android7IBinder19queryLocalInterfaceERKNS_8String16E	0x192a5
	_ZN7android7BBinder10onTransactEjRKNS_6ParcelEPS1_j	0x192ad
	_ZN7android6Parcel13writeString16ERKNS_8String16E	0x20f5b
	_ZNK7android6Parcel18readFileDescriptorEv	0x1fe09
	_ZNK7android6Parcel9readInt32Ev	0x21153
	_ZNK7android6Parcel9dataAvailEv	0x1fbbf
	_ZNK7android6Parcel12readString16Ev	0x21211
	_ZN7android7BBinder12detachObjectEPKv	0x19377
	_ZN7android8BpBinder13ObjectManager6detachEPKv	0x19abf
	_ZNK7android7BBinder10findObjectEPKv	0x19399
	_ZNK7android8BpBinder13ObjectManager4findEPKv	0x19a73
	_ZN7android7IBinderC2Ev	0x193bf
	_ZN7android7IBinderC1Ev	0x193cd
	_ZN7android7IBinderD2Ev	0x193bf
	_ZN7android7BBinderC2Ev	0x193ed
	_ZN7android8BpBinder13ObjectManagerD1Ev	0x19b23
	_ZN7android7BBinderD1Ev	0x19459
	_ZN7android7BBinderD0Ev	0x1949d
	_ZN7android7BBinder12attachObjectEPKvPvS3_PFvS2_S3_S3_E	0x194af
	_ZN7android8BpBinder13ObjectManagerC1Ev	0x19f11
	_ZN7android8BpBinder13ObjectManager6attachEPKvPvS4_PFvS3_S4_S4_E	0x199e5
	_ZN7android7BBinderD2Ev	0x1951d
	_ZN7android9BpRefBaseC2ERKNS_2spINS_7IBinderEEE	0x1954b
	_ZN7android9BpRefBaseC1ERKNS_2spINS_7IBinderEEE	0x1959d
	_ZN7android9BpRefBaseD2Ev	0x195f9
	_ZTv0_n12_N7android7BBinderD0Ev	0x1962d
	_ZTv0_n12_N7android7BBinderD1Ev	0x19639
	_ZTv0_n12_N7android7IBinderD0Ev	0x19645
	_ZTv0_n12_N7android7IBinderD1Ev	0x19651
	_ZTv0_n12_N7android9BpRefBaseD0Ev	0x1965d
	_ZTv0_n12_N7android9BpRefBaseD1Ev	0x19669
	_ZTv0_n16_N7android9BpRefBase10onFirstRefEv	0x19675
	_ZTv0_n20_N7android9BpRefBase15onLastStrongRefEPKv	0x19681
	_ZTv0_n24_N7android9BpRefBase20onIncStrongAttemptedEjPKv	0x1968d
	_ZNK7android8BpBinder13isBinderAliveEv	0x19699
	_ZN7android8BpBinder12remoteBinderEv	0x1907f
	_ZNK7android12SortedVectorINS_16key_value_pair_tIPKvNS_8BpBinder13ObjectManager7entry_tEEEE12do_constructEPvj	0x1907f
	_ZNK7android12SortedVectorINS_16key_value_pair_tIPKvNS_8BpBinder13ObjectManager7entry_tEEEE10do_destroyEPvj	0x1907f
	_ZNK7android6VectorINS_8BpBinder8ObituaryEE12do_constructEPvj	0x196a3
	_ZN7android8BpBinder20onIncStrongAttemptedEjPKv	0x1972b
	_ZN7android14IPCThreadState4selfEv	0x1d215
	_ZN7android14IPCThreadState22attemptIncStrongHandleEi	0x1da2d
	_ZN7android8BpBinder15onLastStrongRefEPKv	0x19747
	_ZN7android14IPCThreadState15decStrongHandleEi	0x1d0c9
	_ZN7android8BpBinder10onFirstRefEv	0x1975d
	_ZN7android14IPCThreadState15incStrongHandleEi	0x1d0a9
	_ZN7android8BpBinder8transactEjRKNS_6ParcelEPS1_j	0x19773
	_ZN7android14IPCThreadState8transactEijRKNS_6ParcelEPS1_j	0x1da69
	_ZN7android8BpBinder4dumpEiRKNS_6VectorINS_8String16EEE	0x197a9
	_ZN7android6ParcelC1Ev	0x1ffbb
	_ZN7android6Parcel19writeFileDescriptorEib	0x20925
	_ZN7android6ParcelD1Ev	0x2047d
	_ZN7android8BpBinder10pingBinderEv	0x19815
	_ZNK7android6Parcel8dataSizeEv	0x1fbb3
	_ZNK7android12SortedVectorINS_16key_value_pair_tIPKvNS_8BpBinder13ObjectManager7entry_tEEEE16do_move_backwardEPvS3_j	0x1986d
	_ZNK7android12SortedVectorINS_16key_value_pair_tIPKvNS_8BpBinder13ObjectManager7entry_tEEEE15do_move_forwardEPvS3_j	0x19893
	_ZNK7android12SortedVectorINS_16key_value_pair_tIPKvNS_8BpBinder13ObjectManager7entry_tEEEE8do_splatEPvS3_j	0x198bb
	_ZNK7android12SortedVectorINS_16key_value_pair_tIPKvNS_8BpBinder13ObjectManager7entry_tEEEE7do_copyEPvS3_j	0x1986d
	_ZNK7android12SortedVectorINS_16key_value_pair_tIPKvNS_8BpBinder13ObjectManager7entry_tEEEE10do_compareES3_S3_	0x198dd
	_ZN7android8BpBinder13unlinkToDeathERKNS_2wpINS_7IBinder14DeathRecipientEEEPvjPS4_	0x19911
	_ZN7android14IPCThreadState22clearDeathNotificationEiPNS_8BpBinderE	0x1d155
	_ZN7android14IPCThreadState13flushCommandsEv	0x1d455
	_ZN7android8BpBinder12attachObjectEPKvPvS3_PFvS2_S3_S3_E	0x19a3d
	_ZNK7android8BpBinder10findObjectEPKv	0x19a95
	_ZN7android8BpBinder12detachObjectEPKv	0x19ad1
	_ZN7android8BpBinder13ObjectManager4killEv	0x19af7
	_ZN7android8BpBinder13ObjectManagerD2Ev	0x19b23
	_ZN7android8BpBinderD1Ev	0x19b35
	_ZN7android14IPCThreadState13expungeHandleEiPNS_7IBinderE	0x1d2c1
	_ZN7android14IPCThreadState13decWeakHandleEi	0x1d109
	_ZN7android8BpBinderD0Ev	0x19bc5
	_ZNK7android8BpBinder18isDescriptorCachedEv	0x19bd7
	_ZNK7android8BpBinder22getInterfaceDescriptorEv	0x19c01
	_ZN7android8BpBinderD2Ev	0x19c79
	_ZN7android2wpINS_7IBinder14DeathRecipientEED2Ev	0x19cf9
	_ZN7android2wpINS_7IBinder14DeathRecipientEED1Ev	0x19cf9
	_ZNK7android6VectorINS_8BpBinder8ObituaryEE10do_destroyEPvj	0x19d0d
	_ZN7android8BpBinder11linkToDeathERKNS_2spINS_7IBinder14DeathRecipientEEEPvj	0x19d25
	_ZN7android14IPCThreadState24requestDeathNotificationEiPNS_8BpBinderE	0x1d129
	_ZN7android2spINS_7IBinder14DeathRecipientEED2Ev	0x18cad
	_ZN7android2spINS_7IBinder14DeathRecipientEED1Ev	0x18cad
	_ZN7android8BpBinder14reportOneDeathERKNS0_8ObituaryE	0x19e29
	_ZN7android8BpBinder12sendObituaryEv	0x19e8d
	_ZN7android8BpBinder13ObjectManagerC2Ev	0x19f11
	_ZN7android8BpBinderC1Ei	0x19f1d
	_ZN7android14IPCThreadState13incWeakHandleEi	0x1d0e9
	_ZN7android8BpBinderC2Ei	0x19f8d
	_ZNK7android6VectorINS_8BpBinder8ObituaryEE16do_move_backwardEPvPKvj	0x1a00b
	_ZNK7android6VectorINS_8BpBinder8ObituaryEE15do_move_forwardEPvPKvj	0x1a02f
	_ZNK7android6VectorINS_8BpBinder8ObituaryEE8do_splatEPvPKvj	0x1a055
	_ZNK7android6VectorINS_8BpBinder8ObituaryEE7do_copyEPvPKvj	0x1a071
	_ZTv0_n12_N7android8BpBinderD0Ev	0x1a08f
	_ZTv0_n12_N7android8BpBinderD1Ev	0x1a09b
	_ZTv0_n16_N7android8BpBinder10onFirstRefEv	0x1a0a7
	_ZTv0_n20_N7android8BpBinder15onLastStrongRefEPKv	0x1a0b3
	_ZTv0_n24_N7android8BpBinder20onIncStrongAttemptedEjPKv	0x1a0bf
	_ZNK7android6VectorINS_2spINS_18BufferedTextOutput11BufferStateEEEE12do_constructEPvj	0x1a0cb
	_ZNK7android6VectorINS_2spINS_18BufferedTextOutput11BufferStateEEEE8do_splatEPvPKvj	0x1a16b
	_ZNK7android6VectorINS_2spINS_18BufferedTextOutput11BufferStateEEEE7do_copyEPvPKvj	0x1a18b
	_ZN7android18BufferedTextOutputD2Ev	0x1a1ad
	_ZN7android10TextOutputD2Ev	0x226ad
	_ZN7android18BufferedTextOutputD1Ev	0x1a1ad
	_ZN7android18BufferedTextOutputD0Ev	0x1a215
	_ZN7android18BufferedTextOutput16threadDestructorEPv	0x1a227
	_ZN7android18BufferedTextOutput14getThreadStateEv	0x1a281
	_ZN7android18BufferedTextOutputC2Ej	0x1a2cd
	_ZN7android10TextOutputC2Ev	0x226ad
	_ZN7android18BufferedTextOutputC1Ej	0x1a2cd
	_ZN7android2spINS_18BufferedTextOutput11BufferStateEED2Ev	0x1a399
	_ZN7android2spINS_18BufferedTextOutput11BufferStateEED1Ev	0x1a399
	_ZNK7android18BufferedTextOutput9getBufferEv	0x1a3ad
	_ZN7android18BufferedTextOutput9popBundleEv	0x1a45d
	_ZN7android18BufferedTextOutput10pushBundleEv	0x1a4c5
	_ZN7android18BufferedTextOutput10moveIndentEi	0x1a4e9
	_ZN7android18BufferedTextOutput5printEPKcj	0x1a513
	stringForIndent	0x1a6dd
	_ZNK7android6VectorINS_2spINS_18BufferedTextOutput11BufferStateEEEE10do_destroyEPvj	0x1a633
	_ZNK7android6VectorINS_2spINS_18BufferedTextOutput11BufferStateEEEE16do_move_backwardEPvPKvj	0x1a681
	_ZNK7android6VectorINS_2spINS_18BufferedTextOutput11BufferStateEEEE15do_move_forwardEPvPKvj	0x1a681
	printTypeCode	0x1a6f5
	printHexData	0x1a7f9
	_ZNK7android15IAppOpsCallback22getInterfaceDescriptorEv	0x1aaf5
	_ZN7android11BnInterfaceINS_15IAppOpsCallbackEE10onAsBinderEv	0x1ab05
	_ZN7android15IAppOpsCallbackD1Ev	0x1ab1d
	_ZN7android10IInterfaceD2Ev	0x193bf
	_ZN7android15IAppOpsCallbackD0Ev	0x1ab51
	_ZN7android6Parcel19writeInterfaceTokenERKNS_8String16E	0x20f75
	_ZN7android16BnAppOpsCallback10onTransactEjRKNS_6ParcelEPS1_j	0x1abbd
	_ZNK7android6Parcel14checkInterfaceEPNS_7IBinderE	0x2132d
	_ZN7android6Parcel16writeNoExceptionEv	0x20d29
	_ZThn4_N7android16BnAppOpsCallback10onTransactEjRKNS_6ParcelEPS1_j	0x1ac19
	_ZN7android15IAppOpsCallbackC2Ev	0x1ac75
	_ZN7android10IInterfaceC2Ev	0x193bf
	_ZN7android15IAppOpsCallback11asInterfaceERKNS_2spINS_7IBinderEEE	0x1ac91
	_ZN7android15IAppOpsCallbackC1Ev	0x1ad69
	_ZN7android15IAppOpsCallbackD2Ev	0x1ad99
	_ZTv0_n12_N7android15IAppOpsCallbackD0Ev	0x1affd
	_ZTv0_n12_N7android15IAppOpsCallbackD1Ev	0x1b009
	_ZN7android10IInterfaceD1Ev	0x1b95d
	_ZN7android10IInterfaceD0Ev	0x1b97d
	_ZTv0_n12_N7android10IInterfaceD1Ev	0x1b9e7
	_ZTv0_n12_N7android10IInterfaceD0Ev	0x1b9db
	_ZNK7android14IAppOpsService22getInterfaceDescriptorEv	0x1b015
	_ZN7android11BnInterfaceINS_14IAppOpsServiceEE10onAsBinderEv	0x1ab05
	_ZN7android14IAppOpsServiceD1Ev	0x1b035
	_ZN7android14IAppOpsServiceD0Ev	0x1b069
	_ZN7android6Parcel17writeStrongBinderERKNS_2spINS_7IBinderEEE	0x20af1
	_ZNK7android6Parcel17readExceptionCodeEv	0x21133
	_ZNK7android6Parcel16readStrongBinderEv	0x20c8d
	_ZN7android14IAppOpsServiceC2Ev	0x1ac75
	_ZN7android14IAppOpsServiceC1Ev	0x1b3e5
	_ZN7android14IAppOpsServiceD2Ev	0x1ad99
	_ZN7android2spINS_15IAppOpsCallbackEED2Ev	0x18cad
	_ZN7android2spINS_15IAppOpsCallbackEED1Ev	0x18cad
	_ZN7android15BnAppOpsService10onTransactEjRKNS_6ParcelEPS1_j	0x1b6ed
	_ZThn4_N7android15BnAppOpsService10onTransactEjRKNS_6ParcelEPS1_j	0x1b901
	_ZTv0_n12_N7android14IAppOpsServiceD0Ev	0x1b945
	_ZTv0_n12_N7android14IAppOpsServiceD1Ev	0x1b951
	_ZN7android10IInterfaceC1Ev	0x1b991
	_ZNK7android10IInterface8asBinderEv	0x1b9b1
	_ZNK7android7IMemory22getInterfaceDescriptorEv	0x1b9f5
	_ZNK7android11IMemoryHeap22getInterfaceDescriptorEv	0x1ba01
	_ZN7android11BnInterfaceINS_7IMemoryEE10onAsBinderEv	0x1ab05
	_ZN7android11BnInterfaceINS_11IMemoryHeapEE10onAsBinderEv	0x1ab05
	_ZNK7android12SortedVectorINS_16key_value_pair_tINS_2wpINS_7IBinderEEENS_9HeapCache11heap_info_tEEEE12do_constructEPvj	0x1ba35
	_ZN7android2spINS_9HeapCacheEED2Ev	0x18cad
	_ZN7android2spINS_9HeapCacheEED1Ev	0x18cad
	_ZN7android11IMemoryHeapD1Ev	0x1bae5
	_ZN7android11IMemoryHeapD0Ev	0x1bb19
	_ZN7android7IMemoryD1Ev	0x1bb2d
	_ZN7android7IMemoryD0Ev	0x1bb61
	_ZN7android12BnMemoryHeap10onTransactEjRKNS_6ParcelEPS1_j	0x1bb73
	_ZThn4_N7android12BnMemoryHeap10onTransactEjRKNS_6ParcelEPS1_j	0x1bbed
	_ZN7android9HeapCacheD1Ev	0x1bbf5
	_ZN7android9HeapCacheD0Ev	0x1bc39
	_ZN7android7IMemoryC2Ev	0x1ac75
	_ZN7android7IMemoryC1Ev	0x1bcf5
	_ZN7android7IMemoryD2Ev	0x1ad99
	_ZN7android8BnMemoryD1Ev	0x1beb1
	_ZThn4_N7android8BnMemoryD1Ev	0x1bee9
	_ZN7android8BnMemoryD0Ev	0x1bef1
	_ZThn4_N7android8BnMemoryD0Ev	0x1bf03
	_ZN7android8BnMemoryC2Ev	0x1bf0b
	_ZN7android8BnMemoryC1Ev	0x1bf2d
	_ZN7android8BnMemoryD2Ev	0x1bf65
	_ZN7android11IMemoryHeapC2Ev	0x1ac75
	_ZN7android11IMemoryHeapC1Ev	0x1bf85
	_ZN7android11IMemoryHeapD2Ev	0x1ad99
	_ZN7android12BnMemoryHeapD1Ev	0x1c0bd
	_ZThn4_N7android12BnMemoryHeapD1Ev	0x1c0f5
	_ZN7android12BnMemoryHeapD0Ev	0x1c0fd
	_ZThn4_N7android12BnMemoryHeapD0Ev	0x1c10f
	_ZN7android12BnMemoryHeapC2Ev	0x1bf0b
	_ZN7android12BnMemoryHeapC1Ev	0x1c119
	_ZN7android12BnMemoryHeapD2Ev	0x1bf65
	_ZN7android9HeapCacheD2Ev	0x1c151
	_ZN7android9HeapCache10dump_heapsEv	0x1c181
	_ZN7android2spINS_11IMemoryHeapEED2Ev	0x18cad
	_ZN7android2spINS_11IMemoryHeapEED1Ev	0x18cad
	_ZN7android8BpMemoryD1Ev	0x1c1e5
	_ZThn4_N7android8BpMemoryD1Ev	0x1c225
	_ZN7android8BpMemoryD0Ev	0x1c22d
	_ZThn4_N7android8BpMemoryD0Ev	0x1c23f
	_ZN7android8BpMemoryD2Ev	0x1c247
	_ZNK7android7IMemory6offsetEv	0x1c271
	_ZNK7android7IMemory4sizeEv	0x1c28b
	_ZNK7android7IMemory7pointerEv	0x1c2a5
	_ZN7android2spINS_11IMemoryHeapEEC2ERKS2_	0x18d87
	_ZN7android2spINS_11IMemoryHeapEEC1ERKS2_	0x18d87
	_ZN7android8BpMemoryC1ERKNS_2spINS_7IBinderEEE	0x1c305
	_ZN7android8BpMemoryC2ERKNS_2spINS_7IBinderEEE	0x1c349
	_ZN7android8BnMemory10onTransactEjRKNS_6ParcelEPS1_j	0x1c371
	_ZThn4_N7android8BnMemory10onTransactEjRKNS_6ParcelEPS1_j	0x1c3dd
	_ZN7android2spINS_11IMemoryHeapEEaSERKS2_	0x18da3
	_ZN7android2spINS_10IInterfaceEED2Ev	0x18cad
	_ZN7android2spINS_10IInterfaceEED1Ev	0x18cad
	_ZN7android7IMemory11asInterfaceERKNS_2spINS_7IBinderEEE	0x1c3e5
	_ZN7android12BpMemoryHeapC1ERKNS_2spINS_7IBinderEEE	0x1c46d
	_ZN7android11IMemoryHeap11asInterfaceERKNS_2spINS_7IBinderEEE	0x1c4c5
	_ZNK7android8BpMemory9getMemoryEPiPj	0x1c54d
	_ZN7android12BpMemoryHeapC2ERKNS_2spINS_7IBinderEEE	0x1c605
	_ZN7android2spIKNS_7IBinderEED2Ev	0x18cad
	_ZN7android2spIKNS_7IBinderEED1Ev	0x18cad
	_ZNK7android12BpMemoryHeap18assertReallyMappedEv	0x1c641
	_ZN7android2wpINS_7IBinderEEC2ERKNS_2spIS1_EE	0x1c7b1
	_ZN7android2wpINS_7IBinderEEC1ERKNS_2spIS1_EE	0x1c7b1
	_ZN7android2wpINS_7IBinderEED2Ev	0x19cf9
	_ZN7android2wpINS_7IBinderEED1Ev	0x19cf9
	_ZNK7android12SortedVectorINS_16key_value_pair_tINS_2wpINS_7IBinderEEENS_9HeapCache11heap_info_tEEEE10do_destroyEPvj	0x1c7e5
	_ZN7android9HeapCacheC1Ev	0x1c821
	_ZN7android9HeapCacheC2Ev	0x1c85d
	_ZN7android2wpINS_7IBinderEEC2ERKS2_	0x1c89f
	_ZN7android2wpINS_7IBinderEEC1ERKS2_	0x1c89f
	_ZN7android9HeapCache8get_heapERKNS_2spINS_7IBinderEEE	0x1c8db
	_ZNK7android7IMemory11fastPointerERKNS_2spINS_7IBinderEEEi	0x1c941
	_ZN7android9HeapCache9free_heapERKNS_2wpINS_7IBinderEEE	0x1c975
	_ZN7android9HeapCache9free_heapERKNS_2spINS_7IBinderEEE	0x1c9ed
	_ZN7android12BpMemoryHeapD2Ev	0x1ca09
	_ZN7android12BpMemoryHeapD1Ev	0x1ca7d
	_ZThn4_N7android12BpMemoryHeapD1Ev	0x1cb05
	_ZN7android12BpMemoryHeapD0Ev	0x1cb0d
	_ZThn4_N7android12BpMemoryHeapD0Ev	0x1cb1f
	_ZN7android9HeapCache10binderDiedERKNS_2wpINS_7IBinderEEE	0x1cb27
	_ZN7android9HeapCache9find_heapERKNS_2spINS_7IBinderEEE	0x1cb2b
	_ZNK7android12BpMemoryHeap12assertMappedEv	0x1cbe5
	_ZNK7android12BpMemoryHeap9getOffsetEv	0x1cc91
	_ZNK7android12BpMemoryHeap8getFlagsEv	0x1cc9d
	_ZNK7android12BpMemoryHeap7getSizeEv	0x1cca9
	_ZNK7android12BpMemoryHeap7getBaseEv	0x1ccb5
	_ZNK7android12BpMemoryHeap9getHeapIDEv	0x1ccc1
	_ZNK7android12SortedVectorINS_16key_value_pair_tINS_2wpINS_7IBinderEEENS_9HeapCache11heap_info_tEEEE16do_move_backwardEPvPKvj	0x1cceb
	_ZNK7android12SortedVectorINS_16key_value_pair_tINS_2wpINS_7IBinderEEENS_9HeapCache11heap_info_tEEEE15do_move_forwardEPvPKvj	0x1cd0f
	_ZNK7android12SortedVectorINS_16key_value_pair_tINS_2wpINS_7IBinderEEENS_9HeapCache11heap_info_tEEEE8do_splatEPvPKvj	0x1cd35
	_ZNK7android12SortedVectorINS_16key_value_pair_tINS_2wpINS_7IBinderEEENS_9HeapCache11heap_info_tEEEE7do_copyEPvPKvj	0x1cd51
	_ZNK7android12SortedVectorINS_16key_value_pair_tINS_2wpINS_7IBinderEEENS_9HeapCache11heap_info_tEEEE10do_compareEPKvSA_	0x1cd8d
	_ZTv0_n12_N7android12BpMemoryHeapD0Ev	0x1ce41
	_ZTv0_n12_N7android12BpMemoryHeapD1Ev	0x1ce4d
	_ZTv0_n12_N7android8BpMemoryD0Ev	0x1ce59
	_ZTv0_n12_N7android8BpMemoryD1Ev	0x1ce65
	_ZTv0_n12_N7android12BnMemoryHeapD0Ev	0x1ce71
	_ZTv0_n12_N7android12BnMemoryHeapD1Ev	0x1ce7d
	_ZTv0_n12_N7android8BnMemoryD0Ev	0x1ce89
	_ZTv0_n12_N7android8BnMemoryD1Ev	0x1ce95
	_ZTv0_n12_N7android9HeapCacheD0Ev	0x1cea1
	_ZTv0_n12_N7android9HeapCacheD1Ev	0x1cead
	_ZTv0_n12_N7android7IMemoryD0Ev	0x1ceb9
	_ZTv0_n12_N7android7IMemoryD1Ev	0x1cec5
	_ZTv0_n12_N7android11IMemoryHeapD0Ev	0x1ced1
	_ZTv0_n12_N7android11IMemoryHeapD1Ev	0x1cedd
	_ZNK7android6VectorIPNS_7RefBase12weakref_typeEE12do_constructEPvj	0x1907f
	_ZNK7android6VectorIPNS_7RefBase12weakref_typeEE10do_destroyEPvj	0x1907f
	_ZNK7android6VectorIPNS_7BBinderEE12do_constructEPvj	0x1907f
	_ZNK7android6VectorIPNS_7BBinderEE10do_destroyEPvj	0x1907f
	_ZNK7android6VectorIPNS_7RefBase12weakref_typeEE8do_splatEPvPKvj	0x1cee9
	_ZNK7android6VectorIPNS_7BBinderEE8do_splatEPvPKvj	0x1cee9
	_ZN7android2spINS_7BBinderEED2Ev	0x18cad
	_ZN7android2spINS_7BBinderEED1Ev	0x18cad
	_ZNK7android6VectorIPNS_7RefBase12weakref_typeEE15do_move_forwardEPvPKvj	0x19081
	_ZNK7android6VectorIPNS_7RefBase12weakref_typeEE16do_move_backwardEPvPKvj	0x19081
	_ZNK7android6VectorIPNS_7BBinderEE15do_move_forwardEPvPKvj	0x19081
	_ZNK7android6VectorIPNS_7BBinderEE16do_move_backwardEPvPKvj	0x19081
	_ZNK7android6VectorIPNS_7RefBase12weakref_typeEE7do_copyEPvPKvj	0x1cefb
	_ZNK7android6VectorIPNS_7BBinderEE7do_copyEPvPKvj	0x1cefb
	_ZN7android14IPCThreadState10selfOrNullEv	0x1cf7d
	_ZN7android14IPCThreadState27disableBackgroundSchedulingEb	0x1cf99
	_ZN7android14IPCThreadState7processEv	0x18d87
	_ZN7android14IPCThreadState14clearLastErrorEv	0x1cfa5
	_ZNK7android14IPCThreadState13getCallingPidEv	0x1cfb3
	_ZNK7android14IPCThreadState13getCallingUidEv	0x1cfb9
	_ZN7android14IPCThreadState19setStrictModePolicyEi	0x1cfbf
	_ZNK7android14IPCThreadState19getStrictModePolicyEv	0x1cfc5
	_ZN7android14IPCThreadState29setLastTransactionBinderFlagsEi	0x1cfcb
	_ZNK7android14IPCThreadState29getLastTransactionBinderFlagsEv	0x1cfd1
	_ZN7android14IPCThreadState22restoreCallingIdentityEx	0x1cfd7
	_ZN7android14IPCThreadState11clearCallerEv	0x1cfe1
	_ZN7android14IPCThreadState20clearCallingIdentityEv	0x1cff7
	_ZN7android14IPCThreadState20processPendingDerefsEv	0x1d015
	_ZNK7android6Parcel12dataPositionEv	0x1f495
	_ZN7android14IPCThreadState12setupPollingEPi	0x1d07d
	_ZN7android14IPCThreadStateC2Ev	0x1d181
	_ZN7android12ProcessState4selfEv	0x22321
	_ZN7android6Parcel15setDataCapacityEj	0x207c3
	_ZN7android14IPCThreadStateC1Ev	0x1d181
	_ZN7android14IPCThreadState16threadDestructorEPv	0x1d465
	_ZN7android14IPCThreadState10freeBufferEPNS_6ParcelEPKhjPKjjPv	0x1d295
	_ZN7android6Parcel20closeFileDescriptorsEv	0x1fe2d
	_ZN7android12ProcessState13expungeHandleEiPNS_7IBinderE	0x21b63
	_ZN7android14IPCThreadStateD2Ev	0x1d2d9
	_ZN7android14IPCThreadStateD1Ev	0x1d2d9
	_ZN7android14IPCThreadState8shutdownEv	0x1d315
	_ZN7android14IPCThreadState14talkWithDriverEb	0x1d361
	_ZNK7android6Parcel4dataEv	0x1f491
	_ZNK7android6Parcel12dataCapacityEv	0x1ebad
	_ZN7android6Parcel6removeEjj	0x1fc0d
	_ZN7android6Parcel11setDataSizeEj	0x207d1
	_ZN7android14IPCThreadState11stopProcessEb	0x1d495
	_ZN7android14IPCThreadState20writeTransactionDataEijijRKNS_6ParcelEPi	0x1d4b1
	_ZNK7android6Parcel10errorCheckEv	0x1fbf1
	_ZNK7android6Parcel11ipcDataSizeEv	0x1fbb3
	_ZNK7android6Parcel7ipcDataEv	0x1f491
	_ZNK7android6Parcel15ipcObjectsCountEv	0x1fbed
	_ZNK7android6Parcel10ipcObjectsEv	0x1fac5
	_ZN7android6Parcel5writeEPKvj	0x206a5
	_ZN7android19setTheContextObjectENS_2spINS_7BBinderEEE	0x1d55d
	_ZN7android14IPCThreadState14executeCommandEi	0x1d59d
	_ZNK7android6Parcel4readEPvj	0x1fc25
	_ZN7android6Parcel19ipcSetDataReferenceEPKhjPKjjPFvPS0_S2_jS4_jPvES6_	0x203f9
	_ZN7android6Parcel8setErrorEi	0x1fbf5
	_ZN7android14IPCThreadState9sendReplyERKNS_6ParcelEj	0x1d9fd
	_ZN7android12ProcessState17spawnPooledThreadEb	0x21c55
	_ZN7android14IPCThreadState15waitForResponseEPNS_6ParcelEPi	0x1d8ad
	_ZN7android14IPCThreadState20getAndExecuteCommandEv	0x1daf1
	_ZN7android14IPCThreadState20handlePolledCommandsEv	0x1db29
	_ZN7android14IPCThreadState14joinThreadPoolEb	0x1db5d
	_ZNK7android21IPermissionController22getInterfaceDescriptorEv	0x1dc11
	_ZN7android11BnInterfaceINS_21IPermissionControllerEE10onAsBinderEv	0x1ab05
	_ZN7android21IPermissionControllerD1Ev	0x1dc31
	_ZN7android21IPermissionControllerD0Ev	0x1dc65
	_ZN7android22BnPermissionController10onTransactEjRKNS_6ParcelEPS1_j	0x1dcf1
	_ZThn4_N7android22BnPermissionController10onTransactEjRKNS_6ParcelEPS1_j	0x1dd5f
	_ZN7android21IPermissionControllerC2Ev	0x1ac75
	_ZN7android21IPermissionController11asInterfaceERKNS_2spINS_7IBinderEEE	0x1ddbd
	_ZN7android21IPermissionControllerC1Ev	0x1de95
	_ZN7android21IPermissionControllerD2Ev	0x1ad99
	_ZTv0_n12_N7android21IPermissionControllerD0Ev	0x1e10d
	_ZTv0_n12_N7android21IPermissionControllerD1Ev	0x1e119
	_ZNK7android15IServiceManager22getInterfaceDescriptorEv	0x1e125
	_ZN7android11BnInterfaceINS_15IServiceManagerEE10onAsBinderEv	0x1ab05
	_ZN7android15IServiceManagerD1Ev	0x1e145
	_ZN7android15IServiceManagerD0Ev	0x1e179
	_ZN7android15IServiceManagerC2Ev	0x1ac75
	_ZN7android15IServiceManager11asInterfaceERKNS_2spINS_7IBinderEEE	0x1e349
	_ZN7android15IServiceManagerC1Ev	0x1e421
	_ZN7android15IServiceManagerD2Ev	0x1ad99
	_ZN7android2spINS_15IServiceManagerEEC2ERKS2_	0x18d87
	_ZN7android2spINS_15IServiceManagerEEC1ERKS2_	0x18d87
	_ZN7android2spINS_15IServiceManagerEED2Ev	0x18cad
	_ZN7android2spINS_15IServiceManagerEED1Ev	0x18cad
	_ZN7android12ProcessState16getContextObjectERKNS_2spINS_7IBinderEEE	0x21e95
	_ZN7android16BnServiceManager10onTransactEjRKNS_6ParcelEPS1_j	0x1e795
	_ZThn4_N7android16BnServiceManager10onTransactEjRKNS_6ParcelEPS1_j	0x1e885
	_ZN7android2spINS_21IPermissionControllerEED2Ev	0x18cad
	_ZN7android2spINS_21IPermissionControllerEED1Ev	0x18cad
	_ZN7android2spINS_21IPermissionControllerEEaSERKS2_	0x18da3
	_ZN7android15checkPermissionERKNS_8String16Eij	0x1e88d
	_ZN7android22checkCallingPermissionERKNS_8String16EPiS3_	0x1ea69
	_ZN7android22checkCallingPermissionERKNS_8String16E	0x1ea9b
	_ZTv0_n12_N7android15IServiceManagerD0Ev	0x1eb05
	_ZTv0_n12_N7android15IServiceManagerD1Ev	0x1eb11
	_ZN7android10AllocationC2ERKNS_2spINS_12MemoryDealerEEERKNS1_INS_11IMemoryHeapEEEij	0x1eb1d
	_ZN7android10MemoryBaseC2ERKNS_2spINS_11IMemoryHeapEEEij	0x1f3b9
	_ZN7android10AllocationC1ERKNS_2spINS_12MemoryDealerEEERKNS1_INS_11IMemoryHeapEEEij	0x1eb55
	_ZNK7android12MemoryDealer4heapEv	0x1eba9
	_ZNK7android12MemoryDealer9allocatorEv	0x1ebad
	_ZN7android22SimpleBestFitAllocatorC2Ej	0x1ebb1
	_ZN7android22SimpleBestFitAllocatorC1Ej	0x1ebb1
	_ZN7android12MemoryDealerC2EjPKc	0x1ec1d
	_ZN7android14MemoryHeapBaseC1EjjPKc	0x1f879
	_ZN7android12MemoryDealerC1EjPKc	0x1ec1d
	_ZN7android22SimpleBestFitAllocatorD2Ev	0x1ec8d
	_ZN7android22SimpleBestFitAllocatorD1Ev	0x1ec8d
	_ZN7android12MemoryDealerD2Ev	0x1ecc1
	_ZN7android12MemoryDealerD1Ev	0x1ecc1
	_ZN7android12MemoryDealerD0Ev	0x1ed01
	_ZNK7android22SimpleBestFitAllocator4sizeEv	0x1ebad
	_ZN7android22SimpleBestFitAllocator5allocEjj	0x1ed15
	_ZN7android22SimpleBestFitAllocator8allocateEjj	0x1ee75
	_ZN7android22SimpleBestFitAllocator7deallocEj	0x1ee97
	_ZN7android22SimpleBestFitAllocator10deallocateEj	0x1ef19
	_ZN7android12MemoryDealer10deallocateEj	0x1ef3f
	_ZNK7android22SimpleBestFitAllocator6dump_lERNS_7String8EPKc	0x1ef45
	_ZNK7android22SimpleBestFitAllocator4dumpERNS_7String8EPKc	0x1f069
	_ZNK7android22SimpleBestFitAllocator6dump_lEPKc	0x1f089
	_ZNK7android22SimpleBestFitAllocator4dumpEPKc	0x1f0c1
	_ZNK7android12MemoryDealer4dumpEPKc	0x1f0dd
	_ZN7android2spINS_12MemoryDealerEED2Ev	0x1a399
	_ZN7android2spINS_12MemoryDealerEED1Ev	0x1a399
	_ZN7android10AllocationD1Ev	0x1f0e5
	_ZN7android10MemoryBaseD2Ev	0x1f44f
	_ZThn4_N7android10AllocationD1Ev	0x1f1c9
	_ZN7android10AllocationD0Ev	0x1f1d1
	_ZThn4_N7android10AllocationD0Ev	0x1f1e3
	_ZN7android10AllocationD2Ev	0x1f1ed
	_ZN7android12MemoryDealer8allocateEj	0x1f2c1
	_ZTv0_n12_N7android10AllocationD0Ev	0x1f337
	_ZTv0_n12_N7android10AllocationD1Ev	0x1f343
	_ZN7android10MemoryBaseD1Ev	0x1f3ed
	_ZN7android10MemoryBaseD0Ev	0x1f435
	_ZNK7android10MemoryBase9getMemoryEPiPj	0x1f34f
	_ZThn4_N7android10MemoryBaseD1Ev	0x1f42d
	_ZThn4_N7android10MemoryBaseD0Ev	0x1f447
	_ZTv0_n12_N7android10MemoryBaseD1Ev	0x1f485
	_ZTv0_n12_N7android10MemoryBaseD0Ev	0x1f479
	_ZN7android10MemoryBaseC1ERKNS_2spINS_11IMemoryHeapEEEij	0x1f36d
	_ZNK7android14MemoryHeapBase9getHeapIDEv	0x1f491
	_ZNK7android14MemoryHeapBase7getBaseEv	0x1ebad
	_ZNK7android14MemoryHeapBase7getSizeEv	0x1ab01
	_ZNK7android14MemoryHeapBase8getFlagsEv	0x1f495
	_ZNK7android14MemoryHeapBase9getOffsetEv	0x1f499
	_ZN7android14MemoryHeapBaseC2Ev	0x1f49d
	_ZN7android14MemoryHeapBaseC1Ev	0x1f4d5
	_ZN7android14MemoryHeapBase4initEiPviiPKc	0x1f529
	_ZN7android14MemoryHeapBase5mapfdEijj	0x1f54d
	_ZN7android14MemoryHeapBaseC1Eijjj	0x1f5e9
	_ZN7android14MemoryHeapBaseC2Eijjj	0x1f67d
	_ZN7android14MemoryHeapBaseC1EPKcjj	0x1f6f1
	_ZN7android14MemoryHeapBaseC2EPKcjj	0x1f7c1
	_ZN7android14MemoryHeapBaseC2EjjPKc	0x1f955
	_ZN7android14MemoryHeapBase7disposeEv	0x1fa11
	_ZN7android14MemoryHeapBaseD1Ev	0x1fa41
	_ZN7android14MemoryHeapBaseD0Ev	0x1fa85
	_ZN7android14MemoryHeapBaseD2Ev	0x1fa97
	_ZNK7android14MemoryHeapBase9getDeviceEv	0x1fac5
	_ZTv0_n12_N7android14MemoryHeapBaseD0Ev	0x1fac9
	_ZTvn4_n16_N7android14MemoryHeapBaseD0Ev	0x1fad5
	_ZTv0_n16_N7android14MemoryHeapBaseD0Ev	0x1fae5
	_ZTv0_n12_N7android14MemoryHeapBaseD1Ev	0x1faf1
	_ZTvn4_n16_N7android14MemoryHeapBaseD1Ev	0x1fafd
	_ZTv0_n16_N7android14MemoryHeapBaseD1Ev	0x1fb0d
	_ZTv0_n44_NK7android14MemoryHeapBase9getOffsetEv	0x1fb19
	_ZTv0_n40_NK7android14MemoryHeapBase8getFlagsEv	0x1fb25
	_ZTv0_n36_NK7android14MemoryHeapBase7getSizeEv	0x1fb31
	_ZTv0_n32_NK7android14MemoryHeapBase7getBaseEv	0x1fb3d
	_ZTv0_n28_NK7android14MemoryHeapBase9getHeapIDEv	0x1fb49
	_ZN7android6Parcel12pushAllowFdsEb	0x1fbd9
	_ZN7android6Parcel15restoreAllowFdsEb	0x1fbe7
	_ZNK7android6Parcel7objectsEv	0x1fac5
	_ZNK7android6Parcel12objectsCountEv	0x1fbed
	_ZN7android6Parcel11finishWriteEj	0x1fbf9
	_ZNK7android6Parcel11readInplaceEj	0x1fc5b
	_ZNK7android6Parcel9readInt64EPx	0x1fc83
	_ZNK7android6Parcel9readInt64Ev	0x1fca9
	_ZNK7android6Parcel9readFloatEPf	0x1fccb
	_ZNK7android6Parcel9readFloatEv	0x1fcef
	_ZNK7android6Parcel10readDoubleEPd	0x1fd07
	_ZNK7android6Parcel10readDoubleEv	0x1fd2d
	_ZNK7android6Parcel11readCStringEv	0x1fd4b
	_ZNK7android6Parcel10readObjectEb	0x1fd7d
	_ZNK7android6Parcel5printERNS_10TextOutputEj	0x1fe61
	_ZN7androidlsERNS_10TextOutputEPKv	0x229b9
	_ZN7android7HexDumpC1EPKvjj	0x22a51
	_ZN7androidlsERNS_10TextOutputERKNS_7HexDumpE	0x22a75
	_ZN7androidlsERNS_10TextOutputEj	0x2284d
	_ZN7androidlsERNS_10TextOutputERKNS_8TypeCodeE	0x22a39
	_ZN7android6Parcel9initStateEv	0x1ff95
	_ZN7android6ParcelC2Ev	0x1ffbb
	_ZNK7android6Parcel10scanForFdsEv	0x1ffc9
	_ZNK7android6Parcel18hasFileDescriptorsEv	0x1fffd
	_ZN7android6Parcel4BlobC2Ev	0x20011
	_ZN7android6Parcel4BlobC1Ev	0x20011
	_ZN7android6Parcel4Blob7releaseEv	0x2001b
	_ZN7android6Parcel4BlobD2Ev	0x20037
	_ZN7android6Parcel4BlobD1Ev	0x20037
	_ZN7android6Parcel4Blob4initEbPvj	0x20043
	_ZN7android6Parcel4Blob5clearEv	0x2004b
	_ZN7android16unflatten_binderERKNS_2spINS_12ProcessStateEEERKNS_6ParcelEPNS0_INS_7IBinderEEE	0x20055
	_ZN7android12ProcessState23getStrongProxyForHandleEi	0x21da5
	_ZN7android14release_objectERKNS_2spINS_12ProcessStateEEERKNS_18flat_binder_objectEPKv	0x200e9
	_ZN7android12ProcessState21getWeakProxyForHandleEi	0x220dd
	_ZN7android14acquire_objectERKNS_2spINS_12ProcessStateEEERKNS_18flat_binder_objectEPKv	0x201b5
	_ZN7android16unflatten_binderERKNS_2spINS_12ProcessStateEEERKNS_6ParcelEPNS_2wpINS_7IBinderEEE	0x20275
	_ZN7android2spINS_12ProcessStateEED2Ev	0x18cad
	_ZN7android2spINS_12ProcessStateEED1Ev	0x18cad
	_ZN7android6Parcel14acquireObjectsEv	0x20351
	_ZN7android6Parcel14releaseObjectsEv	0x2037f
	_ZN7android6Parcel14freeDataNoInitEv	0x203ad
	_ZN7android6Parcel8freeDataEv	0x203e5
	_ZN7android6ParcelD2Ev	0x2047d
	_ZN7android6Parcel13continueWriteEj	0x20489
	_ZN7android6Parcel8growDataEj	0x20639
	_ZN7android6Parcel12writeInplaceEj	0x20651
	_ZN7android6Parcel12writeCStringEPKc	0x206c5
	_ZN7android6Parcel13writeUnpaddedEPKvj	0x206df
	_ZN7android6Parcel10writeInt64Ex	0x2071f
	_ZN7android6Parcel10writeFloatEf	0x2075d
	_ZN7android6Parcel11writeDoubleEd	0x2078d
	_ZN7android6Parcel12restartWriteEj	0x207e1
	_ZN7android6Parcel7setDataEPKhj	0x20845
	_ZN7android6Parcel11writeObjectERKNS_18flat_binder_objectEb	0x2086d
	_ZN7android6Parcel22writeDupFileDescriptorEi	0x20945
	_ZN7android14flatten_binderERKNS_2spINS_12ProcessStateEEERKNS0_INS_7IBinderEEEPNS_6ParcelE	0x20975
	_ZN7android14flatten_binderERKNS_2spINS_12ProcessStateEEERKNS_2wpINS_7IBinderEEEPNS_6ParcelE	0x209f9
	_ZN7android6Parcel10appendFromEPKS0_jj	0x20b15
	_ZNK7android6Parcel14readWeakBinderEv	0x20cb1
	_ZN7android6Parcel15writeWeakBinderERKNS_2wpINS_7IBinderEEE	0x20cd5
	_ZN7android6Parcel12writeAlignedIiEEiT_	0x20cf7
	_ZN7android6Parcel11writeIntPtrEi	0x20d25
	_ZN7android6Parcel5writeERKNS0_26FlattenableHelperInterfaceE	0x20d2f
	_ZN7android6Parcel9writeBlobEjPNS0_12WritableBlobE	0x20dcd
	_ZN7android6Parcel17writeNativeHandleEPK13native_handle	0x20e95
	_ZN7android6Parcel13writeString16EPKtj	0x20f11
	_ZN7android6Parcel12writeString8ERKNS_7String8E	0x20f99
	_ZN7android6Parcel12writeAlignedIjEEiT_	0x20cf7
	_ZN7android6Parcel14writeByteArrayEjPKh	0x20fcf
	_ZN7android6Parcel15writeInt32ArrayEjPKi	0x20ffb
	_ZNK7android6Parcel11readAlignedIiEEiPT_	0x21027
	_ZNK7android6Parcel10readIntPtrEPi	0x21045
	_ZNK7android6Parcel9readInt32EPi	0x21045
	_ZNK7android6Parcel8readBlobEjPNS0_12ReadableBlobE	0x21049
	_ZNK7android6Parcel16readNativeHandleEv	0x210a9
	_ZNK7android6Parcel11readAlignedIiEET_v	0x21121
	_ZNK7android6Parcel10readIntPtrEv	0x21153
	_ZNK7android6Parcel4readERNS0_26FlattenableHelperInterfaceE	0x21157
	_ZNK7android6Parcel19readString16InplaceEPj	0x211e3
	_ZNK7android6Parcel11readString8Ev	0x2124d
	_ZNK7android6Parcel16enforceInterfaceERKNS_8String16EPNS_14IPCThreadStateE	0x21289
	_ZNK7android12SortedVectorINS_8String16EE15do_move_forwardEPvPKvj	0x19081
	_ZNK7android12SortedVectorINS_8String16EE16do_move_backwardEPvPKvj	0x19081
	_ZNK7android12SortedVectorINS_8String16EE7do_copyEPvPKvj	0x1908b
	_ZNK7android12SortedVectorINS_8String16EE8do_splatEPvPKvj	0x190a9
	_ZNK7android12SortedVectorINS_8String16EE10do_destroyEPvj	0x190c5
	_ZNK7android12SortedVectorINS_8String16EE12do_constructEPvj	0x190dd
	_ZNK7android12SortedVectorINS_15PermissionCache5EntryEE12do_constructEPvj	0x213cb
	_ZNK7android12SortedVectorINS_15PermissionCache5EntryEE10do_destroyEPvj	0x213e5
	_ZNK7android12SortedVectorINS_8String16EE10do_compareEPKvS4_	0x213fd
	_ZNK7android12SortedVectorINS_15PermissionCache5EntryEE10do_compareEPKvS5_	0x21453
	_ZN7android15PermissionCacheC2Ev	0x2146d
	_ZN7android15PermissionCacheC1Ev	0x2146d
	_ZNK7android15PermissionCache5checkEPbRKNS_8String16Ej	0x214b1
	_ZN7android15PermissionCache5cacheERKNS_8String16Ejb	0x21507
	_ZN7android15PermissionCache5purgeEv	0x21575
	_ZN7android9SingletonINS_15PermissionCacheEE11getInstanceEv	0x21595
	_ZN7android15PermissionCache15checkPermissionERKNS_8String16Eij	0x215c9
	_ZN7android15PermissionCache22checkCallingPermissionERKNS_8String16EPiS4_	0x21699
	_ZN7android15PermissionCache22checkCallingPermissionERKNS_8String16E	0x216cb
	_ZN7android9SingletonINS_15PermissionCacheEE11hasInstanceEv	0x216d5
	_ZN7android9SingletonINS_15PermissionCacheEED2Ev	0x1907f
	_ZN7android9SingletonINS_15PermissionCacheEED1Ev	0x1907f
	_ZN7android9SingletonINS_15PermissionCacheEEC2Ev	0x1907f
	_ZN7android9SingletonINS_15PermissionCacheEEC1Ev	0x1907f
	_ZNK7android12SortedVectorINS_15PermissionCache5EntryEE7do_copyEPvPKvj	0x2171b
	_ZNK7android12SortedVectorINS_15PermissionCache5EntryEE8do_splatEPvPKvj	0x21739
	_ZNK7android12SortedVectorINS_15PermissionCache5EntryEE15do_move_forwardEPvPKvj	0x21755
	_ZNK7android12SortedVectorINS_15PermissionCache5EntryEE16do_move_backwardEPvPKvj	0x2177d
	_ZNK7android6VectorINS_12ProcessState12handle_entryEE12do_constructEPvj	0x1907f
	_ZNK7android6VectorINS_12ProcessState12handle_entryEE10do_destroyEPvj	0x1907f
	_ZNK7android6VectorINS_12ProcessState12handle_entryEE7do_copyEPvPKvj	0x217cd
	_ZNK7android6VectorINS_12ProcessState12handle_entryEE8do_splatEPvPKvj	0x217e9
	_ZNK7android6VectorINS_12ProcessState12handle_entryEE15do_move_forwardEPvPKvj	0x21801
	_ZNK7android6VectorINS_12ProcessState12handle_entryEE16do_move_backwardEPvPKvj	0x217cd
	_ZNK7android12SortedVectorINS_16key_value_pair_tINS_8String16ENS_2spINS_7IBinderEEEEEE12do_constructEPvj	0x219fd
	_ZN7android12ProcessStateD1Ev	0x21a21
	_ZN7android12ProcessStateD0Ev	0x21a65
	_ZNK7android12SortedVectorINS_16key_value_pair_tINS_8String16ENS_2spINS_7IBinderEEEEEE10do_compareEPKvS9_	0x21a99
	_ZNK7android12ProcessState16isContextManagerEv	0x21ab7
	_ZN7android12ProcessState20becomeContextManagerEPFbRKNS_8String16ERKNS_2spINS_7IBinderEEEPvES9_	0x21abd
	_ZN7android12ProcessState18lookupHandleLockedEi	0x21b2d
	_ZN7android12ProcessState7setArgsEiPKPKc	0x21b91
	_ZNK7android12ProcessState7getArgCEv	0x21be9
	_ZNK7android12ProcessState7getArgVEv	0x21bf5
	_ZN7android12ProcessState8setArgV0EPKc	0x21c01
	_ZN7android12ProcessState20makeBinderThreadNameEv	0x21c2d
	_ZN7android12ProcessState15startThreadPoolEv	0x21ced
	_ZN7android12ProcessState27setThreadPoolMaxThreadCountEj	0x21d15
	_ZN7android12ProcessState18giveThreadPoolNameEv	0x21d59
	_ZN7android12ProcessStateD2Ev	0x21d71
	_ZN7android2spINS_12ProcessStateEEC2ERKS2_	0x18d87
	_ZN7android2spINS_12ProcessStateEEC1ERKS2_	0x18d87
	_ZN7android2spINS_7IBinderEEC2ERKS2_	0x18d87
	_ZN7android2spINS_7IBinderEEC1ERKS2_	0x18d87
	_ZN7android12ProcessState16setContextObjectERKNS_2spINS_7IBinderEEERKNS_8String16E	0x21eb7
	_ZN7android12ProcessState16setContextObjectERKNS_2spINS_7IBinderEEE	0x21ef1
	_ZNK7android12SortedVectorINS_16key_value_pair_tINS_8String16ENS_2spINS_7IBinderEEEEEE10do_destroyEPvj	0x21f19
	_ZN7android12ProcessState16getContextObjectERKNS_8String16ERKNS_2spINS_7IBinderEEE	0x21f55
	_ZN7android2wpINS_7IBinderEEaSEPS1_	0x220ad
	_ZN7android12ProcessStateC2Ev	0x221a9
	_ZN7android12ProcessStateC1Ev	0x2225d
	_ZNK7android12SortedVectorINS_16key_value_pair_tINS_8String16ENS_2spINS_7IBinderEEEEEE16do_move_backwardEPvPKvj	0x223a7
	_ZNK7android12SortedVectorINS_16key_value_pair_tINS_8String16ENS_2spINS_7IBinderEEEEEE15do_move_forwardEPvPKvj	0x223cb
	_ZNK7android12SortedVectorINS_16key_value_pair_tINS_8String16ENS_2spINS_7IBinderEEEEEE8do_splatEPvPKvj	0x223f1
	_ZNK7android12SortedVectorINS_16key_value_pair_tINS_8String16ENS_2spINS_7IBinderEEEEEE7do_copyEPvPKvj	0x2240d
	_ZTv0_n12_N7android12ProcessStateD0Ev	0x2242b
	_ZTv0_n12_N7android12ProcessStateD1Ev	0x22437
	_ZNK7android6VectorIiE12do_constructEPvj	0x1907f
	_ZNK7android6VectorIiE10do_destroyEPvj	0x1907f
	_ZNK7android6VectorIiE8do_splatEPvPKvj	0x1cee9
	_ZNK7android6VectorIiE15do_move_forwardEPvPKvj	0x19081
	_ZNK7android6VectorIiE16do_move_backwardEPvPKvj	0x19081
	_ZNK7android6VectorIiE7do_copyEPvPKvj	0x1cefb
	_ZN7android10TextOutputD1Ev	0x226ad
	_ZN7android10TextOutputD0Ev	0x226d9
	_ZN7android10TextOutputC1Ev	0x226ad
	_ZN7androidlsERNS_10TextOutputEb	0x2277d
	_ZN7androidlsERNS_10TextOutputEi	0x227a5
	_ZN7androidlsERNS_10TextOutputEl	0x227f9
	_ZN7androidlsERNS_10TextOutputEm	0x228a1
	_ZN7androidlsERNS_10TextOutputEx	0x228f5
	_ZN7androidlsERNS_10TextOutputEy	0x2294d
	_ZN7androidlsERNS_10TextOutputEf	0x229a5
	_ZN7androidlsERNS_10TextOutputEd	0x229b1
	_ZN7androidlsERNS_10TextOutputERKNS_7String8E	0x22a0d
	_ZN7androidlsERNS_10TextOutputERKNS_8String16E	0x22a1b
	_ZN7android7HexDumpC2EPKvjj	0x22a51
Module(name="libandroid_runtime.so", base_address=0x4013c000, size=729088, path="/system/lib/libandroid_runtime.so")
	func_name	RVA
	_Z43register_com_google_android_gles_jni_GLImplP7_JNIEnv	0x4ac54
	_ZN7android14AndroidRuntime21registerNativeMethodsEP7_JNIEnvPKcPK15JNINativeMethodi	0x4d335
	_ZN7android22poly_clip_to_halfspaceEPNS_4PolyES1_iff	0x4ac74
	_ZN7android20poly_clip_to_frustumEPNS_4PolyE	0x4ada0
	_ZN7android20nativeUtilsClassInitEP7_JNIEnvP7_jclass	0x4b06c
	_ZN7android15setTracingLevelEP7_JNIEnvP7_jclassi	0x4b49c
	_ZN7android31register_android_opengl_classesEP7_JNIEnv	0x4cde4
	_ZN7android14AndroidRuntime11onVmCreatedEP7_JNIEnv	0x4d03d
	_ZNK7android6VectorI12JavaVMOptionE12do_constructEPvj	0x4d03d
	_ZNK7android6VectorI12JavaVMOptionE10do_destroyEPvj	0x4d03d
	_ZNK7android6VectorI12JavaVMOptionE7do_copyEPvPKvj	0x4d07d
	_ZNK7android6VectorI12JavaVMOptionE8do_splatEPvPKvj	0x4d099
	_ZNK7android6VectorI12JavaVMOptionE15do_move_forwardEPvPKvj	0x4d0b1
	_ZNK7android6VectorI12JavaVMOptionE16do_move_backwardEPvPKvj	0x4d07d
	_ZN7android14AndroidRuntime19javaCreateThreadEtcEPFiPvES1_PKcijPS1_	0x4d111
	_ZN7android14AndroidRuntime15javaThreadShellEPv	0x4d209
	_ZN7android44register_com_android_internal_os_RuntimeInitEP7_JNIEnv	0x4d18d
	_ZN7android14AndroidRuntimeD2Ev	0x4d1a5
	_ZN7android14AndroidRuntimeD1Ev	0x4d1a5
	_ZN7android14AndroidRuntimeD0Ev	0x4d1c9
	_ZN7android14AndroidRuntimeC2Ev	0x4d2d5
	_ZN7android14AndroidRuntimeC1Ev	0x4d2d5
	_ZN7android14AndroidRuntime16toSlashClassNameEPKc	0x4d339
	_ZN7android14AndroidRuntime4exitEi	0x4d359
	_ZN7android14AndroidRuntime9getJNIEnvEv	0x4d3bd
	_ZN7android14AndroidRuntime8callMainEPKcP7_jclassiPKS2_	0x4d3e1
	_ZN7android14AndroidRuntime16createJavaThreadEPKcPFvPvES3_	0x4d4a1
	_ZN7android14AndroidRuntime8startRegEP7_JNIEnv	0x4d4c5
	_ZN7android14AndroidRuntime10getRuntimeEv	0x4d501
	Java_com_android_internal_util_WithFramework_registerNatives	0x4d50d
	Java_LoadClass_registerNatives	0x4d50d
	_ZN7android14AndroidRuntime14parseExtraOptsEPc	0x4d515
	_ZN7android14AndroidRuntime14addVmArgumentsEiPKPKc	0x4d559
	_ZN7android14AndroidRuntime7startVmEPP7_JavaVMPP7_JNIEnv	0x4d59d
	_ZN7android14AndroidRuntime5startEPKcS2_	0x4de75
	_ZN7android30register_android_debug_JNITestEP7_JNIEnv	0x85e91
	_ZN7android31register_android_os_SystemClockEP7_JNIEnv	0x6b62d
	_ZN7android30register_android_util_EventLogEP7_JNIEnv	0x7206d
	_ZN7android25register_android_util_LogEP7_JNIEnv	0x72379
	_Z31register_android_util_FloatMathP7_JNIEnv	0x724c5
	_ZN7android33register_android_text_format_TimeEP7_JNIEnv	0x6ea6d
	_ZN7android37register_android_content_AssetManagerEP7_JNIEnv	0x704a1
	_ZN7android36register_android_content_StringBlockEP7_JNIEnv	0x73931
	_ZN7android33register_android_content_XmlBlockEP7_JNIEnv	0x73cf5
	_ZN7android35register_android_emoji_EmojiFactoryEP7_JNIEnv	0x60961
	_ZN7android38register_android_text_AndroidCharacterEP7_JNIEnv	0x68d71
	_ZN7android33register_android_text_AndroidBidiEP7_JNIEnv	0x68e5d
	_ZN7android33register_android_view_InputDeviceEP7_JNIEnv	0x62a11
	_ZN7android37register_android_view_KeyCharacterMapEP7_JNIEnv	0x64f71
	_Z27register_android_os_ProcessP7_JNIEnv	0x732ed
	_ZN7android36register_android_os_SystemPropertiesEP7_JNIEnv	0x6ba15
	_Z26register_android_os_BinderP7_JNIEnv	0x71171
	_ZN7android26register_android_os_ParcelEP7_JNIEnv	0x6aed5
	_ZN7android42register_android_view_DisplayEventReceiverEP7_JNIEnv	0x60cbd
	_ZN7android26register_android_nio_utilsEP7_JNIEnv	0x6d6f5
	_Z34register_android_graphics_GraphicsP7_JNIEnv	0x785c1
	_ZN7android35register_android_view_GraphicBufferEP7_JNIEnv	0x654ad
	_ZN7android39register_android_view_GLES20DisplayListEP7_JNIEnv	0x66105
	_ZN7android34register_android_view_GLES20CanvasEP7_JNIEnv	0x66f91
	_ZN7android38register_android_view_HardwareRendererEP7_JNIEnv	0x6538d
	_ZN7android29register_android_view_SurfaceEP7_JNIEnv	0x61079
	_ZN7android36register_android_view_SurfaceControlEP7_JNIEnv	0x61a0d
	_ZN7android36register_android_view_SurfaceSessionEP7_JNIEnv	0x62099
	_ZN7android33register_android_view_TextureViewEP7_JNIEnv	0x6216d
	_Z44register_com_google_android_gles_jni_EGLImplP7_JNIEnv	0x4f545
	_Z33register_android_opengl_jni_EGL14P7_JNIEnv	0x5100d
	_Z34register_android_opengl_jni_EGLExtP7_JNIEnv	0x515dd
	_Z34register_android_opengl_jni_GLES10P7_JNIEnv	0x530a9
	_Z37register_android_opengl_jni_GLES10ExtP7_JNIEnv	0x53475
	_Z34register_android_opengl_jni_GLES11P7_JNIEnv	0x55311
	_Z37register_android_opengl_jni_GLES11ExtP7_JNIEnv	0x57425
	_Z34register_android_opengl_jni_GLES20P7_JNIEnv	0x5b7ed
	_Z34register_android_opengl_jni_GLES30P7_JNIEnv	0x5ee6d
	_Z32register_android_graphics_BitmapP7_JNIEnv	0x74c81
	_Z39register_android_graphics_BitmapFactoryP7_JNIEnv	0x758d9
	_Z45register_android_graphics_BitmapRegionDecoderP7_JNIEnv	0x7bf6d
	_Z32register_android_graphics_CameraP7_JNIEnv	0x75f29
	_Z55register_android_graphics_CreateJavaOutputStreamAdaptorP7_JNIEnv	0x77a3d
	_ZN7android32register_android_graphics_CanvasEP7_JNIEnv	0x7713d
	_ZN7android37register_android_graphics_ColorFilterEP7_JNIEnv	0x775e5
	_ZN7android36register_android_graphics_DrawFilterEP7_JNIEnv	0x77695
	_Z38register_android_graphics_InterpolatorP7_JNIEnv	0x78d59
	_Z41register_android_graphics_LayerRasterizerP7_JNIEnv	0x78d91
	_Z36register_android_graphics_MaskFilterP7_JNIEnv	0x78eed
	_ZN7android32register_android_graphics_MatrixEP7_JNIEnv	0x7934d
	_Z31register_android_graphics_MovieP7_JNIEnv	0x79575
	_Z35register_android_graphics_NinePatchP7_JNIEnv	0x798e5
	_ZN7android31register_android_graphics_PaintEP7_JNIEnv	0x7adad
	_ZN7android30register_android_graphics_PathEP7_JNIEnv	0x7b64d
	_ZN7android37register_android_graphics_PathMeasureEP7_JNIEnv	0x7b7b1
	_Z36register_android_graphics_PathEffectP7_JNIEnv	0x7b91d
	_ZN7android33register_android_graphics_PictureEP7_JNIEnv	0x7badd
	_ZN7android36register_android_graphics_PorterDuffEP7_JNIEnv	0x7bafd
	_ZN7android36register_android_graphics_RasterizerEP7_JNIEnv	0x7bfa1
	_ZN7android32register_android_graphics_RegionEP7_JNIEnv	0x7c429
	_Z32register_android_graphics_ShaderP7_JNIEnv	0x7cd19
	_ZN7android40register_android_graphics_SurfaceTextureEP7_JNIEnv	0x7d55d
	_Z34register_android_graphics_TypefaceP7_JNIEnv	0x7f4d5
	_ZN7android34register_android_graphics_XfermodeEP7_JNIEnv	0x7f795
	_Z34register_android_graphics_YuvImageP7_JNIEnv	0x7fd35
	_ZN7android41register_android_graphics_pdf_PdfDocumentEP7_JNIEnv	0x7ffa1
	_ZN7android38register_android_database_CursorWindowEP7_JNIEnv	0x5f5f1
	_ZN7android42register_android_database_SQLiteConnectionEP7_JNIEnv	0x60439
	_ZN7android38register_android_database_SQLiteGlobalEP7_JNIEnv	0x60521
	_ZN7android37register_android_database_SQLiteDebugEP7_JNIEnv	0x605d5
	_ZN7android25register_android_os_DebugEP7_JNIEnv	0x6a091
	_ZN7android32register_android_os_FileObserverEP7_JNIEnv	0x85fd1
	_ZN7android32register_android_os_MessageQueueEP7_JNIEnv	0x6a605
	_ZN7android27register_android_os_SELinuxEP7_JNIEnv	0x6b245
	_ZN7android25register_android_os_TraceEP7_JNIEnv	0x6be91
	_ZN7android34register_android_os_UEventObserverEP7_JNIEnv	0x6c12d
	_ZN7android36register_android_net_LocalSocketImplEP7_JNIEnv	0x6caed
	_ZN7android33register_android_net_NetworkUtilsEP7_JNIEnv	0x6cf89
	_ZN7android33register_android_net_TrafficStatsEP7_JNIEnv	0x6d3e1
	_ZN7android36register_android_net_wifi_WifiNativeEP7_JNIEnv	0x6d639
	_ZN7android30register_android_os_MemoryFileEP7_JNIEnv	0x6a489
	_ZN7android43register_com_android_internal_os_ZygoteInitEP7_JNIEnv	0x8677d
	_Z32register_android_hardware_CameraP7_JNIEnv	0x8338d
	_Z48register_android_hardware_camera2_CameraMetadataP7_JNIEnv	0x84929
	_Z39register_android_hardware_SensorManagerP7_JNIEnv	0x84a59
	_Z36register_android_hardware_SerialPortP7_JNIEnv	0x854dd
	_Z35register_android_hardware_UsbDeviceP7_JNIEnv	0x855b5
	_Z45register_android_hardware_UsbDeviceConnectionP7_JNIEnv	0x8597d
	_Z36register_android_hardware_UsbRequestP7_JNIEnv	0x85ccd
	_Z34register_android_media_AudioRecordP7_JNIEnv	0x8013d
	_Z34register_android_media_AudioSystemP7_JNIEnv	0x80d0d
	_Z33register_android_media_AudioTrackP7_JNIEnv	0x81055
	_Z32register_android_media_JetPlayerP7_JNIEnv	0x82541
	_ZN7android36register_android_media_RemoteDisplayEP7_JNIEnv	0x82989
	_Z36register_android_media_ToneGeneratorP7_JNIEnv	0x82d8d
	_ZN7android53register_android_server_NetworkManagementSocketTaggerEP7_JNIEnv	0x8610d
	_ZN7android32register_android_server_WatchdogEP7_JNIEnv	0x86331
	_ZN7android40register_android_ddm_DdmHandleNativeHeapEP7_JNIEnv	0x8649d
	_ZN7android39register_android_backup_BackupDataInputEP7_JNIEnv	0x86909
	_ZN7android40register_android_backup_BackupDataOutputEP7_JNIEnv	0x86aa9
	_ZN7android44register_android_backup_FileBackupHelperBaseEP7_JNIEnv	0x86c41
	_ZN7android46register_android_backup_BackupHelperDispatcherEP7_JNIEnv	0x86f5d
	_ZN7android38register_android_app_backup_FullBackupEP7_JNIEnv	0x87161
	_ZN7android35register_android_app_ActivityThreadEP7_JNIEnv	0x66fe5
	_ZN7android35register_android_app_NativeActivityEP7_JNIEnv	0x4fadd
	_ZN7android34register_android_view_InputChannelEP7_JNIEnv	0x62625
	_ZN7android40register_android_view_InputEventReceiverEP7_JNIEnv	0x62f69
	_ZN7android38register_android_view_InputEventSenderEP7_JNIEnv	0x6389d
	_ZN7android32register_android_view_InputQueueEP7_JNIEnv	0x643b5
	_ZN7android30register_android_view_KeyEventEP7_JNIEnv	0x64bcd
	_ZN7android33register_android_view_MotionEventEP7_JNIEnv	0x68289
	_ZN7android33register_android_view_PointerIconEP7_JNIEnv	0x68625
	_ZN7android37register_android_view_VelocityTrackerEP7_JNIEnv	0x689a1
	_ZN7android39register_android_content_res_ObbScannerEP7_JNIEnv	0x871b5
	_ZN7android42register_android_content_res_ConfigurationEP7_JNIEnv	0x87455
	_ZN7android47register_android_animation_PropertyValuesHolderEP7_JNIEnv	0x87675
	_ZN7android57register_com_android_internal_content_NativeLibraryHelperEP7_JNIEnv	0x4ea55
	_ZN7android53register_com_android_internal_net_NetworkStatsFactoryEP7_JNIEnv	0x87b79
	_ZN7android4TimeC2Ev	0x4e0bf
	_ZN7android4TimeC1Ev	0x4e0bf
	_ZN7android4Time14switchTimezoneEPKc	0x4e0db
	_ZNK7android4Time6formatEPKcPK15strftime_locale	0x4e0f9
	_ZNK7android4Time10format2445EPsb	0x4e149
	_ZN7android4Time8setToNowEv	0x4e245
	_ZN7android4Time8toMillisEb	0x4e25b
	_ZNK7android4Time8toStringEv	0x4e289
	_ZN7android4Time7compareERS0_S1_	0x4e325
	_ZN7android4Time3setEx	0x4e399
	_ZN7android2spINS_22IGraphicBufferProducerEED2Ev	0x4f55d
	_ZN7android2spINS_22IGraphicBufferProducerEED1Ev	0x4f55d
	_ZN7android2spI13ANativeWindowED2Ev	0x4f577
	_ZN7android2spI13ANativeWindowED1Ev	0x4f577
	_ZN7android36android_view_Surface_getNativeWindowEP7_JNIEnvP8_jobject	0x61481
	_ZN7android26SurfaceTexture_getProducerEP7_JNIEnvP8_jobject	0x7d2b9
	_ZN7android12MessageQueue22raiseAndClearExceptionEP7_JNIEnvPKc	0x6a559
	_ZN7android29android_NativeActivity_finishEP15ANativeActivity	0x4fa8d
	_ZN7android38android_NativeActivity_setWindowFormatEP15ANativeActivityi	0x4fa9b
	_ZN7android37android_NativeActivity_setWindowFlagsEP15ANativeActivityii	0x4faa9
	_ZN7android36android_NativeActivity_showSoftInputEP15ANativeActivityi	0x4fabf
	_ZN7android36android_NativeActivity_hideSoftInputEP15ANativeActivityi	0x4facd
	_ZN7android2spINS_6LooperEED2Ev	0x4fb8d
	_ZN7android2spINS_6LooperEED1Ev	0x4fb8d
	_ZN7android2spINS_12MessageQueueEED2Ev	0x4fb8d
	_ZN7android2spINS_12MessageQueueEED1Ev	0x4fb8d
	_ZN7android2spI13ANativeWindowEaSERKS2_	0x4fb9f
	_ZN7android39android_os_MessageQueue_getMessageQueueEP7_JNIEnvP8_jobject	0x6a5dd
	_ZN7android25assetManagerForJavaObjectEP7_JNIEnvP8_jobject	0x6f52d
	_ZN7android19parcelForJavaObjectEP7_JNIEnvP8_jobject	0x6ae7d
	_ZN7android23throw_sqlite3_exceptionEP7_JNIEnvPKc	0x5f80d
	_ZN7android23throw_sqlite3_exceptionEP7_JNIEnviPKcS3_	0x5f689
	_ZN7android31throw_sqlite3_exception_errcodeEP7_JNIEnviPKc	0x5f7fd
	_ZN7android23throw_sqlite3_exceptionEP7_JNIEnvP7sqlite3PKc	0x5f81d
	_ZN7android23throw_sqlite3_exceptionEP7_JNIEnvP7sqlite3	0x5f851
	_ZN7android36android_util_Log_isVerboseLogEnabledEPKc	0x72361
	_ZN7android18EmojiFactoryCallerD2Ev	0x606c1
	_ZN7android18EmojiFactoryCallerD1Ev	0x606c1
	_ZN7android18EmojiFactoryCallerD0Ev	0x606dd
	_ZN11GraphicsJNI12createBitmapEP7_JNIEnvP8SkBitmapiP11_jbyteArrayi	0x782f1
	_ZN7android18EmojiFactoryCaller4InitEv	0x607ad
	_ZN7android18EmojiFactoryCaller24TryCallGetImplementationEPKc	0x6086d
	_ZN7android18EmojiFactoryCaller33TryCallGetAvailableImplementationEv	0x608f5
	_ZN7android26NativeDisplayEventReceiverC2EP7_JNIEnvP8_jobjectRKNS_2spINS_12MessageQueueEEE	0x60a19
	_ZN7android26NativeDisplayEventReceiverC1EP7_JNIEnvP8_jobjectRKNS_2spINS_12MessageQueueEEE	0x60a61
	_ZN7android26NativeDisplayEventReceiver13dispatchVsyncExij	0x60ab1
	_ZN7android26NativeDisplayEventReceiver15dispatchHotplugExib	0x60af9
	_ZN7android26NativeDisplayEventReceiver20processPendingEventsEPxPiPj	0x60b41
	_ZN7android26NativeDisplayEventReceiver13scheduleVsyncEv	0x60c09
	_ZN7android26NativeDisplayEventReceiver11handleEventEiiPv	0x60c51
	_ZN7android26NativeDisplayEventReceiver7disposeEv	0x60d39
	_ZN7android26NativeDisplayEventReceiver10initializeEv	0x60d75
	_ZN7android26NativeDisplayEventReceiverD1Ev	0x60e11
	_ZN7android26NativeDisplayEventReceiverD0Ev	0x60e61
	_ZN7android26NativeDisplayEventReceiverD2Ev	0x60e73
	_ZN7android2spINS_26NativeDisplayEventReceiverEEC2EPS1_	0x60eb1
	_ZN7android2spINS_26NativeDisplayEventReceiverEEC1EPS1_	0x60eb1
	_ZN7android2spINS_26NativeDisplayEventReceiverEED2Ev	0x4f55d
	_ZN7android2spINS_26NativeDisplayEventReceiverEED1Ev	0x4f55d
	_ZTv0_n12_N7android26NativeDisplayEventReceiverD0Ev	0x60fe1
	_ZTv0_n12_N7android26NativeDisplayEventReceiverD1Ev	0x60fed
	_ZN7android33android_view_Surface_isInstanceOfEP7_JNIEnvP8_jobject	0x6105d
	_ZN7android2spINS_7SurfaceEED2Ev	0x4fb8d
	_ZN7android2spINS_7SurfaceEED1Ev	0x4fb8d
	_ZN7android2spINS_7SurfaceEEC2EPS1_	0x6121f
	_ZN7android2spINS_7SurfaceEEC1EPS1_	0x6121f
	_Z10doThrowIAEP7_JNIEnvPKc	0x77cb1
	_ZN7android53android_view_Surface_createFromIGraphicBufferProducerEP7_JNIEnvRKNS_2spINS_22IGraphicBufferProducerEEE	0x61371
	_ZN7android2spINS_7SurfaceEEaSEPS1_	0x61409
	_ZN7android31android_view_Surface_getSurfaceEP7_JNIEnvP8_jobject	0x61429
	_ZN7android2spINS_7IBinderEED2Ev	0x4f55d
	_ZN7android2spINS_7IBinderEED1Ev	0x4f55d
	_Z10doThrowNPEP7_JNIEnv	0x77c9b
	_ZN7android35android_graphics_Region_getSkRegionEP7_JNIEnvP8_jobject	0x7c499
	_ZN7android2spINS_14SurfaceControlEED2Ev	0x4fb8d
	_ZN7android2spINS_14SurfaceControlEED1Ev	0x4fb8d
	_ZN7android37android_view_SurfaceSession_getClientEP7_JNIEnvP8_jobject	0x62071
	_ZN7android20javaObjectForIBinderEP7_JNIEnvRKNS_2spINS_7IBinderEEE	0x719d9
	_ZN7android20ibinderForJavaObjectEP7_JNIEnvP8_jobject	0x70c6d
	_ZN7android18NativeInputChannel18setDisposeCallbackEPFvP7_JNIEnvP8_jobjectRKNS_2spINS_12InputChannelEEEPvESA_	0x625d9
	_ZN7android18NativeInputChannel30invokeAndRemoveDisposeCallbackEP7_JNIEnvP8_jobject	0x625df
	_ZN7android44android_view_InputChannel_setDisposeCallbackEP7_JNIEnvP8_jobjectPFvS1_S3_RKNS_2spINS_12InputChannelEEEPvES9_	0x625f9
	_ZN7android2spINS_12InputChannelEEC2ERKS2_	0x626a1
	_ZN7android2spINS_12InputChannelEEC1ERKS2_	0x626a1
	_ZN7android18NativeInputChannelC2ERKNS_2spINS_12InputChannelEEE	0x626b5
	_ZN7android18NativeInputChannelC1ERKNS_2spINS_12InputChannelEEE	0x626b5
	_ZN7android41android_view_InputChannel_getInputChannelEP7_JNIEnvP8_jobject	0x626c5
	_ZN7android2spINS_12InputChannelEED2Ev	0x4fb8d
	_ZN7android2spINS_12InputChannelEED1Ev	0x4fb8d
	_ZN7android18NativeInputChannelD2Ev	0x626e3
	_ZN7android18NativeInputChannelD1Ev	0x626e3
	_ZN7android31android_view_InputDevice_createEP7_JNIEnvRKNS_15InputDeviceInfoE	0x62a95
	_ZN7android35android_view_KeyCharacterMap_createEP7_JNIEnviRKNS_2spINS_15KeyCharacterMapEEE	0x6508d
	_ZNK7android6VectorINS_24NativeInputEventReceiver6FinishEE12do_constructEPvj	0x4d03d
	_ZNK7android6VectorINS_24NativeInputEventReceiver6FinishEE10do_destroyEPvj	0x4d03d
	_ZNK7android6VectorINS_13PointerCoordsEE12do_constructEPvj	0x4d03d
	_ZNK7android6VectorINS_13PointerCoordsEE10do_destroyEPvj	0x4d03d
	_ZNK7android6VectorIxE12do_constructEPvj	0x4d03d
	_ZNK7android6VectorIxE10do_destroyEPvj	0x4d03d
	_ZNK7android6VectorINS_17PointerPropertiesEE12do_constructEPvj	0x4d03d
	_ZNK7android6VectorINS_17PointerPropertiesEE10do_destroyEPvj	0x4d03d
	_ZNK7android6VectorINS_24NativeInputEventReceiver6FinishEE7do_copyEPvPKvj	0x4d07d
	_ZNK7android6VectorINS_24NativeInputEventReceiver6FinishEE8do_splatEPvPKvj	0x4d099
	_ZNK7android6VectorINS_24NativeInputEventReceiver6FinishEE15do_move_forwardEPvPKvj	0x4d0b1
	_ZNK7android6VectorINS_24NativeInputEventReceiver6FinishEE16do_move_backwardEPvPKvj	0x4d07d
	_ZNK7android6VectorINS_13PointerCoordsEE7do_copyEPvPKvj	0x62c61
	_ZNK7android6VectorINS_13PointerCoordsEE8do_splatEPvPKvj	0x62c95
	_ZNK7android6VectorINS_13PointerCoordsEE15do_move_forwardEPvPKvj	0x62cc3
	_ZNK7android6VectorINS_13PointerCoordsEE16do_move_backwardEPvPKvj	0x62c61
	_ZNK7android6VectorIxE8do_splatEPvPKvj	0x62cff
	_ZNK7android6VectorINS_17PointerPropertiesEE7do_copyEPvPKvj	0x4d07d
	_ZNK7android6VectorINS_17PointerPropertiesEE8do_splatEPvPKvj	0x4d099
	_ZNK7android6VectorINS_17PointerPropertiesEE15do_move_forwardEPvPKvj	0x4d0b1
	_ZNK7android6VectorINS_17PointerPropertiesEE16do_move_backwardEPvPKvj	0x4d07d
	_ZNK7android6VectorIxE15do_move_forwardEPvPKvj	0x62d15
	_ZNK7android6VectorIxE16do_move_backwardEPvPKvj	0x62d15
	_ZNK7android6VectorIxE7do_copyEPvPKvj	0x62d1f
	_ZN7android24NativeInputEventReceiver11setFdEventsEi	0x63013
	_ZN7android24NativeInputEventReceiver16finishInputEventEjb	0x630b5
	_ZN7android24NativeInputEventReceiver7disposeEv	0x6311d
	_ZN7android24NativeInputEventReceiver10initializeEv	0x63123
	_ZN7android24NativeInputEventReceiverD1Ev	0x63131
	_ZN7android24NativeInputEventReceiverD0Ev	0x63195
	_ZN7android24NativeInputEventReceiverD2Ev	0x631a7
	_ZN7android24NativeInputEventReceiverC1EP7_JNIEnvP8_jobjectRKNS_2spINS_12InputChannelEEERKNS5_INS_12MessageQueueEEE	0x63219
	_ZN7android24NativeInputEventReceiverC2EP7_JNIEnvP8_jobjectRKNS_2spINS_12InputChannelEEERKNS5_INS_12MessageQueueEEE	0x632b1
	_ZN7android24NativeInputEventReceiver13consumeEventsEP7_JNIEnvbxPb	0x63335
	_ZN7android32android_view_KeyEvent_fromNativeEP7_JNIEnvPKNS_8KeyEventE	0x649fd
	_ZN7android37android_view_MotionEvent_obtainAsCopyEP7_JNIEnvPKNS_11MotionEventE	0x6819d
	_ZN7android24NativeInputEventReceiver11handleEventEiiPv	0x63555
	_ZN7android2spINS_24NativeInputEventReceiverEEC2EPS1_	0x60eb1
	_ZN7android2spINS_24NativeInputEventReceiverEEC1EPS1_	0x60eb1
	_ZN7android2spINS_24NativeInputEventReceiverEED2Ev	0x4f55d
	_ZN7android2spINS_24NativeInputEventReceiverEED1Ev	0x4f55d
	_ZTv0_n12_N7android24NativeInputEventReceiverD0Ev	0x63831
	_ZTv0_n12_N7android24NativeInputEventReceiverD1Ev	0x6383d
	_ZNK7android12SortedVectorINS_16key_value_pair_tIjjEEE12do_constructEPvj	0x4d03d
	_ZNK7android12SortedVectorINS_16key_value_pair_tIjjEEE10do_destroyEPvj	0x4d03d
	_ZNK7android12SortedVectorINS_16key_value_pair_tIjjEEE8do_splatEPvPKvj	0x4d099
	_ZNK7android12SortedVectorINS_16key_value_pair_tIjjEEE15do_move_forwardEPvPKvj	0x62d15
	_ZNK7android12SortedVectorINS_16key_value_pair_tIjjEEE16do_move_backwardEPvPKvj	0x62d15
	_ZNK7android12SortedVectorINS_16key_value_pair_tIjjEEE7do_copyEPvPKvj	0x62d1f
	_ZNK7android12SortedVectorINS_16key_value_pair_tIjjEEE10do_compareEPKvS5_	0x63883
	_ZN7android22NativeInputEventSender15sendMotionEventEjPKNS_11MotionEventE	0x63921
	_ZN7android22NativeInputEventSender12sendKeyEventEjPKNS_8KeyEventE	0x63a1d
	_ZN7android22NativeInputEventSender7disposeEv	0x63a9d
	_ZN7android22NativeInputEventSender10initializeEv	0x63ad7
	_ZN7android22NativeInputEventSenderD1Ev	0x63b49
	_ZN7android22NativeInputEventSenderD0Ev	0x63ba1
	_ZN7android22NativeInputEventSenderD2Ev	0x63bb3
	_ZN7android22NativeInputEventSender22receiveFinishedSignalsEP7_JNIEnv	0x63bf9
	_ZN7android22NativeInputEventSender11handleEventEiiPv	0x63d0d
	_ZN7android2spINS_22NativeInputEventSenderEEC2EPS1_	0x60eb1
	_ZN7android2spINS_22NativeInputEventSenderEEC1EPS1_	0x60eb1
	_ZN7android2spINS_22NativeInputEventSenderEED2Ev	0x4f55d
	_ZN7android2spINS_22NativeInputEventSenderEED1Ev	0x4f55d
	_ZN7android37android_view_MotionEvent_getNativePtrEP7_JNIEnvP8_jobject	0x68189
	_ZN7android30android_view_KeyEvent_toNativeEP7_JNIEnvP8_jobjectPNS_8KeyEventE	0x64aa1
	_ZN7android22NativeInputEventSenderC1EP7_JNIEnvP8_jobjectRKNS_2spINS_12InputChannelEEERKNS5_INS_12MessageQueueEEE	0x63e59
	_ZN7android22NativeInputEventSenderC2EP7_JNIEnvP8_jobjectRKNS_2spINS_12InputChannelEEERKNS5_INS_12MessageQueueEEE	0x63f81
	_ZTv0_n12_N7android22NativeInputEventSenderD0Ev	0x63fd1
	_ZTv0_n12_N7android22NativeInputEventSenderD1Ev	0x63fdd
	_ZNK7android6VectorINS_16key_value_pair_tIPNS_10InputEventEbEEE12do_constructEPvj	0x4d03d
	_ZNK7android6VectorINS_16key_value_pair_tIPNS_10InputEventEbEEE10do_destroyEPvj	0x4d03d
	_ZNK7android6VectorIPNS_10InputEventEE12do_constructEPvj	0x4d03d
	_ZNK7android6VectorIPNS_10InputEventEE10do_destroyEPvj	0x4d03d
	_ZNK7android6VectorIPNS_6LooperEE12do_constructEPvj	0x4d03d
	_ZNK7android6VectorIPNS_6LooperEE10do_destroyEPvj	0x4d03d
	_ZNK7android6VectorINS_16key_value_pair_tIPNS_10InputEventEbEEE8do_splatEPvPKvj	0x63fe9
	_ZNK7android6VectorIPNS_10InputEventEE8do_splatEPvPKvj	0x64003
	_ZNK7android6VectorIPNS_6LooperEE8do_splatEPvPKvj	0x64003
	_ZNK7android6VectorINS_16key_value_pair_tIPNS_10InputEventEbEEE15do_move_forwardEPvPKvj	0x62d15
	_ZNK7android6VectorINS_16key_value_pair_tIPNS_10InputEventEbEEE16do_move_backwardEPvPKvj	0x62d15
	_ZNK7android6VectorIPNS_10InputEventEE15do_move_forwardEPvPKvj	0x64015
	_ZNK7android6VectorIPNS_10InputEventEE16do_move_backwardEPvPKvj	0x64015
	_ZNK7android6VectorIPNS_6LooperEE15do_move_forwardEPvPKvj	0x64015
	_ZNK7android6VectorIPNS_6LooperEE16do_move_backwardEPvPKvj	0x64015
	_ZNK7android6VectorINS_16key_value_pair_tIPNS_10InputEventEbEEE7do_copyEPvPKvj	0x62d1f
	_ZNK7android6VectorIPNS_10InputEventEE7do_copyEPvPKvj	0x6401f
	_ZNK7android6VectorIPNS_6LooperEE7do_copyEPvPKvj	0x6401f
	_ZN7android10InputQueue12attachLooperEPNS_6LooperEiPFiiiPvES3_	0x64149
	_ZN7android10InputQueue18detachLooperLockedEv	0x6419d
	_ZN7android10InputQueue12detachLooperEv	0x641c5
	_ZN7android10InputQueue9hasEventsEv	0x641e5
	_ZN7android10InputQueue8getEventEPPNS_10InputEventE	0x64209
	_ZN7android10InputQueue17recycleInputEventEPNS_10InputEventE	0x642c9
	_ZN7android10InputQueue14createKeyEventEv	0x642cf
	_ZN7android10InputQueue17createMotionEventEv	0x642d5
	_ZN7android10InputQueue12enqueueEventEPNS_10InputEventE	0x642dd
	_ZN7android2spINS_14MessageHandlerEED2Ev	0x4f55d
	_ZN7android2spINS_14MessageHandlerEED1Ev	0x4f55d
	_ZN7android10InputQueue11finishEventEPNS_10InputEventEb	0x64405
	_ZN7android10InputQueue16preDispatchEventEPNS_10InputEventE	0x6445b
	_ZN7android2spINS_6LooperEEC2ERKS2_	0x626a1
	_ZN7android2spINS_6LooperEEC1ERKS2_	0x626a1
	_ZN7android2wpINS_14MessageHandlerEEC2INS_10InputQueueEEEPT_	0x64489
	_ZN7android2wpINS_14MessageHandlerEEC1INS_10InputQueueEEEPT_	0x64489
	_ZN7android2spINS_18WeakMessageHandlerEED2Ev	0x4f55d
	_ZN7android2spINS_18WeakMessageHandlerEED1Ev	0x4f55d
	_ZN7android10InputQueueC1EP8_jobjectRKNS_2spINS_6LooperEEEii	0x64511
	_ZN7android10InputQueue11createQueueEP8_jobjectRKNS_2spINS_6LooperEEE	0x645bd
	_ZN7android10InputQueueC2EP8_jobjectRKNS_2spINS_6LooperEEEii	0x64625
	_ZN7android2spINS_14MessageHandlerEEC2INS_18WeakMessageHandlerEEERKNS0_IT_EE	0x646cd
	_ZN7android2spINS_14MessageHandlerEEC1INS_18WeakMessageHandlerEEERKNS0_IT_EE	0x646cd
	_ZN7android10InputQueueD1Ev	0x646e9
	_ZN7android10InputQueueD0Ev	0x64789
	_ZN7android10InputQueueD2Ev	0x6479b
	_ZN7android2spINS_10InputQueueEEC2EPS1_	0x60eb1
	_ZN7android2spINS_10InputQueueEEC1EPS1_	0x60eb1
	_ZN7android2spINS_10InputQueueEED2Ev	0x4f55d
	_ZN7android2spINS_10InputQueueEED1Ev	0x4f55d
	_ZN7android10InputQueue13handleMessageERKNS_7MessageE	0x6492d
	_ZTv0_n12_N7android10InputQueueD0Ev	0x649cd
	_ZTv0_n12_N7android10InputQueueD1Ev	0x649d9
	_ZN7android29android_view_KeyEvent_recycleEP7_JNIEnvP8_jobject	0x64b7d
	_ZNK7android6VectorINS_8KeyEventEE12do_constructEPvj	0x64d3d
	_ZNK7android6VectorINS_8KeyEventEE10do_destroyEPvj	0x64d5d
	_ZN7android2spINS_15KeyCharacterMapEEC2ERKS2_	0x626a1
	_ZN7android2spINS_15KeyCharacterMapEEC1ERKS2_	0x626a1
	_ZN7android2spINS_15KeyCharacterMapEED2Ev	0x4fb8d
	_ZN7android2spINS_15KeyCharacterMapEED1Ev	0x4fb8d
	_ZNK7android6VectorINS_8KeyEventEE7do_copyEPvPKvj	0x65145
	_ZNK7android6VectorINS_8KeyEventEE8do_splatEPvPKvj	0x65163
	_ZNK7android6VectorINS_8KeyEventEE15do_move_forwardEPvPKvj	0x6517f
	_ZNK7android6VectorINS_8KeyEventEE16do_move_backwardEPvPKvj	0x651a9
	_ZN7android2spINS_13GraphicBufferEEC2ERKS2_	0x626a1
	_ZN7android2spINS_13GraphicBufferEEC1ERKS2_	0x626a1
	_ZN7android2spINS_13GraphicBufferEED2Ev	0x4fb8d
	_ZN7android2spINS_13GraphicBufferEED1Ev	0x4fb8d
	_ZN7android26graphicBufferForJavaObjectEP7_JNIEnvP8_jobject	0x6581d
	_ZNK7android6VectorIfE12do_constructEPvj	0x4d03d
	_ZNK7android6VectorIfE10do_destroyEPvj	0x4d03d
	_ZNK7android6VectorIfE8do_splatEPvPKvj	0x66539
	_ZNK7android6VectorIfE15do_move_forwardEPvPKvj	0x64015
	_ZNK7android6VectorIfE16do_move_backwardEPvPKvj	0x64015
	_ZNK7android6VectorIfE7do_copyEPvPKvj	0x6401f
	_ZN17JavaHeapBitmapRefC1EP7_JNIEnvP8SkBitmapP11_jbyteArray	0x78595
	_ZN17JavaHeapBitmapRefD1Ev	0x785ab
	_ZN11GraphicsJNI9SetPixelsEP7_JNIEnvP10_jintArrayiiiiiiRK8SkBitmapb	0x74add
	_ZN7android32SurfaceTexture_getSurfaceTextureEP7_JNIEnvP8_jobject	0x7d289
	_ZN7android10uirenderer14OpenGLRenderer9saveLayerEffffP7SkPainti	0x66ee9
	_ZN7android9SingletonINS_10uirenderer6CachesEE11hasInstanceEv	0x66ffd
	_ZN7android9SingletonINS_10uirenderer6CachesEE11getInstanceEv	0x67031
	_ZN7android9SingletonINS_16TextLayoutEngineEE11getInstanceEv	0x67129
	_ZN7android16TextLayoutEngineC1Ev	0x7f325
	_ZN7android2spINS_15TextLayoutValueEED2Ev	0x4fb8d
	_ZN7android2spINS_15TextLayoutValueEED1Ev	0x4fb8d
	_ZN7android16TextLayoutEngine8getValueEPK7SkPaintPKtiiii	0x7f25d
	_ZN7android35android_graphics_Matrix_getSkMatrixEP7_JNIEnvP8_jobject	0x793a1
	__ctzdi2	0x87cec
	_ZN7android32android_view_MotionEvent_recycleEP7_JNIEnvP8_jobject	0x68239
	_ZN7android38android_view_PointerIcon_getSystemIconEP7_JNIEnvP8_jobjecti	0x68489
	_ZN7android29android_view_PointerIcon_loadEP7_JNIEnvP8_jobjectS3_PNS_11PointerIconE	0x684e5
	_ZN11GraphicsJNI15getNativeBitmapEP7_JNIEnvP8_jobject	0x7822d
	_ZN7android39android_view_PointerIcon_loadSystemIconEP7_JNIEnvP8_jobjectiPNS_11PointerIconE	0x685d9
	_ZN7android20VelocityTrackerStateC2EPKc	0x68709
	_ZN7android20VelocityTrackerStateC1EPKc	0x68709
	_ZN7android20VelocityTrackerState5clearEv	0x68767
	_ZN7android20VelocityTrackerState11addMovementEPKNS_11MotionEventE	0x68781
	_ZN7android20VelocityTrackerState22computeCurrentVelocityEif	0x687b9
	_ZN7android20VelocityTrackerState11getVelocityEiPfS1_	0x6888d
	_ZN7android20VelocityTrackerState12getEstimatorEiPNS_15VelocityTracker9EstimatorE	0x6890d
	_ZN7android36android_os_Debug_getLocalObjectCountEP7_JNIEnvP8_jobject	0x7114d
	_ZN7android36android_os_Debug_getProxyObjectCountEP7_JNIEnvP8_jobject	0x71159
	_ZN7android36android_os_Debug_getDeathObjectCountEP7_JNIEnvP8_jobject	0x71165
	_ZN7android18NativeMessageQueue14raiseExceptionEP7_JNIEnvPKcP11_jthrowable	0x6a4a9
	_ZN7android12MessageQueueC2Ev	0x6a53d
	_ZN7android12MessageQueueC1Ev	0x6a53d
	_ZN7android18NativeMessageQueue8pollOnceEP7_JNIEnvi	0x6a593
	_ZN7android18NativeMessageQueue4wakeEv	0x6a5d1
	_ZN7android12MessageQueueD2Ev	0x6a655
	_ZN7android12MessageQueueD1Ev	0x6a655
	_ZN7android12MessageQueueD0Ev	0x6a675
	_ZN7android18NativeMessageQueueD2Ev	0x6a689
	_ZN7android18NativeMessageQueueD1Ev	0x6a689
	_ZN7android18NativeMessageQueueD0Ev	0x6a6a1
	_ZN7android18NativeMessageQueueC2Ev	0x6a6b5
	_ZN7android18NativeMessageQueueC1Ev	0x6a6b5
	_ZN7android23signalExceptionForErrorEP7_JNIEnvP8_jobjectib	0x70f09
	_ZN7android28set_dalvik_blockguard_policyEP7_JNIEnvi	0x70e1d
	_ZN7android22createJavaParcelObjectEP7_JNIEnv	0x6aeb5
	_ZN7android23recycleJavaParcelObjectEP7_JNIEnvP8_jobject	0x6aec5
	_ZNK7android6VectorINS_7String8EE15do_move_forwardEPvPKvj	0x64015
	_ZNK7android6VectorINS_7String8EE16do_move_backwardEPvPKvj	0x64015
	_ZNK7android6VectorINS_7String8EE7do_copyEPvPKvj	0x6beb9
	_ZNK7android6VectorINS_7String8EE8do_splatEPvPKvj	0x6bed7
	_ZNK7android6VectorINS_7String8EE10do_destroyEPvj	0x6bef3
	_ZNK7android6VectorINS_7String8EE12do_constructEPvj	0x6bf0b
	_ZN7android14nio_getPointerEP7_JNIEnvP8_jobjectPP7_jarray	0x6d651
	_ZN7android18nio_releasePointerEP7_JNIEnvP7_jarrayPvh	0x6d6b1
	_ZN7android17AutoBufferPointerC2EP7_JNIEnvP8_jobjecth	0x6d6c5
	_ZN7android17AutoBufferPointerC1EP7_JNIEnvP8_jobjecth	0x6d6c5
	_ZN7android17AutoBufferPointerD2Ev	0x6d6df
	_ZN7android17AutoBufferPointerD1Ev	0x6d6df
	_ZN7android23newParcelFileDescriptorEP7_JNIEnvP8_jobject	0x70e0d
	_ZN7android2spI18JavaDeathRecipientEC2EPS1_	0x60eb1
	_ZN7android2spI18JavaDeathRecipientEC1EPS1_	0x60eb1
	_ZN7android2spI18JavaDeathRecipientED2Ev	0x4f55d
	_ZN7android2spI18JavaDeathRecipientED1Ev	0x4f55d
	_ZN18DeathRecipientList6removeERKN7android2spI18JavaDeathRecipientEE	0x71457
	_ZN7android2spI18DeathRecipientListED2Ev	0x4fb8d
	_ZN7android2spI18DeathRecipientListED1Ev	0x4fb8d
	_ZN7android2spI18JavaDeathRecipientEC2ERKS2_	0x646cd
	_ZN7android2spI18JavaDeathRecipientEC1ERKS2_	0x646cd
	_ZN18DeathRecipientList4findEP8_jobject	0x714dd
	_ZN18DeathRecipientList3addERKN7android2spI18JavaDeathRecipientEE	0x7156f
	_ZN7android2spINS_12ProcessStateEED2Ev	0x4f55d
	_ZN7android2spINS_12ProcessStateEED1Ev	0x4f55d
	_ZN7android2spINS_7IBinder14DeathRecipientEED2Ev	0x4f55d
	_ZN7android2spINS_7IBinder14DeathRecipientEED1Ev	0x4f55d
	_ZN18DeathRecipientListD2Ev	0x71905
	_ZN18DeathRecipientListD1Ev	0x71905
	_ZN18DeathRecipientListD0Ev	0x71965
	_ZN18DeathRecipientListC2Ev	0x71999
	_ZN18DeathRecipientListC1Ev	0x71999
	_ZNK7android6VectorIiE12do_constructEPvj	0x4d03d
	_ZNK7android6VectorIiE10do_destroyEPvj	0x4d03d
	_ZNK7android6VectorIiE8do_splatEPvPKvj	0x64003
	_ZNK7android6VectorIiE15do_move_forwardEPvPKvj	0x64015
	_ZNK7android6VectorIiE16do_move_backwardEPvPKvj	0x64015
	_ZNK7android6VectorIiE7do_copyEPvPKvj	0x6401f
	_Z34android_os_Process_sendSignalQuietP7_JNIEnvP8_jobjectii	0x72709
	_Z28android_os_Process_setOomAdjP7_JNIEnvP8_jobjectii	0x72715
	_Z29android_os_Process_sendSignalP7_JNIEnvP8_jobjectii	0x72835
	_Z25android_os_Process_setGidP7_JNIEnvP8_jobjecti	0x72869
	_Z25android_os_Process_setUidP7_JNIEnvP8_jobjecti	0x7287b
	_Z32android_os_Process_setSwappinessP7_JNIEnvP8_jobjectih	0x7288d
	_Z36android_os_Process_getThreadPriorityP7_JNIEnvP8_jobjecti	0x729b9
	_Z37android_os_Process_setThreadSchedulerP7_JNIEnvP7_jclassiii	0x729e9
	_Z36android_os_Process_setThreadPriorityP7_JNIEnvP8_jobjectii	0x72a81
	_Z43android_os_Process_setCallingThreadPriorityP7_JNIEnvP8_jobjecti	0x72ab5
	_Z34android_os_Process_getProcessGroupP7_JNIEnvP8_jobjecti	0x72ad1
	_Z34android_os_Process_setProcessGroupP7_JNIEnvP8_jobjectii	0x72af1
	_Z33android_os_Process_setThreadGroupP7_JNIEnvP8_jobjectii	0x72bfd
	_Z26android_os_Process_getPidsP7_JNIEnvP8_jobjectP8_jstringP10_jintArray	0x72c1d
	_Z32android_os_Process_getGidForNameP7_JNIEnvP8_jobjectP8_jstring	0x72d7d
	_Z32android_os_Process_getUidForNameP7_JNIEnvP8_jobjectP8_jstring	0x72e09
	_Z27android_os_Process_setArgV0P7_JNIEnvP8_jobjectP8_jstring	0x72e95
	_Z37android_os_Process_parseProcLineArrayP7_JNIEnvP8_jobjectPciiP10_jintArrayP13_jobjectArrayP11_jlongArrayP12_jfloatArray	0x72f11
	_Z31android_os_Process_readProcFileP7_JNIEnvP8_jobjectP8_jstringP10_jintArrayP13_jobjectArrayP11_jlongArrayP12_jfloatArray	0x731a9
	_Z32android_os_Process_parseProcLineP7_JNIEnvP8_jobjectP11_jbyteArrayiiP10_jintArrayP13_jobjectArrayP11_jlongArrayP12_jfloatArray	0x7326d
	_Z39android_os_Process_setApplicationObjectP7_JNIEnvP8_jobjectS2_	0x732c3
	_Z37android_os_Process_getPidsForCommandsP7_JNIEnvP8_jobjectP13_jobjectArray	0x73329
	_Z32android_os_Process_readProcLinesP7_JNIEnvP8_jobjectP8_jstringP13_jobjectArrayP11_jlongArray	0x73539
	_ZN17AutoDecoderCancelC2EP8_jobjectP14SkImageDecoder	0x73d1d
	_ZN17AutoDecoderCancelC1EP8_jobjectP14SkImageDecoder	0x73d1d
	_ZN17AutoDecoderCancelD2Ev	0x73d5d
	_ZN17AutoDecoderCancelD1Ev	0x73d5d
	_ZN17AutoDecoderCancel13RequestCancelEP8_jobject	0x73d95
	_ZN18JavaPixelAllocatorC1EP7_JNIEnv	0x78551
	_ZN11GraphicsJNI12createBitmapEP7_JNIEnvP8SkBitmapP11_jbyteArrayiS5_P10_jintArrayi	0x7829d
	_Z9doThrowREP7_JNIEnvPKc	0x62efd
	_ZN11GraphicsJNI20allocateJavaPixelRefEP7_JNIEnvP8SkBitmapP12SkColorTable	0x78465
	_Z29CreateJavaOutputStreamAdaptorP7_JNIEnvP8_jobjectP11_jbyteArray	0x779f1
	_Z11doThrowOOMEP7_JNIEnvPKc	0x77cd1
	_Z13doThrowAIOOBEP7_JNIEnv	0x77ca1
	_ZN15AndroidPixelRefC1ERS_RK11SkImageInfojP12SkColorTable	0x78401
	_Z17getMimeTypeStringP7_JNIEnvN14SkImageDecoder6FormatE	0x74ee1
	_ZN11GraphicsJNI21getNativeBitmapConfigEP7_JNIEnvP8_jobject	0x7823d
	_ZN7android16nullObjectReturnEPKc	0x7f71d
	_ZN11GraphicsJNI28getBitmapAllocationByteCountEP7_JNIEnvP8_jobject	0x78329
	_ZN11GraphicsJNI9set_jrectEP7_JNIEnvP8_jobjectiiii	0x77ed5
	_ZN11GraphicsJNI12reinitBitmapEP7_JNIEnvP8_jobjectP8SkBitmapb	0x7830d
	_ZN17AutoJavaByteArrayC1EP7_JNIEnvP11_jbyteArrayi	0x77e3b
	_ZN17AutoJavaByteArrayD1Ev	0x68b63
	_ZN7android17CopyAssetToStreamEPNS_5AssetE	0x7f669
	_ZN7android18AssetStreamAdaptorC1EPNS_5AssetENS0_8OwnAssetENS0_13HasMemoryBaseE	0x7f639
	_Z28CreateJavaInputStreamAdaptorP7_JNIEnvP8_jobjectP11_jbyteArray	0x7793d
	_Z10doThrowIOEP7_JNIEnvPKc	0x77ce1
	_ZN18AutoJavaFloatArrayC1EP7_JNIEnvP12_jfloatArrayi9JNIAccess	0x77d21
	_ZN16AutoJavaIntArrayC1EP7_JNIEnvP10_jintArrayi	0x77d83
	_ZN18AutoJavaShortArrayC1EP7_JNIEnvP12_jshortArrayi9JNIAccess	0x77dd9
	_ZN18AutoJavaShortArrayD1Ev	0x77e21
	_ZN16AutoJavaIntArrayD1Ev	0x77dbf
	_ZN18AutoJavaFloatArrayD1Ev	0x77d69
	_ZN11GraphicsJNI14jrectf_to_rectEP7_JNIEnvP8_jobjectP6SkRect	0x77ff9
	_ZN11GraphicsJNI15getNativeCanvasEP7_JNIEnvP8_jobject	0x7825d
	_ZN11GraphicsJNI13jrect_to_rectEP7_JNIEnvP8_jobjectP6SkRect	0x78061
	_ZN11GraphicsJNI14getNativePaintEP7_JNIEnvP8_jobject	0x7826d
	_Z10doThrowISEP7_JNIEnvPKc	0x77cc1
	_ZN7android10TextLayout14drawTextOnPathEP7SkPaintPKtiiffP6SkPathP8SkCanvas	0x7d9e7
	_ZN11GraphicsJNI14jrect_to_irectEP7_JNIEnvP8_jobjectP7SkIRect	0x77f35
	_ZN11GraphicsJNI14irect_to_jrectERK7SkIRectP7_JNIEnvP8_jobject	0x77f9d
	_ZN7android16TextLayoutEngine11purgeCachesEv	0x7eb6b
	_Z19CopyJavaInputStreamP7_JNIEnvP8_jobjectP11_jbyteArray	0x77985
	_ZN15AndroidPixelRef9globalRefEPv	0x77b4d
	_ZN15AndroidPixelRef11globalUnrefEv	0x77be1
	_ZN15AndroidPixelRefD2Ev	0x77c45
	_ZN15AndroidPixelRefD1Ev	0x77c45
	_ZN15AndroidPixelRefD0Ev	0x77c89
	_ZN11GraphicsJNI12hasExceptionEP7_JNIEnv	0x77cf1
	_ZN18AutoJavaFloatArrayC2EP7_JNIEnvP12_jfloatArrayi9JNIAccess	0x77d21
	_ZN18AutoJavaFloatArrayD2Ev	0x77d69
	_ZN16AutoJavaIntArrayC2EP7_JNIEnvP10_jintArrayi	0x77d83
	_ZN16AutoJavaIntArrayD2Ev	0x77dbf
	_ZN18AutoJavaShortArrayC2EP7_JNIEnvP12_jshortArrayi9JNIAccess	0x77dd9
	_ZN18AutoJavaShortArrayD2Ev	0x77e21
	_ZN17AutoJavaByteArrayC2EP7_JNIEnvP11_jbyteArrayi	0x77e3b
	_ZN17AutoJavaByteArrayD2Ev	0x68b63
	_ZN11GraphicsJNI9get_jrectEP7_JNIEnvP8_jobjectPiS4_S4_S4_	0x77e79
	_ZN11GraphicsJNI14rect_to_jrectfERK6SkRectP7_JNIEnvP8_jobject	0x780e9
	_ZN11GraphicsJNI16jpoint_to_ipointEP7_JNIEnvP8_jobjectP8SkIPoint	0x78145
	_ZN11GraphicsJNI16ipoint_to_jpointERK8SkIPointP7_JNIEnvP8_jobject	0x78179
	_ZN11GraphicsJNI16jpointf_to_pointEP7_JNIEnvP8_jobjectP7SkPoint	0x781ad
	_ZN11GraphicsJNI16point_to_jpointfERK7SkPointP7_JNIEnvP8_jobject	0x781f9
	_ZN11GraphicsJNI16getNativePictureEP7_JNIEnvP8_jobject	0x7827d
	_ZN11GraphicsJNI15getNativeRegionEP7_JNIEnvP8_jobject	0x7828d
	_ZN11GraphicsJNI25createBitmapRegionDecoderEP7_JNIEnvP21SkBitmapRegionDecoder	0x78339
	_ZN11GraphicsJNI12createRegionEP7_JNIEnvP8SkRegion	0x78365
	_ZN15AndroidPixelRefC2EP7_JNIEnvRK11SkImageInfoPvjP11_jbyteArrayP12SkColorTable	0x78395
	_ZN15AndroidPixelRefC1EP7_JNIEnvRK11SkImageInfoPvjP11_jbyteArrayP12SkColorTable	0x78395
	_ZN15AndroidPixelRefC2ERS_RK11SkImageInfojP12SkColorTable	0x78401
	_ZN15AndroidPixelRef13getStorageObjEv	0x78445
	_ZN15AndroidPixelRef14setLocalJNIRefEP11_jbyteArray	0x78451
	_ZN18JavaPixelAllocator13allocPixelRefEP8SkBitmapP12SkColorTable	0x78529
	_ZN18JavaPixelAllocatorC2EP7_JNIEnv	0x78551
	_ZN17JavaHeapBitmapRefC2EP7_JNIEnvP8SkBitmapP11_jbyteArray	0x78595
	_ZN17JavaHeapBitmapRefD2Ev	0x785ab
	_ZN7android26harfbuzzSkiaReferenceTableEP9hb_face_tjPv	0x78a79
	_ZN7android10createFontEP9hb_face_tP7SkPaintff	0x78ad5
	_Z13create_jmovieP7_JNIEnvP7SkMovie	0x794c1
	_Z14NinePatch_DrawP8SkCanvasRK6SkRectRK8SkBitmapRKN7android14Res_png_9patchEPK7SkPaintPP8SkRegion	0x79935
	_Z16calculateStretchffiii	0x798fd
	_ZN15NinePatchPeeker4peekEPKcPKvj	0x79f95
	_ZN7android10TextLayout18getTextRunAdvancesEP7SkPaintPKtiiiiPfS5_	0x7da3b
	_ZN7android10TextLayout11getTextPathEP7SkPaintPKtiiffP6SkPath	0x7dadf
	_ZN7android35android_SurfaceTexture_isInstanceOfEP7_JNIEnvP8_jobject	0x7d2e9
	_ZN7android24JNISurfaceTextureContextC2EP7_JNIEnvP8_jobjectP7_jclass	0x7d315
	_ZN7android24JNISurfaceTextureContextC1EP7_JNIEnvP8_jobjectP7_jclass	0x7d34d
	_ZN7android24JNISurfaceTextureContext9getJNIEnvEPb	0x7d389
	_ZN7android24JNISurfaceTextureContext9detachJNIEv	0x7d3ed
	_ZN7android24JNISurfaceTextureContext16onFrameAvailableEv	0x7d429
	_ZN7android24JNISurfaceTextureContextD1Ev	0x7d471
	_ZN7android24JNISurfaceTextureContextD0Ev	0x7d4e5
	_ZN7android24JNISurfaceTextureContextD2Ev	0x7d4f9
	_ZN7android2spINS_10GLConsumerEED2Ev	0x4f55d
	_ZN7android2spINS_10GLConsumerEED1Ev	0x4f55d
	_ZN7android38android_SurfaceTexture_getNativeWindowEP7_JNIEnvP8_jobject	0x7d6ff
	_ZN7android2spINS_11BufferQueueEED2Ev	0x4f55d
	_ZN7android2spINS_11BufferQueueEED1Ev	0x4f55d
	_ZN7android2spINS_12ConsumerBase22FrameAvailableListenerEED2Ev	0x4f55d
	_ZN7android2spINS_12ConsumerBase22FrameAvailableListenerEED1Ev	0x4f55d
	_ZTv0_n12_N7android24JNISurfaceTextureContextD0Ev	0x7d99f
	_ZTv0_n12_N7android24JNISurfaceTextureContextD1Ev	0x7d9ab
	_ZN7android10TextLayout11needsLayoutEPKtii	0x7d9b7
	_ZN7android10TextLayout10handleTextEP7SkPaintPKtiiffP6SkPath	0x7da91
	_ZN7android16TextLayoutEngineD2Ev	0x7daed
	_ZN7android16TextLayoutEngineD1Ev	0x7daed
	_ZNK7android12SortedVectorINS_16key_value_pair_tIjP9hb_face_tEEE12do_constructEPvj	0x4d03d
	_ZNK7android12SortedVectorINS_16key_value_pair_tIjP9hb_face_tEEE10do_destroyEPvj	0x4d03d
	_ZNK7android6VectorItE12do_constructEPvj	0x4d03d
	_ZNK7android6VectorItE10do_destroyEPvj	0x4d03d
	_ZNK7android12SortedVectorINS_16key_value_pair_tIjP9hb_face_tEEE8do_splatEPvPKvj	0x4d099
	_ZNK7android6VectorItE8do_splatEPvPKvj	0x7db2d
	_ZNK7android12SortedVectorINS_16key_value_pair_tIjP9hb_face_tEEE15do_move_forwardEPvPKvj	0x62d15
	_ZNK7android12SortedVectorINS_16key_value_pair_tIjP9hb_face_tEEE16do_move_backwardEPvPKvj	0x62d15
	_ZNK7android6VectorItE15do_move_forwardEPvPKvj	0x7db3f
	_ZNK7android6VectorItE16do_move_backwardEPvPKvj	0x7db3f
	_ZNK7android12SortedVectorINS_16key_value_pair_tIjP9hb_face_tEEE7do_copyEPvPKvj	0x62d1f
	_ZNK7android6VectorItE7do_copyEPvPKvj	0x7db49
	_ZN7android16TextLayoutEngineD0Ev	0x7db75
	_ZN7android14BasicHashtableINS_18TextLayoutCacheKeyENS_8LruCacheIS1_NS_2spINS_15TextLayoutValueEEEE5EntryEED2Ev	0x7db89
	_ZN7android14BasicHashtableINS_18TextLayoutCacheKeyENS_8LruCacheIS1_NS_2spINS_15TextLayoutValueEEEE5EntryEED1Ev	0x7db89
	_ZN7android14BasicHashtableINS_18TextLayoutCacheKeyENS_8LruCacheIS1_NS_2spINS_15TextLayoutValueEEEE5EntryEED0Ev	0x7dbb1
	_ZNK7android12SortedVectorINS_16key_value_pair_tIjP9hb_face_tEEE10do_compareEPKvS7_	0x63883
	_ZN7android16TextLayoutShaperD2Ev	0x7dc89
	_ZN7android16TextLayoutShaperD1Ev	0x7dc89
	_ZN7android16TextLayoutShaperD0Ev	0x7dcb5
	_ZN7android15TextLayoutCache4initEv	0x7dce5
	_ZN7android15TextLayoutCacheC2EPNS_16TextLayoutShaperE	0x7dd7d
	_ZN7android15TextLayoutCacheC1EPNS_16TextLayoutShaperE	0x7dd7d
	_ZN7android15TextLayoutCache14dumpCacheStatsEv	0x7de09
	_ZN7android18TextLayoutCacheKeyC2Ev	0x7df79
	_ZN7android18TextLayoutCacheKeyC1Ev	0x7df79
	_ZN7android18TextLayoutCacheKeyC2EPK7SkPaintPKtjjji	0x7dfb9
	_ZN7android18TextLayoutCacheKeyC1EPK7SkPaintPKtjjji	0x7dfb9
	_ZN7android18TextLayoutCacheKeyC2ERKS0_	0x7e03d
	_ZN7android18TextLayoutCacheKeyC1ERKS0_	0x7e03d
	_ZN7android18TextLayoutCacheKey7compareERKS0_S2_	0x7e097
	_ZNK7android14BasicHashtableINS_18TextLayoutCacheKeyENS_8LruCacheIS1_NS_2spINS_15TextLayoutValueEEEE5EntryEE16compareBucketKeyERKNS_18BasicHashtableImpl6BucketEPKv	0x7e15f
	_ZNK7android18TextLayoutCacheKey7getSizeEv	0x7e173
	_ZNK7android18TextLayoutCacheKey4hashEv	0x7e17b
	_ZNK7android15TextLayoutValue7getSizeEv	0x7e1c7
	_ZN7android15TextLayoutCacheclERNS_18TextLayoutCacheKeyERNS_2spINS_15TextLayoutValueEEE	0x7e1f5
	_ZN7android15TextLayoutValue14setElapsedTimeEj	0x7e231
	_ZN7android15TextLayoutValue14getElapsedTimeEv	0x7e235
	_ZN7android19utf16_to_code_pointEPKtjPi	0x7e239
	_ZN7android24utf16_to_code_point_prevEPKtjPi	0x7e287
	_ZN7android20code_point_to_scriptEj	0x7e2d5
	_ZN7android24hb_utf16_script_run_nextEPNS_9ScriptRunEPKtjPi	0x7e301
	_ZN7android24hb_utf16_script_run_prevEPNS_9ScriptRunEPKtjPi	0x7e38d
	_ZN7android16TextLayoutShaper17typefaceForScriptEPK7SkPaintP10SkTypeface11hb_script_t	0x7e429
	_ZN7android16TextLayoutShaper15isComplexScriptE11hb_script_t	0x7e439
	_ZN7android16TextLayoutShaper21referenceCachedHBFaceEP10SkTypeface	0x7e491
	_ZN7android16TextLayoutShaper12shapeFontRunEPK7SkPaint	0x7e4f1
	_ZN7android16TextLayoutShaper16computeRunValuesEPK7SkPaintPKtjjjbPNS_6VectorIfEEPfP6SkRectPNS6_ItEES8_	0x7e5d1
	_ZN7android16TextLayoutShaper13computeValuesEPK7SkPaintPKtjjjiPNS_6VectorIfEEPfP6SkRectPNS6_ItEES8_	0x7e859
	_ZN7android16TextLayoutShaper13computeValuesEPNS_15TextLayoutValueEPK7SkPaintPKtjjji	0x7ea7d
	_ZN7android16TextLayoutShaper11purgeCachesEv	0x7eab7
	_ZN7android9SingletonINS_16TextLayoutEngineEE11hasInstanceEv	0x7eae1
	_ZN7android9SingletonINS_16TextLayoutEngineEED2Ev	0x4d03d
	_ZN7android9SingletonINS_16TextLayoutEngineEED1Ev	0x4d03d
	_ZN7android9SingletonINS_16TextLayoutEngineEEC2Ev	0x4d03d
	_ZN7android9SingletonINS_16TextLayoutEngineEEC1Ev	0x4d03d
	_ZN7android8LruCacheINS_18TextLayoutCacheKeyENS_2spINS_15TextLayoutValueEEEE5clearEv	0x7eb11
	_ZN7android15TextLayoutCache11purgeCachesEv	0x7eb43
	_ZN7android2spINS_15TextLayoutValueEEC2ERKS2_	0x626a1
	_ZN7android2spINS_15TextLayoutValueEEC1ERKS2_	0x626a1
	_ZNK7android14BasicHashtableINS_18TextLayoutCacheKeyENS_8LruCacheIS1_NS_2spINS_15TextLayoutValueEEEE5EntryEE21initializeBucketEntryERNS_18BasicHashtableImpl6BucketEPKv	0x7eb71
	_ZNK7android14BasicHashtableINS_18TextLayoutCacheKeyENS_8LruCacheIS1_NS_2spINS_15TextLayoutValueEEEE5EntryEE18destroyBucketEntryERNS_18BasicHashtableImpl6BucketE	0x7ebab
	_ZN7android15TextLayoutValueC2Ej	0x7ebd5
	_ZN7android15TextLayoutValueC1Ej	0x7ebd5
	_ZN7android15TextLayoutCacheD2Ev	0x7ec75
	_ZN7android15TextLayoutCacheD1Ev	0x7ec75
	_ZN7android15TextLayoutCacheD0Ev	0x7ecc1
	_ZN7android8LruCacheINS_18TextLayoutCacheKeyENS_2spINS_15TextLayoutValueEEEE15detachFromCacheERNS5_5EntryE	0x7ecd3
	_ZN7android8LruCacheINS_18TextLayoutCacheKeyENS_2spINS_15TextLayoutValueEEEE12removeOldestEv	0x7ecf3
	_ZN7android8LruCacheINS_18TextLayoutCacheKeyENS_2spINS_15TextLayoutValueEEEE3putERKS1_RKS4_	0x7ed51
	_ZN7android15TextLayoutCache8getValueEPK7SkPaintPKtiiii	0x7ee71
	_ZN7android16TextLayoutShaperC2Ev	0x7f2fd
	_ZN7android16TextLayoutShaperC1Ev	0x7f2fd
	_ZN7android16TextLayoutEngineC2Ev	0x7f325
	_ZN7android18AssetStreamAdaptorD2Ev	0x7f4f1
	_ZN7android18AssetStreamAdaptorD1Ev	0x7f4f1
	_ZNK7android18AssetStreamAdaptor9getLengthEv	0x7f52d
	_ZNK7android18AssetStreamAdaptor7isAtEndEv	0x7f539
	_ZNK7android18AssetStreamAdaptor9duplicateEv	0x617e1
	_ZN7android18AssetStreamAdaptor4readEPvj	0x7f54d
	_ZN7android18AssetStreamAdaptor6rewindEv	0x7f5f1
	_ZN7android18AssetStreamAdaptorD0Ev	0x7f625
	_ZN7android18AssetStreamAdaptorC2EPNS_5AssetENS0_8OwnAssetENS0_13HasMemoryBaseE	0x7f639
	_ZN21Yuv420SpToJpegEncoder21configSamplingFactorsEP20jpeg_compress_struct	0x7f805
	_ZN20Yuv422IToJpegEncoder21configSamplingFactorsEP20jpeg_compress_struct	0x7f827
	_ZN16YuvToJpegEncoder6createEiPi	0x7f869
	_ZN16YuvToJpegEncoderC2EPi	0x7f8ad
	_ZN16YuvToJpegEncoderC1EPi	0x7f8ad
	_ZN16YuvToJpegEncoder21setJpegCompressStructEP20jpeg_compress_structiii	0x7f8c9
	_ZN16YuvToJpegEncoder6encodeEP9SkWStreamPviiPii	0x7f909
	_ZN21Yuv420SpToJpegEncoderC2EPi	0x7fa71
	_ZN21Yuv420SpToJpegEncoderC1EPi	0x7fa71
	_ZN21Yuv420SpToJpegEncoder12deinterleaveEPhS0_S0_iii	0x7fa85
	_ZN21Yuv420SpToJpegEncoder8compressEP20jpeg_compress_structPhPi	0x7faed
	_ZN20Yuv422IToJpegEncoderC2EPi	0x7fbc1
	_ZN20Yuv422IToJpegEncoderC1EPi	0x7fbc1
	_ZN20Yuv422IToJpegEncoder12deinterleaveEPhS0_S0_S0_iii	0x7fbd5
	_ZN20Yuv422IToJpegEncoder8compressEP20jpeg_compress_structPhPi	0x7fc61
	_ZNK7android12SortedVectorIP27audiorecord_callback_cookieE12do_constructEPvj	0x4d03d
	_ZNK7android12SortedVectorIP27audiorecord_callback_cookieE10do_destroyEPvj	0x4d03d
	_ZNK7android12SortedVectorIP27audiorecord_callback_cookieE8do_splatEPvPKvj	0x64003
	_ZNK7android12SortedVectorIP27audiorecord_callback_cookieE15do_move_forwardEPvPKvj	0x64015
	_ZNK7android12SortedVectorIP27audiorecord_callback_cookieE16do_move_backwardEPvPKvj	0x64015
	_ZNK7android12SortedVectorIP27audiorecord_callback_cookieE7do_copyEPvPKvj	0x6401f
	_ZNK7android12SortedVectorIP27audiorecord_callback_cookieE10do_compareEPKvS5_	0x80041
	_Z40android_media_translateRecorderErrorCodei	0x80121
	_ZN7android2spINS_11AudioRecordEEC2EPS1_	0x80249
	_ZN7android2spINS_11AudioRecordEEC1EPS1_	0x80249
	_ZN7android2spINS_11AudioRecordEED2Ev	0x4fb8d
	_ZN7android2spINS_11AudioRecordEED1Ev	0x4fb8d
	_ZNK7android12SortedVectorIP26audiotrack_callback_cookieE12do_constructEPvj	0x4d03d
	_ZNK7android12SortedVectorIP26audiotrack_callback_cookieE10do_destroyEPvj	0x4d03d
	_ZNK7android12SortedVectorIP26audiotrack_callback_cookieE8do_splatEPvPKvj	0x64003
	_ZNK7android12SortedVectorIP26audiotrack_callback_cookieE15do_move_forwardEPvPKvj	0x64015
	_ZNK7android12SortedVectorIP26audiotrack_callback_cookieE16do_move_backwardEPvPKvj	0x64015
	_ZNK7android12SortedVectorIP26audiotrack_callback_cookieE7do_copyEPvPKvj	0x6401f
	_ZNK7android12SortedVectorIP26audiotrack_callback_cookieE10do_compareEPKvS5_	0x80041
	_Z32android_media_translateErrorCodei	0x80121
	_Z37android_media_getIntConstantFromClassP7_JNIEnvP7_jclassPKcS4_Pi	0x80ffd
	_ZN7android2spINS_7IMemoryEED2Ev	0x4f55d
	_ZN7android2spINS_7IMemoryEED1Ev	0x4f55d
	_Z12writeToTrackRKN7android2spINS_10AudioTrackEEEiPaii	0x8115d
	_ZN7android2spINS_10AudioTrackEEC2EPS1_	0x80249
	_ZN7android2spINS_10AudioTrackEEC1EPS1_	0x80249
	_ZN7android2spINS_10AudioTrackEED2Ev	0x4fb8d
	_ZN7android2spINS_10AudioTrackEED1Ev	0x4fb8d
	_ZN7android11BnInterfaceINS_20IRemoteDisplayClientEE10onAsBinderEv	0x82639
	_ZN7android2spINS_14IRemoteDisplayEED2Ev	0x4f55d
	_ZN7android2spINS_14IRemoteDisplayEED1Ev	0x4f55d
	_ZN7android2spINS_25NativeRemoteDisplayClientEED2Ev	0x4f55d
	_ZN7android2spINS_25NativeRemoteDisplayClientEED1Ev	0x4f55d
	_ZN16JNICameraContext17postDataTimestampExiRKN7android2spINS0_7IMemoryEEE	0x82e19
	_ZNK7android6VectorIP11_jbyteArrayE12do_constructEPvj	0x4d03d
	_ZNK7android6VectorIP11_jbyteArrayE10do_destroyEPvj	0x4d03d
	_ZNK7android6VectorIP11_jbyteArrayE8do_splatEPvPKvj	0x64003
	_ZNK7android6VectorIP11_jbyteArrayE15do_move_forwardEPvPKvj	0x64015
	_ZNK7android6VectorIP11_jbyteArrayE16do_move_backwardEPvPKvj	0x64015
	_ZNK7android6VectorIP11_jbyteArrayE7do_copyEPvPKvj	0x6401f
	_ZN16JNICameraContext6notifyEiii	0x82f65
	_ZNK16JNICameraContext33isRawImageCallbackBufferAvailableEv	0x82fff
	_ZN16JNICameraContext17getCallbackBufferEP7_JNIEnvPN7android6VectorIP11_jbyteArrayEEj	0x83009
	_ZN16JNICameraContext12postMetadataEP7_JNIEnviP21camera_frame_metadata	0x83071
	_ZN16JNICameraContext17addCallbackBufferEP7_JNIEnvP11_jbyteArrayi	0x831a9
	_ZN16JNICameraContext22clearCallbackBuffers_lEP7_JNIEnvPN7android6VectorIP11_jbyteArrayEE	0x83281
	_ZN16JNICameraContext22clearCallbackBuffers_lEP7_JNIEnv	0x832a5
	_ZN16JNICameraContext7releaseEv	0x832c3
	_ZN16JNICameraContext15setCallbackModeEP7_JNIEnvbb	0x83335
	_ZN7android2spINS_6CameraEED2Ev	0x4f55d
	_ZN7android2spINS_6CameraEED1Ev	0x4f55d
	_ZN7android2spINS_6CameraEEaSERKS2_	0x83581
	_Z17get_native_cameraP7_JNIEnvP8_jobjectPP16JNICameraContext	0x835b1
	_ZN16JNICameraContextC1EP7_JNIEnvP8_jobjectP7_jclassRKN7android2spINS6_6CameraEEE	0x83bed
	_ZN16JNICameraContextC2EP7_JNIEnvP8_jobjectP7_jclassRKN7android2spINS6_6CameraEEE	0x83dc9
	_ZN7android2spINS_11IMemoryHeapEED2Ev	0x4f55d
	_ZN7android2spINS_11IMemoryHeapEED1Ev	0x4f55d
	_ZN16JNICameraContext11copyAndPostEP7_JNIEnvRKN7android2spINS2_7IMemoryEEEi	0x83e61
	_ZN16JNICameraContext8postDataEiRKN7android2spINS0_7IMemoryEEEP21camera_frame_metadata	0x83f79
	_ZN7android2spINS_7SurfaceEEaSERKS2_	0x84019
	_ZN7android2spINS_22IGraphicBufferProducerEEaSERKS2_	0x83581
	_ZN7android9SingletonINS_13SensorManagerEE11getInstanceEv	0x84b69
	_ZN7android2spINS_16SensorEventQueueEED2Ev	0x4fb8d
	_ZN7android2spINS_16SensorEventQueueEED1Ev	0x4fb8d
	_ZN7android2spINS_16SensorEventQueueEEC2ERKS2_	0x626a1
	_ZN7android2spINS_16SensorEventQueueEEC1ERKS2_	0x626a1
	_ZN7android2spINS_8ReceiverEEC2EPS1_	0x60eb1
	_ZN7android2spINS_8ReceiverEEC1EPS1_	0x60eb1
	_ZN7android2spINS_8ReceiverEED2Ev	0x4f55d
	_ZN7android2spINS_8ReceiverEED1Ev	0x4f55d
	_Z22get_device_from_objectP7_JNIEnvP8_jobject	0x85659
	_Z23get_request_from_objectP7_JNIEnvP8_jobject	0x85a99
	_ZN7android2spINS_7ObbFileEED2Ev	0x4fb8d
	_ZN7android2spINS_7ObbFileEED1Ev	0x4fb8d
	_ZN7android33android_Configuration_getFromJavaEP7_JNIEnvP8_jobjectP14AConfiguration	0x87385
	_ZNK7android6VectorINS_10stats_lineEE12do_constructEPvj	0x4d03d
	_ZNK7android6VectorINS_10stats_lineEE10do_destroyEPvj	0x4d03d
	_ZNK7android6VectorINS_10stats_lineEE7do_copyEPvPKvj	0x8768d
	_ZNK7android6VectorINS_10stats_lineEE8do_splatEPvPKvj	0x876ad
	_ZNK7android6VectorINS_10stats_lineEE15do_move_forwardEPvPKvj	0x876cd
	_ZNK7android6VectorINS_10stats_lineEE16do_move_backwardEPvPKvj	0x8768d
Module(name="libmemtrack.so", base_address=0x401ee000, size=12288, path="/system/lib/libmemtrack.so")
	func_name	RVA
	memtrack_init	0x675
	memtrack_proc_new	0x6c5
	memtrack_proc_destroy	0x6dd
	memtrack_proc_get	0x701
	memtrack_proc_graphics_total	0x781
	memtrack_proc_graphics_pss	0x795
	memtrack_proc_gl_total	0x7a9
	memtrack_proc_gl_pss	0x7bb
	memtrack_proc_other_total	0x7cd
	memtrack_proc_other_pss	0x7f1
Module(name="libhardware.so", base_address=0x401f1000, size=12288, path="/system/lib/libhardware.so")
	func_name	RVA
	hw_get_module_by_class	0x64d
	hw_get_module	0x855
Module(name="libandroidfw.so", base_address=0x401f4000, size=139264, path="/system/lib/libandroidfw.so")
	func_name	RVA
	_ZN7android16_CompressedAsset4readEPvj	0xc303
	_ZN7android20StreamingZipInflater4readEPvj	0x16239
	_ZN7android10_FileAsset4readEPvj	0xc369
	_ZN7android16_CompressedAsset9getBufferEb	0xc425
	_ZN7android9ZipFileRO13inflateBufferEPvPKvjj	0x16ddd
	_ZN7android8ZipUtils15inflateToBufferEiPvll	0x171c9
	_ZN7android20StreamingZipInflaterD1Ev	0x160ed
	_ZNK7android10_FileAsset18openFileDescriptorEPxS1_	0xc4b1
	_ZN7android16_CompressedAsset5closeEv	0xc519
	_ZN7android10_FileAsset5closeEv	0xc55b
	_ZN7android5AssetD2Ev	0xc5a9
	_ZN7android5AssetD1Ev	0xc5a9
	_ZN7android5AssetD0Ev	0xc625
	_ZN7android16_CompressedAssetD2Ev	0xc639
	_ZN7android16_CompressedAssetD1Ev	0xc639
	_ZN7android16_CompressedAssetD0Ev	0xc659
	_ZN7android10_FileAssetD2Ev	0xc66d
	_ZN7android10_FileAssetD1Ev	0xc66d
	_ZN7android10_FileAssetD0Ev	0xc68d
	_ZN7android5Asset14getGlobalCountEv	0xc6a1
	_ZN7android5Asset19getAssetAllocationsEv	0xc6c9
	_ZN7android5AssetC2Ev	0xc799
	_ZN7android5AssetC1Ev	0xc799
	_ZN7android5Asset10handleSeekExixx	0xc7fd
	_ZN7android16_CompressedAsset4seekExi	0xc881
	_ZN7android20StreamingZipInflater12seekAbsoluteEx	0x16359
	_ZN7android10_FileAsset4seekExi	0xc8c7
	_ZN7android10_FileAssetC2Ev	0xc931
	_ZN7android10_FileAssetC1Ev	0xc931
	_ZN7android5Asset25createFromUncompressedMapEPNS_7FileMapENS0_10AccessModeE	0xc965
	_ZN7android10_FileAsset9openChunkEPKcixj	0xc995
	_ZN7android5Asset14createFromFileEPKcNS0_10AccessModeE	0xca61
	_ZN7android10_FileAsset9openChunkEPNS_7FileMapE	0xcae9
	_ZN7android10_FileAsset15ensureAlignmentEPNS_7FileMapE	0xcb05
	_ZN7android10_FileAsset9getBufferEb	0xcb45
	_ZN7android16_CompressedAssetC2Ev	0xcc79
	_ZN7android16_CompressedAssetC1Ev	0xcc79
	_ZN7android16_CompressedAsset9openChunkEixijj	0xccb5
	_ZN7android20StreamingZipInflaterC1Eixjj	0x1618d
	_ZN7android5Asset24createFromCompressedFileEPKcNS0_10AccessModeE	0xcd09
	_ZN7android8ZipUtils11examineGzipEP7__sFILEPiPlS4_Pm	0x17451
	_ZN7android16_CompressedAsset9openChunkEPNS_7FileMapEij	0xcddd
	_ZN7android20StreamingZipInflaterC1EPNS_7FileMapEj	0x1615f
	_ZN7android5Asset23createFromCompressedMapEPNS_7FileMapEijNS0_10AccessModeE	0xce2d
	_ZN7android8AssetDir8FileInfo9findEntryEPKNS_12SortedVectorIS1_EERKNS_7String8E	0xceb7
	_ZNK7android6VectorINS_2spINS_12AssetManager9SharedZipEEEE12do_constructEPvj	0xcf0d
	_ZNK7android6VectorINS_7String8EE12do_constructEPvj	0xcf35
	_ZNK7android6VectorINS_7String8EE10do_destroyEPvj	0xcf4d
	_ZNK7android6VectorINS_7String8EE15do_move_forwardEPvPKvj	0xcf65
	_ZNK7android6VectorINS_7String8EE16do_move_backwardEPvPKvj	0xcf65
	_ZNK7android6VectorINS_7String8EE7do_copyEPvPKvj	0xcf6f
	_ZNK7android6VectorINS_7String8EE8do_splatEPvPKvj	0xcf8d
	_ZN7android12AssetManager9SharedZipD2Ev	0xd0e9
	_ZN7android8ResTableD1Ev	0x12a4b
	_ZN7android9ZipFileROD1Ev	0x1639f
	_ZN7android12AssetManager9SharedZipD1Ev	0xd0e9
	_ZN7android12AssetManager9SharedZipD0Ev	0xd135
	_ZNK7android12SortedVectorINS_16key_value_pair_tINS_7String8ENS_2wpINS_12AssetManager9SharedZipEEEEEE12do_constructEPvj	0xd21d
	_ZNK7android12SortedVectorINS_8AssetDir8FileInfoEE10do_compareEPKvS5_	0xd23f
	_ZNK7android12SortedVectorINS_16key_value_pair_tINS_7String8ENS_2wpINS_12AssetManager9SharedZipEEEEEE10do_compareEPKvSA_	0xd23f
	_ZNK7android12SortedVectorINS_8AssetDir8FileInfoEE12do_constructEPvj	0xd26b
	_ZNK7android12SortedVectorINS_8AssetDir8FileInfoEE10do_destroyEPvj	0xd29d
	_ZNK7android12SortedVectorINS_8AssetDir8FileInfoEE7do_copyEPvPKvj	0xd2e3
	_ZNK7android12SortedVectorINS_8AssetDir8FileInfoEE8do_splatEPvPKvj	0xd301
	_ZNK7android12SortedVectorINS_8AssetDir8FileInfoEE15do_move_forwardEPvPKvj	0xd31d
	_ZNK7android12SortedVectorINS_8AssetDir8FileInfoEE16do_move_backwardEPvPKvj	0xd345
	_ZN7android12AssetManager14getGlobalCountEv	0xd369
	_ZNK7android6VectorINS_12AssetManager10asset_pathEE12do_constructEPvj	0xd26b
	_ZNK7android6VectorINS_12AssetManager10asset_pathEE10do_destroyEPvj	0xd29d
	_ZNK7android12AssetManager13nextAssetPathEPv	0xd375
	_ZNK7android12AssetManager12getAssetPathEPv	0xd39d
	_ZNK7android12AssetManager16getConfigurationEPNS_15ResTable_configE	0xd3d5
	_ZNK7android12AssetManager26updateResourceParamsLockedEv	0xd3fd
	_ZN7android8ResTable13setParametersEPKNS_15ResTable_configE	0x12a75
	_ZNK7android12AssetManager10getLocalesEPNS_6VectorINS_7String8EEE	0xd45d
	_ZNK7android8ResTable10getLocalesEPNS_6VectorINS_7String8EEE	0x13609
	_ZN7android12AssetManager25createZipSourceNameLockedERKNS_7String8ES3_S3_	0xd469
	_ZN7android12AssetManager20createPathNameLockedERKNS0_10asset_pathEPKcS5_	0xd4b1
	_ZN7android12AssetManager20createPathNameLockedERKNS0_10asset_pathEPKc	0xd4e9
	_ZN7android12AssetManager23openAssetFromFileLockedERKNS_7String8ENS_5Asset10AccessModeE	0xd505
	_ZNK7android12AssetManager15openIdmapLockedERKNS0_10asset_pathE	0xd539
	_ZN7android12AssetManager22openAssetFromZipLockedEPKNS_9ZipFileROEPvNS_5Asset10AccessModeERKNS_7String8E	0xd579
	_ZNK7android9ZipFileRO12getEntryInfoEPvPiPjS3_PxPlS5_	0x16af9
	_ZNK7android9ZipFileRO18createEntryFileMapEPv	0x16d79
	_ZN7android12AssetManager24purgeFileNameCacheLockedEv	0xd605
	_ZN7android12AssetManager9setVendorEPKc	0xd611
	_ZN7android12AssetManager15setLocaleLockedEPKc	0xd641
	_ZN7android12AssetManager16setConfigurationERKNS_15ResTable_configEPKc	0xd669
	_ZN7android12AssetManager9setLocaleEPKc	0xd709
	_ZN7android12AssetManager9SharedZipC2ERKNS_7String8El	0xd72d
	_ZN7android9ZipFileRO4openEPKc	0x16981
	_ZN7android12AssetManager9SharedZipC1ERKNS_7String8El	0xd72d
	_ZN7android12AssetManager9SharedZip6getZipEv	0xd7c5
	_ZN7android12AssetManager9SharedZip21getResourceTableAssetEv	0xd7c9
	_ZN7android12AssetManager9SharedZip21setResourceTableAssetEPNS_5AssetE	0xd7cd
	_ZN7android12AssetManager9SharedZip16getResourceTableEv	0xd815
	_ZN7android12AssetManager9SharedZip16setResourceTableEPNS_8ResTableE	0xd819
	_ZN7android12AssetManager9SharedZip10isUpToDateEv	0xd859
	_ZN7android14getFileModDateEPKc	0xf7e9
	_ZN7android12AssetManager6ZipSet8closeZipEi	0xd86d
	_ZN7android12AssetManager6ZipSetD2Ev	0xd887
	_ZN7android12AssetManager6ZipSetD1Ev	0xd887
	_ZN7android12AssetManagerD2Ev	0xd8b1
	_ZN7android12AssetManagerD1Ev	0xd8b1
	_ZN7android12AssetManagerD0Ev	0xd915
	_ZN7android12AssetManager6ZipSet11getPathNameEPKc	0xd927
	_ZN7android12AssetManager6ZipSet10isUpToDateEv	0xd933
	_ZN7android12AssetManager10isUpToDateEv	0xd959
	_ZN7android12AssetManager13scanDirLockedERKNS_7String8E	0xd9a5
	_ZN7android11getFileTypeEPKc	0xf745
	_ZN7android12AssetManager15mergeInfoLockedEPNS_12SortedVectorINS_8AssetDir8FileInfoEEEPKS4_	0xdab9
	_ZN7android12AssetManager24fncScanAndMergeDirLockedEPNS_12SortedVectorINS_8AssetDir8FileInfoEEERKNS0_10asset_pathEPKcSA_SA_	0xdb6d
	_ZN7android12AssetManager13fncScanLockedEPNS_12SortedVectorINS_8AssetDir8FileInfoEEEPKc	0xdcd1
	_ZN7android12AssetManager23loadFileNameCacheLockedEv	0xdd49
	_ZN7android12AssetManager21scanAndMergeDirLockedEPNS_12SortedVectorINS_8AssetDir8FileInfoEEERKNS0_10asset_pathEPKcSA_	0xdd65
	_ZN7android12AssetManager6ZipSetC2Ev	0xdf89
	_ZN7android12AssetManager6ZipSetC1Ev	0xdf89
	_ZN7android12AssetManagerC2ENS0_9CacheModeE	0xdfb5
	_ZN7android12AssetManagerC1ENS0_9CacheModeE	0xdfb5
	_ZN7android2wpINS_12AssetManager9SharedZipEED2Ev	0xe031
	_ZN7android2wpINS_12AssetManager9SharedZipEED1Ev	0xe031
	_ZN7android2spINS_12AssetManager9SharedZipEED2Ev	0xe05b
	_ZN7android2spINS_12AssetManager9SharedZipEED1Ev	0xe05b
	_ZNK7android12AssetManager6ZipSet8getIndexERKNS_7String8E	0xe06d
	_ZNK7android6VectorINS_2spINS_12AssetManager9SharedZipEEEE10do_destroyEPvj	0xe0b7
	_ZN7android2spINS_12AssetManager9SharedZipEEC2ERKS3_	0xe0cf
	_ZN7android2spINS_12AssetManager9SharedZipEEC1ERKS3_	0xe0cf
	_ZN7android12AssetManager6ZipSet19setZipResourceTableERKNS_7String8EPNS_8ResTableE	0xe0e3
	_ZN7android12AssetManager6ZipSet24setZipResourceTableAssetERKNS_7String8EPNS_5AssetE	0xe10d
	_ZNK7android6VectorINS_2spINS_12AssetManager9SharedZipEEEE7do_copyEPvPKvj	0xe137
	_ZNK7android6VectorINS_2spINS_12AssetManager9SharedZipEEEE8do_splatEPvPKvj	0xe155
	_ZNK7android12SortedVectorINS_16key_value_pair_tINS_7String8ENS_2wpINS_12AssetManager9SharedZipEEEEEE10do_destroyEPvj	0xe185
	_ZN7android2spINS_12AssetManager9SharedZipEEaSERKS3_	0xe19d
	_ZN7android2wpINS_12AssetManager9SharedZipEEC2ERKS3_	0xe1bd
	_ZN7android2wpINS_12AssetManager9SharedZipEEC1ERKS3_	0xe1bd
	_ZN7android12AssetManager9SharedZip3getERKNS_7String8E	0xe1d5
	_ZN7android12AssetManager6ZipSet19getZipResourceTableERKNS_7String8E	0xe2cd
	_ZN7android12AssetManager6ZipSet24getZipResourceTableAssetERKNS_7String8E	0xe31d
	_ZN7android12AssetManager6ZipSet6getZipERKNS_7String8E	0xe36d
	_ZN7android12AssetManager21scanAndMergeZipLockedEPNS_12SortedVectorINS_8AssetDir8FileInfoEEERKNS0_10asset_pathEPKcSA_	0xe3bd
	_ZNK7android9ZipFileRO16findEntryByIndexEi	0x16aad
	_ZNK7android9ZipFileRO16getEntryFileNameEPvPci	0x16d41
	_ZN7android12AssetManager15openNonAssetDirEPvPKc	0xe609
	_ZN7android12AssetManager7openDirEPKc	0xe699
	_ZN7android12AssetManager16getZipFileLockedERKNS0_10asset_pathE	0xe73d
	_ZN7android12AssetManager24openInLocaleVendorLockedEPKcNS_5Asset10AccessModeERKNS0_10asset_pathES2_S2_	0xe745
	_ZNK7android9ZipFileRO15findEntryByNameEPKc	0x16a49
	_ZN7android12AssetManager16openInPathLockedEPKcNS_5Asset10AccessModeERKNS0_10asset_pathE	0xe9bd
	_ZN7android12AssetManager24openNonAssetInPathLockedEPKcNS_5Asset10AccessModeERKNS0_10asset_pathE	0xea39
	_ZNK7android12AssetManager11getResTableEb	0xeb2d
	_ZN7android8ResTableC1Ev	0x16031
	_ZN7android8ResTable3addEPNS_5AssetEPvbPKv	0x15f79
	_ZN7android8ResTable3addEPS0_	0x15785
	_ZNK7android12AssetManager12getResourcesEb	0xed1d
	_ZN7android12AssetManager12openNonAssetEPvPKcNS_5Asset10AccessModeE	0xed21
	_ZN7android12AssetManager12openNonAssetEPKcNS_5Asset10AccessModeE	0xed7d
	_ZN7android12AssetManager4openEPKcNS_5Asset10AccessModeE	0xede1
	_ZN7android12AssetManager11getFileTypeEPKc	0xee61
	_ZN7android12AssetManager20getZipEntryCrcLockedERKNS_7String8EPKcPj	0xee79
	_ZN7android12AssetManager21createIdmapFileLockedERKNS_7String8ES3_S3_	0xeed1
	_ZNK7android8ResTable11createIdmapERKS0_jjPPvPj	0x14da5
	_ZN7android12AssetManager18isIdmapStaleLockedERKNS_7String8ES3_S3_	0xf0f9
	_ZN7android8ResTable12getIdmapInfoEPKvjPjS3_	0x15055
	_ZN7android12AssetManager12addAssetPathERKNS_7String8EPPv	0xf295
	_ZN7android12AssetManager16addDefaultAssetsEv	0xf4e1
	_ZNK7android6VectorINS_12AssetManager10asset_pathEE7do_copyEPvPKvj	0xf57f
	_ZNK7android6VectorINS_12AssetManager10asset_pathEE8do_splatEPvPKvj	0xf59d
	_ZNK7android6VectorINS_12AssetManager10asset_pathEE15do_move_forwardEPvPKvj	0xf5b9
	_ZNK7android6VectorINS_12AssetManager10asset_pathEE16do_move_backwardEPvPKvj	0xf5e1
	_ZNK7android12SortedVectorINS_16key_value_pair_tINS_7String8ENS_2wpINS_12AssetManager9SharedZipEEEEEE16do_move_backwardEPvPKvj	0xf61b
	_ZNK7android12SortedVectorINS_16key_value_pair_tINS_7String8ENS_2wpINS_12AssetManager9SharedZipEEEEEE15do_move_forwardEPvPKvj	0xf63f
	_ZNK7android12SortedVectorINS_16key_value_pair_tINS_7String8ENS_2wpINS_12AssetManager9SharedZipEEEEEE8do_splatEPvPKvj	0xf667
	_ZNK7android12SortedVectorINS_16key_value_pair_tINS_7String8ENS_2wpINS_12AssetManager9SharedZipEEEEEE7do_copyEPvPKvj	0xf683
	_ZNK7android6VectorINS_2spINS_12AssetManager9SharedZipEEEE16do_move_backwardEPvPKvj	0xf6d5
	_ZNK7android6VectorINS_2spINS_12AssetManager9SharedZipEEEE15do_move_forwardEPvPKvj	0xf6d5
	_ZN7android7ObbFileD2Ev	0xf801
	_ZN7android7ObbFileD1Ev	0xf801
	_ZN7android7ObbFileD0Ev	0xf821
	_ZN7android7ObbFileC2Ev	0xf84d
	_ZN7android7ObbFileC1Ev	0xf84d
	_ZN7android7ObbFile12parseObbFileEi	0xf889
	_ZN7android7ObbFile8readFromEi	0xfb41
	_ZN7android7ObbFile8readFromEPKc	0xfb69
	_ZN7android7ObbFile7writeToEi	0xfbd5
	_ZN7android7ObbFile7writeToEPKc	0xfe11
	_ZN7android7ObbFile10removeFromEi	0xfe61
	_ZN7android7ObbFile10removeFromEPKc	0xfe81
	_ZNK7android6VectorINS_15ResTable_configEE12do_constructEPvj	0xfef7
	_ZNK7android6VectorINS_15ResTable_configEE10do_destroyEPvj	0xfef7
	_ZNK7android6VectorIPNS_8ResTable7PackageEE12do_constructEPvj	0xfef7
	_ZNK7android6VectorIPNS_8ResTable7PackageEE10do_destroyEPvj	0xfef7
	_ZNK7android6VectorIPNS_8ResTable4TypeEE12do_constructEPvj	0xfef7
	_ZNK7android6VectorIPNS_8ResTable4TypeEE10do_destroyEPvj	0xfef7
	_ZNK7android6VectorIPKNS_13ResTable_typeEE12do_constructEPvj	0xfef7
	_ZNK7android6VectorIPKNS_13ResTable_typeEE10do_destroyEPvj	0xfef7
	_ZNK7android6VectorIPNS_8ResTable12PackageGroupEE12do_constructEPvj	0xfef7
	_ZNK7android6VectorIPNS_8ResTable12PackageGroupEE10do_destroyEPvj	0xfef7
	_ZNK7android6VectorIPNS_8ResTable6HeaderEE12do_constructEPvj	0xfef7
	_ZNK7android6VectorIPNS_8ResTable6HeaderEE10do_destroyEPvj	0xfef7
	_ZNK7android6VectorINS0_IjEEE10do_destroyEPvj	0xfef9
	_ZNK7android6VectorINS_15ResTable_configEE7do_copyEPvPKvj	0xff15
	_ZNK7android6VectorINS_15ResTable_configEE8do_splatEPvPKvj	0xff43
	_ZNK7android6VectorINS_15ResTable_configEE15do_move_forwardEPvPKvj	0xff69
	_ZNK7android6VectorINS_15ResTable_configEE16do_move_backwardEPvPKvj	0xff15
	_ZNK7android6VectorIPNS_8ResTable7PackageEE8do_splatEPvPKvj	0xff9f
	_ZNK7android6VectorIPNS_8ResTable4TypeEE8do_splatEPvPKvj	0xff9f
	_ZNK7android6VectorIPKNS_13ResTable_typeEE8do_splatEPvPKvj	0xff9f
	_ZNK7android6VectorIPNS_8ResTable12PackageGroupEE8do_splatEPvPKvj	0xff9f
	_ZNK7android6VectorIPNS_8ResTable6HeaderEE8do_splatEPvPKvj	0xff9f
	_ZNK7android6VectorIjE12do_constructEPvj	0xfef7
	_ZNK7android6VectorIjE10do_destroyEPvj	0xfef7
	_ZNK7android6VectorIjE8do_splatEPvPKvj	0xff9f
	_ZNK7android6VectorINS0_IjEEE15do_move_forwardEPvPKvj	0xffb1
	_ZNK7android6VectorINS0_IjEEE16do_move_backwardEPvPKvj	0xffb1
	_ZNK7android6VectorIPNS_8ResTable7PackageEE15do_move_forwardEPvPKvj	0xcf65
	_ZNK7android6VectorIPNS_8ResTable7PackageEE16do_move_backwardEPvPKvj	0xcf65
	_ZNK7android6VectorIPNS_8ResTable4TypeEE15do_move_forwardEPvPKvj	0xcf65
	_ZNK7android6VectorIPNS_8ResTable4TypeEE16do_move_backwardEPvPKvj	0xcf65
	_ZNK7android6VectorIPKNS_13ResTable_typeEE15do_move_forwardEPvPKvj	0xcf65
	_ZNK7android6VectorIPKNS_13ResTable_typeEE16do_move_backwardEPvPKvj	0xcf65
	_ZNK7android6VectorIPNS_8ResTable12PackageGroupEE15do_move_forwardEPvPKvj	0xcf65
	_ZNK7android6VectorIPNS_8ResTable12PackageGroupEE16do_move_backwardEPvPKvj	0xcf65
	_ZNK7android6VectorIPNS_8ResTable6HeaderEE15do_move_forwardEPvPKvj	0xcf65
	_ZNK7android6VectorIPNS_8ResTable6HeaderEE16do_move_backwardEPvPKvj	0xcf65
	_ZNK7android6VectorIjE15do_move_forwardEPvPKvj	0xcf65
	_ZNK7android6VectorIjE16do_move_backwardEPvPKvj	0xcf65
	_ZNK7android6VectorIPNS_8ResTable7PackageEE7do_copyEPvPKvj	0xffbd
	_ZNK7android6VectorIPNS_8ResTable4TypeEE7do_copyEPvPKvj	0xffbd
	_ZNK7android6VectorIPKNS_13ResTable_typeEE7do_copyEPvPKvj	0xffbd
	_ZNK7android6VectorIPNS_8ResTable12PackageGroupEE7do_copyEPvPKvj	0xffbd
	_ZNK7android6VectorIPNS_8ResTable6HeaderEE7do_copyEPvPKvj	0xffbd
	_ZNK7android6VectorIjE7do_copyEPvPKvj	0xffbd
	_ZNK7android6VectorINS0_IjEEE8do_splatEPvPKvj	0x106ed
	_ZNK7android6VectorINS0_IjEEE7do_copyEPvPKvj	0x10721
	_ZNK7android6VectorINS0_IjEEE12do_constructEPvj	0x10755
	isspace	0x107a9
	_ZN7android14Res_png_9patch12deviceToFileEv	0x107e7
	_ZN7android14Res_png_9patch12fileToDeviceEv	0x107e7
	_ZN7android14Res_png_9patch14serializedSizeEv	0x1084f
	_ZN7android14Res_png_9patch9serializeEPv	0x10865
	_ZN7android14Res_png_9patch9serializeEv	0x108c1
	_ZN7android14Res_png_9patch11deserializeEPKv	0x108df
	_ZN7android13ResStringPoolC2Ev	0x108ff
	_ZN7android13ResStringPoolC1Ev	0x108ff
	_ZNK7android13ResStringPool8getErrorEv	0x1091d
	_ZN7android13ResStringPool6uninitEv	0x10921
	_ZN7android13ResStringPool5setToEPKvjb	0x10971
	_ZN7android13ResStringPoolC2EPKvjb	0x10ba5
	_ZN7android13ResStringPoolC1EPKvjb	0x10ba5
	_ZN7android13ResStringPoolD2Ev	0x10bd9
	_ZN7android13ResStringPoolD1Ev	0x10bd9
	_ZNK7android13ResStringPool8stringAtEjPj	0x10bed
	_ZNK7android13ResStringPool9string8AtEjPj	0x10de1
	_ZNK7android13ResStringPool15string8ObjectAtEj	0x10e85
	_ZNK7android13ResStringPool7styleAtEj	0x10eb9
	_ZNK7android13ResStringPool7styleAtERKNS_17ResStringPool_refE	0x10f09
	_ZNK7android13ResStringPool13indexOfStringEPKtj	0x10f0f
	_ZNK7android13ResStringPool4sizeEv	0x1106b
	_ZNK7android13ResStringPool10styleCountEv	0x11079
	_ZNK7android13ResStringPool5bytesEv	0x11087
	_ZNK7android13ResStringPool8isSortedEv	0x11095
	_ZNK7android13ResStringPool6isUTF8Ev	0x1109f
	_ZN7android12ResXMLParserC2ERKNS_10ResXMLTreeE	0x110a9
	_ZN7android12ResXMLParserC1ERKNS_10ResXMLTreeE	0x110a9
	_ZN7android12ResXMLParser7restartEv	0x110b3
	_ZNK7android12ResXMLParser10getStringsEv	0x110c9
	_ZNK7android12ResXMLParser12getEventTypeEv	0x110cf
	_ZNK7android12ResXMLParser12getCommentIDEv	0x110d3
	_ZNK7android12ResXMLParser10getCommentEPj	0x110e1
	_ZNK7android12ResXMLParser13getLineNumberEv	0x11101
	_ZNK7android12ResXMLParser9getTextIDEv	0x1110f
	_ZNK7android12ResXMLParser7getTextEPj	0x11123
	_ZNK7android12ResXMLParser12getTextValueEPNS_9Res_valueE	0x11145
	_ZNK7android12ResXMLParser20getNamespacePrefixIDEv	0x1116d
	_ZNK7android12ResXMLParser18getNamespacePrefixEPj	0x11183
	_ZNK7android12ResXMLParser17getNamespaceUriIDEv	0x111a3
	_ZNK7android12ResXMLParser15getNamespaceUriEPj	0x111b9
	_ZNK7android12ResXMLParser21getElementNamespaceIDEv	0x111d9
	_ZNK7android12ResXMLParser19getElementNamespaceEPj	0x111f5
	_ZNK7android12ResXMLParser16getElementNameIDEv	0x11215
	_ZNK7android12ResXMLParser14getElementNameEPj	0x11231
	_ZNK7android12ResXMLParser17getAttributeCountEv	0x11251
	_ZNK7android12ResXMLParser23getAttributeNamespaceIDEj	0x11263
	_ZNK7android12ResXMLParser21getAttributeNamespaceEjPj	0x11289
	_ZNK7android12ResXMLParser22getAttributeNamespace8EjPj	0x112a9
	_ZNK7android12ResXMLParser18getAttributeNameIDEj	0x112c9
	_ZNK7android12ResXMLParser16getAttributeNameEjPj	0x112f1
	_ZNK7android12ResXMLParser17getAttributeName8EjPj	0x11311
	_ZNK7android12ResXMLParser21getAttributeNameResIDEj	0x11331
	_ZNK7android12ResXMLParser25getAttributeValueStringIDEj	0x11351
	_ZNK7android12ResXMLParser23getAttributeStringValueEjPj	0x11379
	_ZNK7android12ResXMLParser20getAttributeDataTypeEj	0x11399
	_ZNK7android12ResXMLParser16getAttributeDataEj	0x113bf
	_ZNK7android12ResXMLParser17getAttributeValueEjPNS_9Res_valueE	0x113e5
	_ZNK7android12ResXMLParser16indexOfAttributeEPKtjS2_j	0x11421
	_ZNK7android12ResXMLParser16indexOfAttributeEPKcS2_	0x11595
	_ZNK7android12ResXMLParser9indexOfIDEv	0x115f5
	_ZNK7android12ResXMLParser12indexOfClassEv	0x1160d
	_ZNK7android12ResXMLParser12indexOfStyleEv	0x11625
	_ZNK7android12ResXMLParser11getPositionEPNS0_14ResXMLPositionE	0x1163d
	_ZN7android12ResXMLParser11setPositionERKNS0_14ResXMLPositionE	0x1164b
	_ZN7android10ResXMLTreeC2Ev	0x11659
	_ZN7android10ResXMLTreeC1Ev	0x11659
	_ZNK7android10ResXMLTree8getErrorEv	0x11681
	_ZN7android10ResXMLTree6uninitEv	0x11685
	_ZN7android10ResXMLTreeD2Ev	0x116ad
	_ZN7android10ResXMLTreeD1Ev	0x116ad
	_ZNK7android10ResXMLTree12validateNodeEPKNS_15ResXMLTree_nodeE	0x116c1
	_ZN7android12ResXMLParser8nextNodeEv	0x11749
	_ZN7android12ResXMLParser4nextEv	0x11809
	_ZN7android10ResXMLTree5setToEPKvjb	0x1182d
	_ZN7android10ResXMLTreeC2EPKvjb	0x1197d
	_ZN7android10ResXMLTreeC1EPKvjb	0x1197d
	_ZN7android15ResTable_config20copyFromDeviceNoSwapERKS0_	0x119b1
	_ZN7android15ResTable_config12copyFromDtoHERKS0_	0x119e1
	_ZN7android15ResTable_config8swapHtoDEv	0xfef7
	_ZNK7android15ResTable_config7compareERKS0_	0x119ef
	_ZNK7android15ResTable_config14compareLogicalERKS0_	0x11a4d
	_ZNK7android15ResTable_config4diffERKS0_	0x11b35
	_ZNK7android15ResTable_config18isMoreSpecificThanERKS0_	0x11c0b
	_ZNK7android15ResTable_config12isBetterThanERKS0_PS1_	0x11de3
	_ZNK7android15ResTable_config5matchERKS0_	0x11e2d
	_ZNK7android15ResTable_config9getLocaleEPc	0x11f85
	_ZNK7android15ResTable_config8toStringEv	0x11fb1
	_ZN7android8ResTable5ThemeC2ERKS0_	0x12747
	_ZN7android8ResTable5ThemeC1ERKS0_	0x12747
	_ZN7android8ResTable5Theme12free_packageEPNS1_12package_infoE	0x1275d
	_ZN7android8ResTable5ThemeD2Ev	0x12783
	_ZN7android8ResTable5ThemeD1Ev	0x12783
	_ZN7android8ResTable5Theme12copy_packageEPNS1_12package_infoE	0x127a1
	_ZN7android8ResTable5Theme5setToERKS1_	0x127f9
	_ZNK7android8ResTable5Theme12getAttributeEjPNS_9Res_valueEPj	0x12865
	_ZNK7android8ResTable5Theme9dumpToLogEv	0x128f5
	_ZNK7android8ResTable8getErrorEv	0x110cf
	_ZN7android8ResTable6uninitEv	0x129e1
	_ZN7android8ResTableD2Ev	0x12a4b
	_ZNK7android8ResTable9unlockBagEPKNS0_9bag_entryE	0x12a6d
	_ZNK7android8ResTable4lockEv	0x12a71
	_ZNK7android8ResTable6unlockEv	0x12a6d
	_ZNK7android8ResTable13getParametersEPNS_15ResTable_configE	0x12aaf
	_ZNK7android8ResTable17identifierForNameEPKtjS2_jS2_jPj	0x12ad5
	_ZN7android8ResTable17expandResourceRefEPKtjPNS_8String16ES4_S4_PKS3_S6_PPKcPb	0x12dc9
	_ZN7android8ResTable11stringToIntEPKtjPNS_9Res_valueE	0x12f01
	_ZN7android8ResTable13stringToFloatEPKtjPNS_9Res_valueE	0x12fdd
	_ZN7android8ResTable13collectStringEPNS_8String16EPKtjbPPKcb	0x13205
	_ZNK7android8ResTable19getBasePackageCountEv	0x134d5
	_ZNK7android8ResTable18getBasePackageNameEj	0x134e1
	_ZNK7android8ResTable16getBasePackageIdEj	0x134f3
	_ZNK7android8ResTable13getTableCountEv	0x13505
	_ZNK7android8ResTable19getTableStringBlockEj	0x13509
	_ZN7android8ResTable13valueToStringEPKNS_9Res_valueEjPtPj	0x13513
	_ZNK7android8ResTable14getTableCookieEj	0x13537
	_ZNK7android8ResTable17getConfigurationsEPNS_6VectorINS_15ResTable_configEEE	0x13541
	_ZNK7android8ResTable8getEntryEPKNS0_7PackageEiiPKNS_15ResTable_configEPPKNS_13ResTable_typeEPPKNS_14ResTable_entryEPPKNS0_4TypeE	0x13699
	_ZNK7android8ResTable12getBagLockedEjPPKNS0_9bag_entryEPj	0x137ed
	_ZNK7android8ResTable7lockBagEjPPKNS0_9bag_entryE	0x13c29
	_ZN7android8ResTable5Theme10applyStyleEjb	0x13c51
	_ZNK7android8ResTable11getResourceEjPNS_9Res_valueEbtPjPNS_15ResTable_configE	0x13e11
	_ZNK7android8ResTable16resolveReferenceEPNS_9Res_valueEiPjS3_PNS_15ResTable_configE	0x140e5
	_ZNK7android8ResTable5Theme25resolveAttributeReferenceEPNS_9Res_valueEiPjS4_PNS_15ResTable_configE	0x14165
	_ZNK7android8ResTable15getResourceNameEjbPNS0_13resource_nameE	0x141ad
	_ZNK7android8ResTable13stringToValueEPNS_9Res_valueEPNS_8String16EPKtjbbjPKS3_S8_PNS0_8AccessorEPvjb	0x142fd
	_ZN7android8ResTable18normalizeForOutputEPKc	0x15071
	_ZNK7android8ResTable11print_valueEPKNS0_7PackageERKNS_9Res_valueE	0x150dd
	_ZNK7android8ResTable5printEb	0x151ed
	_ZN7android8ResTable12parsePackageEPKNS_16ResTable_packageEPKNS0_6HeaderEj	0x15835
	_ZN7android8ResTable3addEPKvjPvPNS_5AssetEbPKS4_	0x15d19
	_ZN7android8ResTable3addEPKvjPvbS2_	0x15fd1
	_ZN7android8ResTableC2Ev	0x16031
	_ZN7android8ResTableC2EPKvjPvb	0x1606d
	_ZN7android8ResTableC1EPKvjPvb	0x1606d
	_ZN7android20StreamingZipInflaterD2Ev	0x160ed
	_ZN7android20StreamingZipInflater16initInflateStateEv	0x16111
	_ZN7android20StreamingZipInflaterC2EPNS_7FileMapEj	0x1615f
	_ZN7android20StreamingZipInflaterC2Eixjj	0x1618d
	_ZN7android20StreamingZipInflater13readNextChunkEv	0x161c5
	_ZN7android9ZipFileROD2Ev	0x1639f
	_ZNK7android9ZipFileRO12entryToIndexEPv	0x163dd
	_ZN7android9ZipFileRO19mapCentralDirectoryEv	0x16419
	_ZN7android9ZipFileRO11computeHashEPKci	0x167a5
	_ZN7android9ZipFileRO9addToHashEPKcij	0x167bf
	_ZN7android9ZipFileRO15parseZipArchiveEv	0x167ed
	_ZNK7android9ZipFileRO15uncompressEntryEPvS1_	0x16eb5
	_ZN7android9ZipFileRO13inflateBufferEiPKvjj	0x16f45
	_ZNK7android9ZipFileRO15uncompressEntryEPvi	0x170e1
	_ZN7android8ZipUtils15inflateToBufferEP7__sFILEPvll	0x17329
	_ZN7android16BackupDataWriterC2Ei	0x17789
	_ZN7android16BackupDataWriterC1Ei	0x17789
	_ZN7android16BackupDataWriterD2Ev	0x177a3
	_ZN7android16BackupDataWriterD1Ev	0x177a3
	_ZN7android16BackupDataWriter17write_padding_forEi	0x177b5
	_ZN7android16BackupDataWriter17WriteEntityHeaderERKNS_7String8Ej	0x177f9
	_ZN7android16BackupDataWriter15WriteEntityDataEPKvj	0x178b5
	_ZN7android16BackupDataWriter12SetKeyPrefixERKNS_7String8E	0x178dd
	_ZN7android16BackupDataReaderC2Ei	0x178e3
	_ZN7android16BackupDataReaderC1Ei	0x178e3
	_ZN7android16BackupDataReaderD2Ev	0x1790b
	_ZN7android16BackupDataReaderD1Ev	0x1790b
	_ZN7android16BackupDataReader6StatusEv	0x1791b
	_ZN7android16BackupDataReader11HasEntitiesEv	0x17921
	_ZN7android16BackupDataReader16ReadEntityHeaderEPNS_7String8EPj	0x1793d
	_ZN7android16BackupDataReader14ReadEntityDataEPvj	0x17969
	_ZN7android16BackupDataReader12skip_paddingEv	0x179ad
	_ZN7android16BackupDataReader14SkipEntityDataEv	0x17a25
	_ZN7android16BackupDataReader14ReadNextHeaderEPbPi	0x17a89
	_ZNK7android12SortedVectorINS_16key_value_pair_tINS_7String8ENS_9FileStateEEEE10do_destroyEPvj	0x180ab
	_ZNK7android12SortedVectorINS_16key_value_pair_tINS_7String8ENS_9FileStateEEEE12do_constructEPvj	0x180c3
	_ZNK7android12SortedVectorINS_16key_value_pair_tINS_7String8ENS_7FileRecEEEE12do_constructEPvj	0x180dd
	_ZNK7android12SortedVectorINS_16key_value_pair_tINS_7String8ENS_9FileStateEEEE10do_compareEPKvS7_	0xd23f
	_ZNK7android12SortedVectorINS_16key_value_pair_tINS_7String8ENS_7FileRecEEEE10do_compareEPKvS7_	0xd23f
	_ZN7android18send_tarfile_chunkEPNS_16BackupDataWriterEPKcj	0x184f9
	_ZN7android13write_tarfileERKNS_7String8ES2_S2_S2_PNS_16BackupDataWriterE	0x1851d
	_ZN7android17RestoreHelperBaseD2Ev	0x189c5
	_ZN7android17RestoreHelperBaseD1Ev	0x189c5
	_ZN7android17RestoreHelperBase13WriteSnapshotEi	0x189dd
	_ZN7android30backup_helper_test_data_writerEv	0x189e9
	_ZN7android27test_read_header_and_entityERNS_16BackupDataReaderEPKc	0x18ac9
	_ZN7android30backup_helper_test_data_readerEv	0x18c5d
	_ZNK7android12SortedVectorINS_16key_value_pair_tINS_7String8ENS_7FileRecEEEE10do_destroyEPvj	0x18db1
	_ZN7android17RestoreHelperBase9WriteFileERKNS_7String8EPNS_16BackupDataReaderE	0x18df5
	_ZN7android24backup_helper_test_emptyEv	0x18fd9
	_ZN7android23backup_helper_test_fourEv	0x190f1
	_ZN7android13back_up_filesEiPNS_16BackupDataWriterEiPKPKcS5_i	0x194e9
	_ZN7android31backup_helper_test_missing_fileEv	0x19749
	_ZN7android28backup_helper_test_null_baseEv	0x19871
	_ZN7android24backup_helper_test_filesEv	0x19981
	_ZN7android17RestoreHelperBaseC2Ev	0x19cb1
	_ZN7android17RestoreHelperBaseC1Ev	0x19cb1
	_ZNK7android12SortedVectorINS_16key_value_pair_tINS_7String8ENS_9FileStateEEEE16do_move_backwardEPvPKvj	0x19ced
	_ZNK7android12SortedVectorINS_16key_value_pair_tINS_7String8ENS_9FileStateEEEE15do_move_forwardEPvPKvj	0x19d11
	_ZNK7android12SortedVectorINS_16key_value_pair_tINS_7String8ENS_9FileStateEEEE8do_splatEPvPKvj	0x19d39
	_ZNK7android12SortedVectorINS_16key_value_pair_tINS_7String8ENS_9FileStateEEEE7do_copyEPvPKvj	0x19d55
	_ZNK7android12SortedVectorINS_16key_value_pair_tINS_7String8ENS_7FileRecEEEE16do_move_backwardEPvPKvj	0x19d89
	_ZNK7android12SortedVectorINS_16key_value_pair_tINS_7String8ENS_7FileRecEEEE15do_move_forwardEPvPKvj	0x19dad
	_ZNK7android12SortedVectorINS_16key_value_pair_tINS_7String8ENS_7FileRecEEEE8do_splatEPvPKvj	0x19dd5
	_ZNK7android12SortedVectorINS_16key_value_pair_tINS_7String8ENS_7FileRecEEEE7do_copyEPvPKvj	0x19df1
	_ZN7android12CursorWindowC2ERKNS_7String8EiPvjb	0x19e0f
	_ZN7android12CursorWindowC1ERKNS_7String8EiPvjb	0x19e0f
	_ZN7android12CursorWindowD2Ev	0x19e2f
	_ZN7android12CursorWindowD1Ev	0x19e2f
	_ZN7android12CursorWindow16createFromParcelEPNS_6ParcelEPPS0_	0x19e4d
	_ZN7android12CursorWindow13writeToParcelEPNS_6ParcelE	0x19ef5
	_ZN7android12CursorWindow5clearEv	0x19f13
	_ZN7android12CursorWindow6createERKNS_7String8EjPPS0_	0x19f45
	_ZN7android12CursorWindow13setNumColumnsEj	0x1a019
	_ZN7android12CursorWindow11freeLastRowEv	0x1a055
	_ZN7android12CursorWindow5allocEjb	0x1a06d
	_ZN7android12CursorWindow10getRowSlotEj	0x1a0b5
	_ZN7android12CursorWindow12allocRowSlotEv	0x1a0d1
	_ZN7android12CursorWindow8allocRowEv	0x1a129
	_ZN7android12CursorWindow12getFieldSlotEjj	0x1a185
	_ZN7android12CursorWindow15putBlobOrStringEjjPKvji	0x1a1f5
	_ZN7android12CursorWindow9putStringEjjPKcj	0x1a24d
	_ZN7android12CursorWindow7putBlobEjjPKvj	0x1a25d
	_ZN7android12CursorWindow7putLongEjjx	0x1a26d
	_ZN7android12CursorWindow9putDoubleEjjd	0x1a29b
	_ZN7android12CursorWindow7putNullEjj	0x1a2c9
Module(name="libz.so", base_address=0x40216000, size=102400, path="/system/lib/libz.so")
	func_name	RVA
	adler32	0x1c00
	__aeabi_unwind_cpp_pr0	0x10da0
	adler32_combine	0x1f48
	adler32_combine64	0x1f48
	compress2	0x2008
	deflateInit_	0x6198
	deflate	0x4514
	deflateEnd	0x5c74
	compress	0x20a4
	compressBound	0x2144
	get_crc_table	0x237c
	crc32	0x238c
	crc32_combine	0x2704
	crc32_combine64	0x2704
	_tr_flush_block	0xf608
	_tr_flush_bits	0xf3ec
	deflateSetDictionary	0x3e58
	deflateResetKeep	0x406c
	_tr_init	0xf180
	deflateReset	0x4138
	deflateSetHeader	0x42a0
	deflatePending	0x42d4
	deflatePrime	0x4320
	deflateTune	0x43c4
	deflateBound	0x43fc
	_tr_stored_block	0xf278
	_tr_align	0xf484
	deflateParams	0x5b50
	deflateInit2_	0x5d60
	zcalloc	0x102cc
	zcfree	0x102d4
	deflateCopy	0x61cc
	gzclose	0x63c4
	gzclose_w	0x889c
	gzclose_r	0x7b38
	gzopen	0x6858
	gzopen64	0x6858
	gzdopen	0x6864
	gzbuffer	0x68d0
	gzrewind	0x6914
	gzseek64	0x69c4
	gzseek	0x6be0
	gztell64	0x6be4
	gztell	0x6be4
	gzoffset64	0x6c24
	gzoffset	0x6c24
	gzeof	0x6c80
	gzerror	0x6cc8
	gzclearerr	0x6d34
	gz_error	0x6dac
	inflateInit2_	0xa1bc
	inflateReset	0x9ff4
	inflate	0xa448
	gzread	0x7438
	gzgetc	0x76ac
	gzgetc_	0x76ac
	gzungetc	0x7730
	gzgets	0x7924
	gzdirect	0x7aec
	inflateEnd	0xc1a0
	__aeabi_unwind_cpp_pr1	0x10d98
	gzwrite	0x823c
	gzputc	0x8278
	gzputs	0x83f4
	gzvprintf	0x8468
	gzprintf	0x8600
	gzflush	0x862c
	gzsetparams	0x8728
	inflateBackInit_	0x89f8
	inflateBack	0x8b0c
	inflate_fast	0xd06c
	inflate_table	0xc88c
	inflateBackEnd	0x9de4
	inflateResetKeep	0x9f60
	inflateReset2	0xa094
	inflateInit_	0xa2c8
	inflatePrime	0xa3d0
	inflateGetDictionary	0xc204
	inflateSetDictionary	0xc290
	inflateGetHeader	0xc33c
	inflateSync	0xc378
	inflateSyncPoint	0xc620
	inflateCopy	0xc660
	inflateUndermine	0xc800
	inflateMark	0xc830
	_tr_tally	0x100f4
	uncompress	0x101e8
	zlibVersion	0x1029c
	zlibCompileFlags	0x102ac
	zError	0x102b4
	__aeabi_unwind_cpp_pr2	0x10d90
	__gnu_Unwind_Restore_VFP_D	0x111e0
	__gnu_Unwind_Restore_VFP	0x111d0
	__gnu_Unwind_Restore_VFP_D_16_to_31	0x111f0
	__gnu_Unwind_Restore_WMMXD	0x11200
	__gnu_Unwind_Restore_WMMXC	0x11288
	restore_core_regs	0x111bc
	_Unwind_GetCFA	0x10714
	__gnu_Unwind_RaiseException	0x1071c
	__gnu_Unwind_ForcedUnwind	0x107c0
	__gnu_Unwind_Resume	0x107dc
	__gnu_Unwind_Resume_or_Rethrow	0x10854
	_Unwind_Complete	0x10874
	_Unwind_DeleteException	0x10878
	_Unwind_VRS_Get	0x10898
	_Unwind_VRS_Set	0x10904
	__gnu_unwind_execute	0x113ec
	__gnu_Unwind_Backtrace	0x10da8
	_Unwind_VRS_Pop	0x10e68
	__gnu_Unwind_Save_VFP_D	0x111e8
	__gnu_Unwind_Save_VFP	0x111d8
	__gnu_Unwind_Save_VFP_D_16_to_31	0x111f8
	__gnu_Unwind_Save_WMMXD	0x11244
	__gnu_Unwind_Save_WMMXC	0x1129c
	__restore_core_regs	0x111bc
	___Unwind_RaiseException	0x112b0
	_Unwind_RaiseException	0x112b0
	___Unwind_Resume	0x112d4
	_Unwind_Resume	0x112d4
	___Unwind_Resume_or_Rethrow	0x112f8
	_Unwind_Resume_or_Rethrow	0x112f8
	___Unwind_ForcedUnwind	0x1131c
	_Unwind_ForcedUnwind	0x1131c
	___Unwind_Backtrace	0x11340
	_Unwind_Backtrace	0x11340
	__gnu_unwind_frame	0x11790
	_Unwind_GetRegionStart	0x117d0
	_Unwind_GetLanguageSpecificData	0x117e0
	_Unwind_GetDataRelBase	0x117fc
	_Unwind_GetTextRelBase	0x11804
Module(name="libexpat.so", base_address=0x40230000, size=94208, path="/system/lib/libexpat.so")
	func_name	RVA
	__aeabi_unwind_cpp_pr0	0x10934
	XmlPrologStateInit	0x87f1
	XmlInitEncoding	0xfd51
	XmlSizeOfUnknownEncoding	0xfb4f
	XmlInitUnknownEncodingNS	0xfe61
	XmlInitUnknownEncoding	0xfb55
	__aeabi_unwind_cpp_pr1	0x1092c
	XmlParseXmlDeclNS	0xfe25
	XmlParseXmlDecl	0xfd91
	XmlInitEncodingNS	0xfde5
	XmlUtf8Encode	0xfa1d
	XML_ParserReset	0x6a9d
	XML_SetEncoding	0x6bef
	XML_ParserFree	0x6c21
	XmlGetUtf8InternalEncodingNS	0xfdcd
	XmlGetUtf8InternalEncoding	0xfd39
	XML_ParserCreate_MM	0x6f7d
	XML_ParserCreateNS	0x6f83
	XML_ParserCreate	0x6f93
	XML_ExternalEntityParserCreate	0x6f9d
	XmlPrologStateInitExternalEntity	0x8809
	XML_UseParserAsHandlerArg	0x73b9
	XML_UseForeignDTD	0x73bd
	XML_SetReturnNSTriplet	0x73d5
	XML_SetUserData	0x73ed
	XML_SetBase	0x73fb
	XML_GetBase	0x741b
	XML_GetSpecifiedAttributeCount	0x7421
	XML_GetIdAttributeIndex	0x7427
	XML_SetElementHandler	0x742d
	XML_SetStartElementHandler	0x7433
	XML_SetEndElementHandler	0x7437
	XML_SetCharacterDataHandler	0x743b
	XML_SetProcessingInstructionHandler	0x743f
	XML_SetCommentHandler	0x7443
	XML_SetCdataSectionHandler	0x7447
	XML_SetStartCdataSectionHandler	0x744d
	XML_SetEndCdataSectionHandler	0x7451
	XML_SetDefaultHandler	0x7455
	XML_SetDefaultHandlerExpand	0x745f
	XML_SetDoctypeDeclHandler	0x7469
	XML_SetStartDoctypeDeclHandler	0x746f
	XML_SetEndDoctypeDeclHandler	0x7473
	XML_SetUnparsedEntityDeclHandler	0x7477
	XML_SetNotationDeclHandler	0x747b
	XML_SetNamespaceDeclHandler	0x747f
	XML_SetStartNamespaceDeclHandler	0x7485
	XML_SetEndNamespaceDeclHandler	0x7489
	XML_SetNotStandaloneHandler	0x748d
	XML_SetExternalEntityRefHandler	0x7491
	XML_SetExternalEntityRefHandlerArg	0x7495
	XML_SetSkippedEntityHandler	0x749f
	XML_SetUnknownEncodingHandler	0x74a3
	XML_SetElementDeclHandler	0x74ab
	XML_SetAttlistDeclHandler	0x74b1
	XML_SetEntityDeclHandler	0x74b7
	XML_SetXmlDeclHandler	0x74bd
	XML_SetParamEntityParsing	0x74c3
	XML_SetHashSalt	0x74db
	XML_ParseBuffer	0x74f5
	XML_GetBuffer	0x75a9
	XML_Parse	0x7685
	XML_StopParser	0x7765
	XML_ResumeParser	0x779d
	XML_GetParsingStatus	0x7821
	XML_GetErrorCode	0x782f
	XML_GetCurrentByteIndex	0x7835
	XML_GetCurrentByteCount	0x784f
	XML_GetInputContext	0x7867
	XML_GetCurrentLineNumber	0x788b
	XML_GetCurrentColumnNumber	0x78b9
	XML_FreeContentModel	0x78e5
	XML_MemMalloc	0x78ef
	XML_MemRealloc	0x78f9
	XML_MemFree	0x78e5
	XML_DefaultCurrent	0x7905
	XML_ErrorString	0x7931
	XML_ExpatVersion	0x7949
	XML_ExpatVersionInfo	0x7955
	XML_GetFeatureList	0x7965
	XmlUtf16Encode	0xfb1b
	XmlGetUtf16InternalEncoding	0xfd45
	XmlGetUtf16InternalEncodingNS	0xfdd9
	__aeabi_unwind_cpp_pr2	0x10924
	__gnu_Unwind_Restore_VFP_D	0x10d74
	__gnu_Unwind_Restore_VFP	0x10d64
	__gnu_Unwind_Restore_VFP_D_16_to_31	0x10d84
	__gnu_Unwind_Restore_WMMXD	0x10d94
	__gnu_Unwind_Restore_WMMXC	0x10e1c
	restore_core_regs	0x10d50
	_Unwind_GetCFA	0x102a8
	__gnu_Unwind_RaiseException	0x102b0
	__gnu_Unwind_ForcedUnwind	0x10354
	__gnu_Unwind_Resume	0x10370
	__gnu_Unwind_Resume_or_Rethrow	0x103e8
	_Unwind_Complete	0x10408
	_Unwind_DeleteException	0x1040c
	_Unwind_VRS_Get	0x1042c
	_Unwind_VRS_Set	0x10498
	__gnu_unwind_execute	0x10f80
	__gnu_Unwind_Backtrace	0x1093c
	_Unwind_VRS_Pop	0x109fc
	__gnu_Unwind_Save_VFP_D	0x10d7c
	__gnu_Unwind_Save_VFP	0x10d6c
	__gnu_Unwind_Save_VFP_D_16_to_31	0x10d8c
	__gnu_Unwind_Save_WMMXD	0x10dd8
	__gnu_Unwind_Save_WMMXC	0x10e30
	__restore_core_regs	0x10d50
	___Unwind_RaiseException	0x10e44
	_Unwind_RaiseException	0x10e44
	___Unwind_Resume	0x10e68
	_Unwind_Resume	0x10e68
	___Unwind_Resume_or_Rethrow	0x10e8c
	_Unwind_Resume_or_Rethrow	0x10e8c
	___Unwind_ForcedUnwind	0x10eb0
	_Unwind_ForcedUnwind	0x10eb0
	___Unwind_Backtrace	0x10ed4
	_Unwind_Backtrace	0x10ed4
	__gnu_unwind_frame	0x11324
	_Unwind_GetRegionStart	0x11364
	_Unwind_GetLanguageSpecificData	0x11374
	_Unwind_GetDataRelBase	0x11390
	_Unwind_GetTextRelBase	0x11398
Module(name="libnativehelper.so", base_address=0x40247000, size=24576, path="/system/lib/libnativehelper.so")
	func_name	RVA
	jniStrError	0x1d2d
	jniGetFDFromFileDescriptor	0x1d5d
	jniSetFileDescriptorOfFD	0x1dcd
	jniCreateFileDescriptor	0x1e45
	jniGetReferent	0x1ec5
	jniGetNonMovableArrayElements	0x1f35
	jniRegisterNativeMethods	0x1f81
	_ZNSt4priv12_String_baseIcSaIcEE17_M_allocate_blockEj	0x2025
	_ZNSs9_M_appendEPKcS0_	0x20a1
	jniGetStackTrace	0x2345
	jniLogException	0x256d
	jniThrowException	0x25b5
	jniThrowIOException	0x26a1
	jniThrowRuntimeException	0x26e5
	jniThrowNullPointerException	0x26f5
	jniThrowExceptionFmt	0x2705
	_ZN12JniConstants4initEP7_JNIEnv	0x27ad
	_Z14newStringArrayP7_JNIEnvj	0x2c85
	_Z13toStringArrayI13VectorCounter12VectorGetterEP13_jobjectArrayP7_JNIEnvPT_PT0_	0x2ca5
	_Z13toStringArrayP7_JNIEnvRKSt6vectorISsSaISsEE	0x2d2d
	_Z13toStringArrayI12ArrayCounter11ArrayGetterEP13_jobjectArrayP7_JNIEnvPT_PT0_	0x2d3d
	_Z13toStringArrayP7_JNIEnvPKPKc	0x2dbb
	_ZN13JniInvocationC2Ev	0x2dcd
	_ZN13JniInvocationC1Ev	0x2dcd
	_ZN13JniInvocationD2Ev	0x2e05
	_ZN13JniInvocationD1Ev	0x2e05
	_ZN13JniInvocation28JNI_GetDefaultJavaVMInitArgsEPv	0x2e21
	_ZN13JniInvocation16JNI_CreateJavaVMEPP7_JavaVMPP7_JNIEnvPv	0x2e2b
	_ZN13JniInvocation21JNI_GetCreatedJavaVMsEPP7_JavaVMiPi	0x2e39
	_ZN13JniInvocation10FindSymbolEPPvPKc	0x2e49
	_ZN13JniInvocation4InitEPKc	0x2e8d
	_ZN13JniInvocation16GetJniInvocationEv	0x2fa5
	JNI_GetDefaultJavaVMInitArgs	0x2fd1
	JNI_CreateJavaVM	0x2fe3
	JNI_GetCreatedJavaVMs	0x2ffd
Module(name="libstlport.so", base_address=0x4024d000, size=217088, path="/system/lib/libstlport.so")
	func_name	RVA
	_ZNSt9exceptionD2Ev	0x17405
	_ZNSt9exceptionD1Ev	0x17405
	_ZNSt13bad_exceptionD2Ev	0x17405
	_ZNSt13bad_exceptionD1Ev	0x17405
	_ZNKSt9exception4whatEv	0x17415
	_ZNKSt13bad_exception4whatEv	0x17421
	_ZNKSt17__Named_exception4whatEv	0x1742d
	_ZNSt9exceptionD0Ev	0x17435
	_ZNSt13bad_exceptionD0Ev	0x17435
	_ZNSt17__Named_exceptionD2Ev	0x1744d
	_ZNSt17__Named_exceptionD1Ev	0x1744d
	_ZNSt17__Named_exceptionD0Ev	0x1747d
	_ZNSt13runtime_errorD2Ev	0x17491
	_ZNSt13runtime_errorD1Ev	0x17491
	_ZNSt13runtime_errorD0Ev	0x174a9
	_ZNSt15underflow_errorD2Ev	0x174bd
	_ZNSt15underflow_errorD1Ev	0x174bd
	_ZNSt15underflow_errorD0Ev	0x174d5
	_ZNSt14overflow_errorD2Ev	0x174e9
	_ZNSt14overflow_errorD1Ev	0x174e9
	_ZNSt14overflow_errorD0Ev	0x17501
	_ZNSt11range_errorD2Ev	0x17515
	_ZNSt11range_errorD1Ev	0x17515
	_ZNSt11range_errorD0Ev	0x1752d
	_ZNSt11logic_errorD2Ev	0x17541
	_ZNSt11logic_errorD1Ev	0x17541
	_ZNSt11logic_errorD0Ev	0x17559
	_ZNSt12out_of_rangeD2Ev	0x1756d
	_ZNSt12out_of_rangeD1Ev	0x1756d
	_ZNSt12out_of_rangeD0Ev	0x17585
	_ZNSt12length_errorD2Ev	0x17599
	_ZNSt12length_errorD1Ev	0x17599
	_ZNSt12length_errorD0Ev	0x175b1
	_ZNSt16invalid_argumentD2Ev	0x175c5
	_ZNSt16invalid_argumentD1Ev	0x175c5
	_ZNSt16invalid_argumentD0Ev	0x175dd
	_ZNSt12domain_errorD2Ev	0x175f1
	_ZNSt12domain_errorD1Ev	0x175f1
	_ZNSt12domain_errorD0Ev	0x17609
	_ZSt25__stl_throw_runtime_errorPKc	0x1761b
	_ZSt23__stl_throw_range_errorPKc	0x1761b
	_ZSt24__stl_throw_out_of_rangePKc	0x1761b
	_ZSt24__stl_throw_length_errorPKc	0x1761b
	_ZSt28__stl_throw_invalid_argumentPKc	0x1761b
	_ZSt26__stl_throw_overflow_errorPKc	0x1761b
	_ZNSt9exceptionC2Ev	0x17405
	_ZNSt9exceptionC1Ev	0x17405
	_ZNSt13bad_exceptionC2Ev	0x17625
	_ZNSt13bad_exceptionC1Ev	0x17625
	_ZNSt17__Named_exceptionC2ERKSs	0x17635
	_ZNSt17__Named_exceptionC1ERKSs	0x17635
	_ZNSt17__Named_exceptionC2ERKS_	0x17695
	_ZNSt17__Named_exceptionC1ERKS_	0x17695
	_ZNSt17__Named_exceptionaSERKS_	0x176f9
	_ZNSt13_Filebuf_baseC2Ev	0x1777f
	_ZNSt13_Filebuf_baseC1Ev	0x1777f
	_ZNSt13_Filebuf_base13_S_initializeEv	0x17791
	_ZNSt13_Filebuf_base12_M_file_sizeEv	0x177a5
	_ZNSt13_Filebuf_base7_M_openEPKcil	0x177d7
	_ZNSt13_Filebuf_base7_M_openEPKci	0x1787f
	_ZNSt13_Filebuf_base7_M_openEii	0x17889
	_ZNSt13_Filebuf_base8_M_closeEv	0x178dd
	_ZNSt13_Filebuf_base7_M_readEPci	0x17905
	_ZNSt13_Filebuf_base8_M_writeEPci	0x1790b
	_ZNSt13_Filebuf_base7_M_seekEli	0x17937
	_ZNSt13_Filebuf_base7_M_mmapEll	0x17975
	_ZNSt13_Filebuf_base8_M_unmapEPvl	0x179b1
	_ZNSt13basic_filebufIcSt11char_traitsIcEE19_M_allocate_buffersEv	0x179b9
	_ZNSt10_UnderflowIcSt11char_traitsIcEE7_M_doitEPSt13basic_filebufIcS1_E	0x17a2d
	_ZNSt12strstreambuf9pbackfailEi	0x17c31
	_ZNSt12strstreambuf9underflowEv	0x17c6d
	_ZNSt12strstreambuf6setbufEPci	0x17c8f
	_ZNSt12strstreambuf7seekoffElii	0x17c91
	_ZNSt12strstreambuf7seekposESt4fposI9mbstate_tEi	0x17d65
	_ZNSt15basic_streambufIcSt11char_traitsIcEE5imbueERKSt6locale	0x17c8f
	_ZNSt15basic_streambufIcSt11char_traitsIcEE4syncEv	0x17d85
	_ZNSt15basic_streambufIcSt11char_traitsIcEE9showmanycEv	0x17d85
	_ZNSt15basic_streambufIcSt11char_traitsIcEE5uflowEv	0x17d89
	_ZNSt15basic_streambufIcSt11char_traitsIcEE6setbufEPci	0x17c8f
	_ZNSt15basic_streambufIcSt11char_traitsIcEE7seekoffElii	0x17da1
	_ZNSt15basic_streambufIcSt11char_traitsIcEE7seekposESt4fposI9mbstate_tEi	0x17dad
	_ZNSt15basic_streambufIcSt11char_traitsIcEE9underflowEv	0x17dc3
	_ZNSt15basic_streambufIcSt11char_traitsIcEE9pbackfailEi	0x17dc3
	_ZNSt15basic_streambufIcSt11char_traitsIcEE8overflowEi	0x17dc3
	_ZNSt15basic_streambufIcSt11char_traitsIcEE10_M_xsputncEci	0x17dc9
	_ZNSt8ios_baseD2Ev	0x18c2d
	_ZNSoD1Ev	0x17e49
	_ZNSoD0Ev	0x17e81
	_ZNSt15basic_streambufIcSt11char_traitsIcEED2Ev	0x17ef1
	_ZNSt6localeD1Ev	0x1f3ed
	_ZNSt15basic_streambufIcSt11char_traitsIcEED1Ev	0x17ef1
	_ZNSt15basic_streambufIcSt11char_traitsIcEED0Ev	0x17f15
	_ZNSt15basic_streambufIcSt11char_traitsIcEE6xsputnEPKci	0x17f27
	_ZNSt15basic_streambufIcSt11char_traitsIcEE6xsgetnEPci	0x17f7b
	_ZNSt12strstreambuf6freezeEb	0x17fcf
	_ZNSt12strstreambuf3strEv	0x17fe1
	_ZNKSt12strstreambuf6pcountEv	0x17ff5
	_ZNSt12strstreambuf8_M_allocEj	0x18003
	_ZNSt12strstreambuf7_M_freeEPc	0x18017
	_ZNSt12strstreambufD2Ev	0x18031
	_ZNSt12strstreambufD1Ev	0x18031
	_ZNSt12strstreambufD0Ev	0x1805d
	_ZNSt12strstreambuf8overflowEi	0x1806f
	_ZNSt12strstreambuf8_M_setupEPcS0_i	0x18117
	_ZNKSt10istrstream5rdbufEv	0x1814d
	_ZNSt10istrstream3strEv	0x18151
	_ZNKSt10ostrstream5rdbufEv	0x18157
	_ZNSt10ostrstream6freezeEb	0x1815b
	_ZNSt10ostrstream3strEv	0x1816d
	_ZNKSt10ostrstream6pcountEv	0x18173
	_ZNKSt9strstream5rdbufEv	0x18179
	_ZNSt9strstream6freezeEb	0x1817d
	_ZNKSt9strstream6pcountEv	0x1818f
	_ZNSt9strstream3strEv	0x18195
	_ZNSt15basic_streambufIcSt11char_traitsIcEEC2Ev	0x1819d
	_ZNSt6localeC1Ev	0x1f367
	_ZNSt15basic_streambufIcSt11char_traitsIcEEC1Ev	0x1819d
	_ZNSt12strstreambufC2EPKhi	0x181d1
	_ZNSt12strstreambufC1EPKhi	0x181d1
	_ZNSt12strstreambufC2EPKai	0x181d1
	_ZNSt12strstreambufC1EPKai	0x181d1
	_ZNSt12strstreambufC2EPKci	0x181d1
	_ZNSt12strstreambufC1EPKci	0x181d1
	_ZNSt12strstreambufC2EPhiS0_	0x1820d
	_ZNSt12strstreambufC1EPhiS0_	0x1820d
	_ZNSt12strstreambufC2EPaiS0_	0x1820d
	_ZNSt12strstreambufC1EPaiS0_	0x1820d
	_ZNSt12strstreambufC2EPciS0_	0x1820d
	_ZNSt12strstreambufC1EPciS0_	0x1820d
	_ZNSt12strstreambufC2EPFPvjEPFvS0_E	0x18251
	_ZNSt12strstreambufC1EPFPvjEPFvS0_E	0x18251
	_ZNSt12strstreambufC2Ei	0x182a1
	_ZNSt12strstreambufC1Ei	0x182a1
	_ZNSt9basic_iosIcSt11char_traitsIcEEC2Ev	0x182f5
	_ZNSt8ios_baseC2Ev	0x18f41
	_ZNSt9basic_iosIcSt11char_traitsIcEEC1Ev	0x182f5
	_ZNSt10istrstreamD1Ev	0x18331
	_ZNSt10istrstreamD0Ev	0x1836d
	_ZNSt10istrstreamD2Ev	0x1837f
	_ZNSt9basic_iosIcSt11char_traitsIcEE4initEPSt15basic_streambufIcS1_E	0x183a5
	_ZNSt8ios_base16_M_throw_failureEv	0x18cc5
	_ZNSt8ios_base5imbueERKSt6locale	0x18c73
	_ZNSt6localeC1ERKS_	0x1f37b
	_ZNSt6localeaSERKS_	0x1f3fd
	_ZNKSt6locale12_M_use_facetERKNS_2idE	0x1f437
	_ZNSt10istrstreamC1EPKci	0x18461
	_ZNSt10istrstreamC2EPKci	0x184b5
	_ZNSt10istrstreamC1EPci	0x184f5
	_ZNSt10istrstreamC2EPci	0x1854d
	_ZNSt10istrstreamC1EPKc	0x1858d
	_ZNSt10istrstreamC2EPKc	0x185dd
	_ZNSt10istrstreamC1EPc	0x18619
	_ZNSt10istrstreamC2EPc	0x18669
	_ZNSoC2EPSt15basic_streambufIcSt11char_traitsIcEE	0x186a7
	_ZNSt10ostrstreamC1EPcii	0x186c9
	_ZNSt10ostrstreamC2EPcii	0x18731
	_ZNSt10ostrstreamC1Ev	0x18781
	_ZNSt10ostrstreamC2Ev	0x187c9
	_ZNSoD2Ev	0x18321
	_ZNSdD1Ev	0x18801
	_ZThn8_NSdD1Ev	0x18851
	_ZNSdD0Ev	0x18861
	_ZThn8_NSdD0Ev	0x18873
	_ZNSt10ostrstreamD1Ev	0x18885
	_ZNSt10ostrstreamD0Ev	0x188bd
	_ZNSt10ostrstreamD2Ev	0x188cf
	_ZNSdC2EPSt15basic_streambufIcSt11char_traitsIcEE	0x188f3
	_ZNSt9strstreamC1EPcii	0x18931
	_ZNSt9strstreamC2EPcii	0x189a1
	_ZNSt9strstreamC1Ev	0x189f9
	_ZNSt9strstreamC2Ev	0x18a49
	_ZNSdD2Ev	0x18a85
	_ZNSt9strstreamD1Ev	0x18ab5
	_ZThn8_NSt9strstreamD1Ev	0x18af5
	_ZNSt9strstreamD0Ev	0x18afd
	_ZThn8_NSt9strstreamD0Ev	0x18b0f
	_ZNSt9strstreamD2Ev	0x18b17
	_ZTv0_n12_NSt9strstreamD0Ev	0x18b41
	_ZTv0_n12_NSt9strstreamD1Ev	0x18b4d
	_ZTv0_n12_NSt10ostrstreamD0Ev	0x18b59
	_ZTv0_n12_NSt10ostrstreamD1Ev	0x18b65
	_ZTv0_n12_NSdD0Ev	0x18879
	_ZTv0_n12_NSdD1Ev	0x18857
	_ZTv0_n12_NSt10istrstreamD0Ev	0x18b71
	_ZTv0_n12_NSt10istrstreamD1Ev	0x18b7d
	_ZTv0_n12_NSoD0Ev	0x17e93
	_ZTv0_n12_NSoD1Ev	0x17e75
	_ZNSt8ios_base7failureD2Ev	0x18b89
	_ZNSt8ios_base7failureD1Ev	0x18b89
	_ZNSt8ios_base7failureD0Ev	0x18ba1
	_ZNSt8ios_base7failureC2ERKSs	0x18bc9
	_ZNSt8ios_base7failureC1ERKSs	0x18bc9
	_ZNSt8ios_base6xallocEv	0x18be1
	_ZNSt8ios_base19_M_invoke_callbacksENS_5eventE	0x18c09
	_ZNSt8ios_baseD1Ev	0x18c2d
	_ZNSt8ios_baseD0Ev	0x18c61
	_ZNKSt6localeneERKS_	0x1f5b9
	_ZNSt8ios_base5iwordEi	0x18cf5
	_ZNSt8ios_base5pwordEi	0x18d61
	_ZNSt8ios_base17register_callbackEPFvNS_5eventERS_iEi	0x18dcd
	_ZNSt8ios_base13_M_copy_stateERKS_	0x18e49
	_ZNSt8ios_baseC1Ev	0x18f41
	_ZNSt4priv16stdio_istreambuf9showmanycEv	0x17d85
	_ZNSt4priv16stdio_ostreambuf9showmanycEv	0x17dc3
	_ZNSt4priv20stdio_streambuf_base4syncEv	0x18f7d
	_ZNSt4priv20stdio_streambuf_baseD2Ev	0x18f91
	_ZNSt4priv20stdio_streambuf_baseD1Ev	0x18f91
	_ZNSt4priv20stdio_streambuf_baseD0Ev	0x18fb1
	_ZNSt4priv16stdio_ostreambufD2Ev	0x18fc5
	_ZNSt4priv16stdio_ostreambufD1Ev	0x18fc5
	_ZNSt4priv16stdio_ostreambufD0Ev	0x18fdd
	_ZNSt4priv16stdio_istreambufD2Ev	0x18ff1
	_ZNSt4priv16stdio_istreambufD1Ev	0x18ff1
	_ZNSt4priv16stdio_istreambufD0Ev	0x19009
	_ZNSt4priv16stdio_istreambuf5uflowEv	0x1901b
	_ZNSt4priv16stdio_istreambuf9underflowEv	0x19021
	_ZNSt4priv20stdio_streambuf_base7seekposESt4fposI9mbstate_tEi	0x1903b
	_ZNSt4priv20stdio_streambuf_base6setbufEPci	0x19071
	_ZNSt4priv20stdio_streambuf_base7seekoffElii	0x1908f
	_ZNSt4priv16stdio_ostreambuf8overflowEi	0x190e3
	_ZNSt4priv16stdio_istreambuf9pbackfailEi	0x1911d
	_ZNSt4priv20stdio_streambuf_baseC2EP7__sFILE	0x1913d
	_ZNSt4priv20stdio_streambuf_baseC1EP7__sFILE	0x1913d
	_ZNSt15basic_streambufIwSt11char_traitsIwEE5imbueERKSt6locale	0x17c8f
	_ZNSt15basic_streambufIwSt11char_traitsIwEE6setbufEPwi	0x17c8f
	_ZNSt15basic_streambufIwSt11char_traitsIwEE7seekoffElii	0x17da1
	_ZNSt15basic_streambufIwSt11char_traitsIwEE7seekposESt4fposI9mbstate_tEi	0x17dad
	_ZNSt15basic_streambufIwSt11char_traitsIwEE4syncEv	0x17d85
	_ZNSt15basic_streambufIwSt11char_traitsIwEE9showmanycEv	0x17d85
	_ZNSt15basic_streambufIwSt11char_traitsIwEE9underflowEv	0x17dc3
	_ZNSt15basic_streambufIwSt11char_traitsIwEE9pbackfailEj	0x17dc3
	_ZNSt15basic_streambufIwSt11char_traitsIwEE8overflowEj	0x17dc3
	_ZNSt13basic_filebufIcSt11char_traitsIcEE9pbackfailEi	0x19181
	_ZNSt13basic_filebufIcSt11char_traitsIcEE9underflowEv	0x19213
	_ZNSt15basic_streambufIwSt11char_traitsIwEE10_M_xsputncEwi	0x19217
	_ZNSt15basic_streambufIwSt11char_traitsIwEE6xsgetnEPwi	0x19267
	_ZNSt13basic_ostreamIwSt11char_traitsIwEED1Ev	0x192f1
	_ZNSt13basic_ostreamIwSt11char_traitsIwEED0Ev	0x19329
	_ZNSt15basic_streambufIwSt11char_traitsIwEED2Ev	0x19399
	_ZNSt15basic_streambufIwSt11char_traitsIwEED1Ev	0x19399
	_ZNSt15basic_streambufIwSt11char_traitsIwEED0Ev	0x193bd
	_ZNSt13basic_filebufIwSt11char_traitsIwEE4syncEv	0x193d9
	_ZNSt13basic_filebufIcSt11char_traitsIcEE4syncEv	0x193d9
	_ZNSt13basic_filebufIwSt11char_traitsIwEE9showmanycEv	0x1944f
	_ZNSt15basic_streambufIwSt11char_traitsIwEE5uflowEv	0x194a7
	_ZNSt13basic_filebufIwSt11char_traitsIwEE9pbackfailEj	0x194bf
	_ZNSt13basic_filebufIcSt11char_traitsIcEE9showmanycEv	0x19547
	_ZNSt15basic_streambufIwSt11char_traitsIwEE6xsputnEPKwi	0x1959d
	_ZNSt13basic_filebufIwSt11char_traitsIwEE16_M_setup_codecvtERKSt6localeb	0x19641
	_ZNKSt6locale12_M_get_facetERKNS_2idE	0x1f41d
	_ZNSt13basic_filebufIwSt11char_traitsIwEE5imbueERKSt6locale	0x196c1
	_ZNSoC1EPSt15basic_streambufIcSt11char_traitsIcEE	0x197b9
	_ZNSt9basic_iosIwSt11char_traitsIwEE4initEPSt15basic_streambufIwS1_E	0x197f9
	_ZNSt13basic_ostreamIwSt11char_traitsIwEEC1EPSt15basic_streambufIwS1_E	0x19891
	_ZNSt8ios_base15_S_uninitializeEv	0x198cd
	_ZNSt8ios_base4InitD2Ev	0x19b0d
	_Locale_final	0x17c8f
	_ZNSt8ios_base4InitD1Ev	0x19b0d
	_ZNSt13basic_filebufIwSt11char_traitsIwEE21_M_deallocate_buffersEv	0x19b2d
	_ZNSt13basic_filebufIcSt11char_traitsIcEE16_M_setup_codecvtERKSt6localeb	0x19b51
	_ZNSt13basic_filebufIcSt11char_traitsIcEE5imbueERKSt6locale	0x19bd1
	_ZNSt8ios_base15sync_with_stdioEb	0x19cad
	_ZNSt8ios_base13_S_initializeEv	0x19e91
	_ZNSt8ios_base4InitC2Ev	0x1a0fd
	_Locale_init	0x2cf75
	_ZNSt8ios_base4InitC1Ev	0x1a0fd
	_ZNSt13basic_filebufIwSt11char_traitsIwEE18_M_exit_input_modeEv	0x1a121
	_ZNSt13basic_filebufIcSt11char_traitsIcEE21_M_deallocate_buffersEv	0x19b2d
	_ZNSt13basic_filebufIcSt11char_traitsIcEE18_M_exit_input_modeEv	0x1a121
	_ZNSt13basic_filebufIwSt11char_traitsIwEE19_M_allocate_buffersEPwi	0x1a141
	_ZNSt13basic_filebufIwSt11char_traitsIwEE19_M_allocate_buffersEv	0x1a199
	_ZNSt13basic_filebufIwSt11char_traitsIwEE8overflowEj	0x1a1c9
	_ZNSt13basic_filebufIwSt11char_traitsIwEED2Ev	0x1a2fd
	_ZNSt13basic_filebufIwSt11char_traitsIwEED1Ev	0x1a2fd
	_ZNSt13basic_filebufIwSt11char_traitsIwEED0Ev	0x1a399
	_ZNSt13basic_filebufIwSt11char_traitsIwEE9underflowEv	0x1a3ab
	_ZNSt13basic_filebufIwSt11char_traitsIwEE6setbufEPwi	0x1a505
	_ZNSt13basic_filebufIcSt11char_traitsIcEE19_M_allocate_buffersEPci	0x1a52d
	_ZNSt13basic_filebufIcSt11char_traitsIcEE6setbufEPci	0x1a581
	_ZNSt13basic_filebufIcSt11char_traitsIcEE8overflowEi	0x1a5a9
	_ZNSt13basic_filebufIcSt11char_traitsIcEED2Ev	0x1a709
	_ZNSt13basic_filebufIcSt11char_traitsIcEED1Ev	0x1a709
	_ZNSt13basic_filebufIcSt11char_traitsIcEED0Ev	0x1a7a5
	_ZNSt13basic_filebufIwSt11char_traitsIwEE12_M_seek_initEb	0x1a7b7
	_ZNSt13basic_filebufIwSt11char_traitsIwEE7seekposESt4fposI9mbstate_tEi	0x1a869
	_ZNSt13basic_filebufIwSt11char_traitsIwEE7seekoffElii	0x1a8c3
	_ZNSt13basic_filebufIcSt11char_traitsIcEE12_M_seek_initEb	0x1a7b7
	_ZNSt13basic_filebufIcSt11char_traitsIcEE7seekposESt4fposI9mbstate_tEi	0x1aa3b
	_ZNSt13basic_filebufIcSt11char_traitsIcEE7seekoffElii	0x1aa95
	_ZTv0_n12_NSt13basic_ostreamIwSt11char_traitsIwEED0Ev	0x1933b
	_ZTv0_n12_NSt13basic_ostreamIwSt11char_traitsIwEED1Ev	0x1931d
	_ZNKSt7codecvtIcc9mbstate_tE9do_lengthERS0_PKcS4_j	0x1abc7
	_ZNKSt7codecvtIcc9mbstate_tE13do_max_lengthEv	0x1abd3
	_ZNKSt7codecvtIcc9mbstate_tE16do_always_noconvEv	0x1abd3
	_ZNKSt7codecvtIcc9mbstate_tE11do_encodingEv	0x1abd3
	_ZNKSt7codecvtIcc9mbstate_tE10do_unshiftERS0_PcS3_RS3_	0x1abd7
	_ZNKSt7codecvtIcc9mbstate_tE5do_inERS0_PKcS4_RS4_PcS6_RS6_	0x1abdf
	_ZNKSt7codecvtIcc9mbstate_tE6do_outERS0_PKcS4_RS4_PcS6_RS6_	0x1abdf
	_ZNKSt7codecvtIwc9mbstate_tE10do_unshiftERS0_PcS3_RS3_	0x1abd7
	_ZNKSt7codecvtIwc9mbstate_tE11do_encodingEv	0x1abd3
	_ZNKSt7codecvtIwc9mbstate_tE16do_always_noconvEv	0x1abd3
	_ZNKSt7codecvtIwc9mbstate_tE9do_lengthERS0_PKcS4_j	0x1abc7
	_ZNKSt7codecvtIwc9mbstate_tE13do_max_lengthEv	0x1abd3
	_ZNSt7codecvtIwc9mbstate_tED2Ev	0x1abed
	_ZNSt6locale5facetD2Ev	0x1f321
	_ZNSt7codecvtIwc9mbstate_tED1Ev	0x1abed
	_ZNSt7codecvtIwc9mbstate_tED0Ev	0x1ac05
	_ZNSt7codecvtIcc9mbstate_tED2Ev	0x1ac19
	_ZNSt7codecvtIcc9mbstate_tED1Ev	0x1ac19
	_ZNSt7codecvtIcc9mbstate_tED0Ev	0x1ac31
	_ZNKSt7codecvtIwc9mbstate_tE6do_outERS0_PKwS4_RS4_PcS6_RS6_	0x1ac43
	_ZNKSt7codecvtIwc9mbstate_tE5do_inERS0_PKcS4_RS4_PwS6_RS6_	0x1ac7f
	_ZNKSt7collateIcE7do_hashEPKcS2_	0x1acbb
	_ZNKSt7collateIwE7do_hashEPKwS2_	0x1acd1
	_ZNKSt7collateIwE10do_compareEPKwS2_S2_S2_	0x1ace7
	_ZNSt7collateIwED2Ev	0x1ad21
	_ZNSt7collateIwED1Ev	0x1ad21
	_ZNSt7collateIwED0Ev	0x1ad39
	_ZNSt7collateIcED2Ev	0x1ad4d
	_ZNSt7collateIcED1Ev	0x1ad4d
	_ZNSt7collateIcED0Ev	0x1ad65
	_ZNKSt7collateIcE10do_compareEPKcS2_S2_S2_	0x1ad77
	_ZNSt12__node_alloc11_M_allocateERj	0x2cbdd
	_ZNSt4priv12_String_baseIcSaIcEE17_M_allocate_blockEj	0x1adc9
	_ZNKSt7collateIcE12do_transformEPKcS2_	0x1adfd
	_ZNSt4priv12_String_baseIwSaIwEE17_M_allocate_blockEj	0x1ae25
	_ZNKSt7collateIwE12do_transformEPKwS2_	0x1ae65
	_ZNKSt5ctypeIcE10do_toupperEc	0x1ae91
	_ZNKSt5ctypeIcE10do_tolowerEc	0x1ae9d
	_ZNKSt5ctypeIcE10do_toupperEPcPKc	0x1aea9
	_ZNKSt5ctypeIcE10do_tolowerEPcPKc	0x1aec9
	_ZNKSt5ctypeIcE8do_widenEc	0x1aee9
	_ZNKSt5ctypeIcE9do_narrowEcc	0x1aee9
	_ZNKSt5ctypeIwE5do_isENSt10ctype_base4maskEw	0x1aeed
	_ZNKSt5ctypeIwE5do_isEPKwS2_PNSt10ctype_base4maskE	0x1af0d
	_ZNKSt5ctypeIwE10do_toupperEw	0x1af35
	_ZNKSt5ctypeIwE10do_toupperEPwPKw	0x1af49
	_ZNKSt5ctypeIwE10do_tolowerEw	0x1af69
	_ZNKSt5ctypeIwE10do_tolowerEPwPKw	0x1af7d
	_ZNKSt5ctypeIwE8do_widenEc	0x1aee9
	_ZNKSt5ctypeIwE8do_widenEPKcS2_Pw	0x1af9d
	_ZNKSt5ctypeIwE9do_narrowEwc	0x1afaf
	_ZNKSt5ctypeIwE9do_narrowEPKwS2_cPc	0x1afbb
	_ZNSt5ctypeIwED2Ev	0x1afdd
	_ZNSt5ctypeIwED1Ev	0x1afdd
	_ZNSt5ctypeIwED0Ev	0x1aff5
	_ZNSt5ctypeIcED2Ev	0x1b009
	_ZNSt5ctypeIcED1Ev	0x1b009
	_ZNSt5ctypeIcED0Ev	0x1b031
	_ZNKSt5ctypeIcE9do_narrowEPKcS2_cPc	0x1b043
	_ZNKSt5ctypeIcE8do_widenEPKcS2_Pc	0x1b055
	_ZNSt5ctypeIcE13classic_tableEv	0x1b069
	_ZNSt5ctypeIcEC2EPKNSt10ctype_base4maskEbj	0x1b099
	_ZNSt5ctypeIcEC1EPKNSt10ctype_base4maskEbj	0x1b099
	_ZNKSt5ctypeIcE7scan_isENSt10ctype_base4maskEPKcS4_	0x1b191
	_ZNKSt5ctypeIcE8scan_notENSt10ctype_base4maskEPKcS4_	0x1b233
	_ZNKSt5ctypeIwE10do_scan_isENSt10ctype_base4maskEPKwS4_	0x1b2d9
	_ZNKSt5ctypeIwE11do_scan_notENSt10ctype_base4maskEPKwS4_	0x1b385
	_ZNKSt10moneypunctIcLb1EE16do_decimal_pointEv	0x1b3a5
	_ZNKSt10moneypunctIcLb1EE16do_thousands_sepEv	0x1b3a5
	_ZNKSt10moneypunctIcLb1EE13do_pos_formatEv	0x1b3a9
	_ZNKSt10moneypunctIcLb1EE13do_neg_formatEv	0x1b3cf
	_ZNKSt10moneypunctIcLb1EE14do_frac_digitsEv	0x17d85
	_ZNKSt10moneypunctIcLb0EE16do_decimal_pointEv	0x1b3a5
	_ZNKSt10moneypunctIcLb0EE16do_thousands_sepEv	0x1b3a5
	_ZNKSt10moneypunctIcLb0EE13do_pos_formatEv	0x1b3a9
	_ZNKSt10moneypunctIcLb0EE13do_neg_formatEv	0x1b3cf
	_ZNKSt10moneypunctIcLb0EE14do_frac_digitsEv	0x17d85
	_ZNKSt10moneypunctIwLb1EE16do_decimal_pointEv	0x1b3a5
	_ZNKSt10moneypunctIwLb1EE16do_thousands_sepEv	0x1b3a5
	_ZNKSt10moneypunctIwLb1EE14do_frac_digitsEv	0x17d85
	_ZNKSt10moneypunctIwLb1EE13do_pos_formatEv	0x1b3a9
	_ZNKSt10moneypunctIwLb1EE13do_neg_formatEv	0x1b3cf
	_ZNKSt10moneypunctIwLb0EE16do_decimal_pointEv	0x1b3a5
	_ZNKSt10moneypunctIwLb0EE16do_thousands_sepEv	0x1b3a5
	_ZNKSt10moneypunctIwLb0EE14do_frac_digitsEv	0x17d85
	_ZNKSt10moneypunctIwLb0EE13do_pos_formatEv	0x1b3a9
	_ZNKSt10moneypunctIwLb0EE13do_neg_formatEv	0x1b3cf
	_ZNSt10moneypunctIwLb0EED2Ev	0x1b3f5
	_ZNSt10moneypunctIwLb0EED1Ev	0x1b3f5
	_ZNSt10moneypunctIwLb0EED0Ev	0x1b40d
	_ZNSt10moneypunctIwLb1EED2Ev	0x1b421
	_ZNSt10moneypunctIwLb1EED1Ev	0x1b421
	_ZNSt10moneypunctIwLb1EED0Ev	0x1b439
	_ZNSt10moneypunctIcLb0EED2Ev	0x1b44d
	_ZNSt10moneypunctIcLb0EED1Ev	0x1b44d
	_ZNSt10moneypunctIcLb0EED0Ev	0x1b465
	_ZNSt10moneypunctIcLb1EED2Ev	0x1b479
	_ZNSt10moneypunctIcLb1EED1Ev	0x1b479
	_ZNSt10moneypunctIcLb1EED0Ev	0x1b491
	_ZNSt10moneypunctIcLb1EEC2Ej	0x1b4d5
	_ZNSt10moneypunctIcLb1EEC1Ej	0x1b4d5
	_ZNSt10moneypunctIcLb0EEC2Ej	0x1b505
	_ZNSt10moneypunctIcLb0EEC1Ej	0x1b505
	_ZNSt10moneypunctIwLb1EEC2Ej	0x1b535
	_ZNSt10moneypunctIwLb1EEC1Ej	0x1b535
	_ZNSt10moneypunctIwLb0EEC2Ej	0x1b565
	_ZNSt10moneypunctIwLb0EEC1Ej	0x1b565
	_ZNSsC2EPKcRKSaIcE	0x1b5e1
	_ZNSsC1EPKcRKSaIcE	0x1b5e1
	_ZNKSt10moneypunctIwLb0EE11do_groupingEv	0x1b601
	_ZNKSt10moneypunctIwLb1EE11do_groupingEv	0x1b601
	_ZNKSt10moneypunctIcLb0EE16do_negative_signEv	0x1b601
	_ZNKSt10moneypunctIcLb0EE16do_positive_signEv	0x1b601
	_ZNKSt10moneypunctIcLb0EE14do_curr_symbolEv	0x1b601
	_ZNKSt10moneypunctIcLb0EE11do_groupingEv	0x1b601
	_ZNKSt10moneypunctIcLb1EE16do_negative_signEv	0x1b601
	_ZNKSt10moneypunctIcLb1EE16do_positive_signEv	0x1b601
	_ZNKSt10moneypunctIcLb1EE14do_curr_symbolEv	0x1b601
	_ZNKSt10moneypunctIcLb1EE11do_groupingEv	0x1b601
	_ZNSbIwSt11char_traitsIwESaIwEEC2EPKwRKS1_	0x1b675
	_ZNSbIwSt11char_traitsIwESaIwEEC1EPKwRKS1_	0x1b675
	_ZNKSt10moneypunctIwLb0EE16do_negative_signEv	0x1b695
	_ZNKSt10moneypunctIwLb0EE16do_positive_signEv	0x1b695
	_ZNKSt10moneypunctIwLb0EE14do_curr_symbolEv	0x1b695
	_ZNKSt10moneypunctIwLb1EE16do_negative_signEv	0x1b695
	_ZNKSt10moneypunctIwLb1EE16do_positive_signEv	0x1b695
	_ZNKSt10moneypunctIwLb1EE14do_curr_symbolEv	0x1b695
	_ZNSt4priv16__valid_groupingEPKcS1_S1_S1_	0x1b6ad
	_ZNSt4priv17__digit_val_tableEj	0x1b6e9
	_ZNSt4priv14__narrow_atomsEv	0x1b6f5
	_ZNSt4priv12__get_fdigitERwPKw	0x1b701
	_ZNSt4priv19__get_fdigit_or_sepERwwPKw	0x1b77f
	_ZNSt4priv19__hex_char_table_loEv	0x1b7dd
	_ZNSt4priv19__hex_char_table_hiEv	0x1b7e9
	_ZNSt4priv15__write_integerEPcil	0x1b7f5
	_ZNSt4priv17__insert_groupingEPcS0_RKSsccci	0x1b959
	_ZNSt4priv17__insert_groupingEPwS0_RKSswwwi	0x1b9dd
	_ZNSt12__node_alloc13_M_deallocateEPvj	0x2cbe1
	_ZNSt4priv17__insert_groupingERNS_16__basic_iostringIcEEjRKSsccci	0x1bac9
	_ZNSt4priv17__insert_groupingERNS_16__basic_iostringIwEEjRKSswwwi	0x1bd1f
	_ZNSt4priv21_Initialize_get_floatERKSt5ctypeIwERwS4_S4_S4_Pw	0x1c119
	_ZNSt4priv17__string_to_floatERKNS_16__basic_iostringIcEERd	0x1c549
	_ZNSt4priv17__string_to_floatERKNS_16__basic_iostringIcEERf	0x1c55b
	_ZNSt4priv10_Stl_atodTIe19ieee854_long_doubleLi16ELi16383EEET_Pcii	0x1c571
	_ZNSt4priv22_Stl_string_to_doubleTIe19ieee854_long_doubleLi16ELi16383EEET_PKc	0x1c7b5
	_ZNSt4priv17__string_to_floatERKNS_16__basic_iostringIcEERe	0x1c8bd
	_ZNSt4priv21__adjust_float_bufferERNS_16__basic_iostringIcEEc	0x1c951
	_ZNSbIcSt11char_traitsIcENSt4priv20__iostring_allocatorIcEEE9_M_appendEPKcS6_	0x1ca4b
	_ZNSt4priv18__get_floor_digitsERNS_16__basic_iostringIcEEe	0x1cb21
	_ZNSbIwSt11char_traitsIwENSt4priv20__iostring_allocatorIwEEE10_M_reserveEj	0x1cc19
	_ZNSt4priv22__convert_float_bufferERKNS_16__basic_iostringIcEERNS0_IwEERKSt5ctypeIwEwb	0x1cd1d
	_ZNSt4priv13__write_floatERNS_16__basic_iostringIcEEiid	0x1ce6d
	_ZNSt4priv13__write_floatERNS_16__basic_iostringIcEEiie	0x1cee5
	_ZNKSt8numpunctIcE16do_decimal_pointEv	0x1ceed
	_ZNKSt8numpunctIcE16do_thousands_sepEv	0x1cef1
	_ZNKSt8numpunctIwE16do_decimal_pointEv	0x1ceed
	_ZNKSt8numpunctIwE16do_thousands_sepEv	0x1cef1
	_ZNSt8numpunctIwED2Ev	0x1cef5
	_ZNSt8numpunctIwED1Ev	0x1cef5
	_ZNSt8numpunctIwED0Ev	0x1cf0d
	_ZNSt8numpunctIcED2Ev	0x1cf21
	_ZNSt8numpunctIcED1Ev	0x1cf21
	_ZNSt8numpunctIcED0Ev	0x1cf39
	_ZNKSt8numpunctIwE12do_falsenameEv	0x1cf4d
	_ZNKSt8numpunctIwE11do_truenameEv	0x1cf65
	_ZNKSt8numpunctIcE12do_falsenameEv	0x1cf7d
	_ZNKSt8numpunctIcE11do_truenameEv	0x1cf95
	_ZNKSt8numpunctIwE11do_groupingEv	0x1cfc5
	_ZNKSt8numpunctIcE11do_groupingEv	0x1cfc5
	_Locale_d_fmt	0x2d449
	_ZNSt4priv15_Time_Info_BaseC2Ev	0x1d127
	_ZNSt4priv15_Time_Info_BaseC1Ev	0x1d127
	_ZNSt4priv10_Time_InfoC2Ev	0x1d15d
	_ZNSt4priv10_Time_InfoC1Ev	0x1d15d
	_ZNSt4priv11_WTime_InfoC2Ev	0x1d1c1
	_ZNSt4priv11_WTime_InfoC1Ev	0x1d1c1
	_ZNSs9_M_appendEPKcS0_	0x1d20d
	_Locale_t_fmt	0x2d455
	_Locale_d_t_fmt	0x2d449
	_Locale_long_d_fmt	0x2d3bd
	_Locale_long_d_t_fmt	0x2d3bd
	_Locale_abbrev_dayofweek	0x2d439
	_Locale_full_dayofweek	0x2d429
	_Locale_abbrev_monthname	0x2d419
	_Locale_full_monthname	0x2d409
	_Locale_am_str	0x2d461
	_Locale_pm_str	0x2d46d
	_ZNSt4priv9time_initIcEC2EP12_Locale_time	0x1d503
	_ZNSt4priv9time_initIcEC1EP12_Locale_time	0x1d503
	_ZNSt4priv9time_initIcEC2EPKc	0x1d525
	_ZNSt6locale21_M_throw_on_null_nameEv	0x17c8f
	_ZNSt4priv14__acquire_timeERPKcPcP17_Locale_name_hintPi	0x29c75
	_ZNSt6locale28_M_throw_on_creation_failureEiPKcS1_	0x1fa29
	_ZNSt4priv14__release_timeEP12_Locale_time	0x29e4d
	_ZNSt4priv9time_initIcEC1EPKc	0x1d525
	_ZNSt4priv9time_initIcEC2Ev	0x1d599
	_ZNSt4priv9time_initIcEC1Ev	0x1d599
	_ZNSbIwSt11char_traitsIwESaIwEE9_M_appendEPKwS4_	0x1d619
	_WLocale_abbrev_dayofweek	0x2d4a9
	_WLocale_full_dayofweek	0x2d499
	_WLocale_abbrev_monthname	0x2d489
	_WLocale_full_monthname	0x2d479
	_WLocale_am_str	0x2d4b9
	_WLocale_pm_str	0x2d4c5
	_ZNSt4priv9time_initIwEC2EP12_Locale_time	0x1d87f
	_ZNSt4priv9time_initIwEC1EP12_Locale_time	0x1d87f
	_ZNSt4priv9time_initIwEC2EPKc	0x1d8a1
	_ZNSt4priv9time_initIwEC1EPKc	0x1d8a1
	_ZNSt4priv9time_initIwEC2Ev	0x1d915
	_ZNSt4priv9time_initIwEC1Ev	0x1d915
	_ZNSbIcSt11char_traitsIcENSt4priv20__iostring_allocatorIcEEE6appendEjc	0x1da41
	_ZNSt4priv23__write_formatted_timeTIcNS_10_Time_InfoEEEvRNS_16__basic_iostringIT_EERKSt5ctypeIS3_EccRKT0_PK2tm	0x1db99
	_ZNSt4priv11__subformatIcNS_10_Time_InfoEEEvRNS_16__basic_iostringIT_EERKSt5ctypeIS3_ERKSsRKT0_PK2tm	0x1e055
	_ZNSt4priv22__write_formatted_timeERNS_16__basic_iostringIcEERKSt5ctypeIcEccRKNS_10_Time_InfoEPK2tm	0x1e049
	_ZNSbIwSt11char_traitsIwENSt4priv20__iostring_allocatorIwEEE6appendEjw	0x1e139
	_ZNSt4priv23__write_formatted_timeTIwNS_11_WTime_InfoEEEvRNS_16__basic_iostringIT_EERKSt5ctypeIS3_EccRKT0_PK2tm	0x1e2ad
	_ZNSt4priv11__subformatIwNS_11_WTime_InfoEEEvRNS_16__basic_iostringIT_EERKSt5ctypeIS3_ERKSsRKT0_PK2tm	0x1e785
	_ZNSt4priv22__write_formatted_timeERNS_16__basic_iostringIwEERKSt5ctypeIwEccRKNS_11_WTime_InfoEPK2tm	0x1e779
	_ZNKSt4priv19_Catalog_locale_map6lookupEi	0x1e8eb
	_ZNSt6locale7classicEv	0x1f459
	_ZNSt4priv9_MessagesC2EbPKc	0x1e935
	_ZNSt4priv18__acquire_messagesERPKcPcP17_Locale_name_hintPi	0x29bb5
	_ZNSt4priv9_MessagesC1EbPKc	0x1e935
	_ZNSt4priv9_MessagesC2EbP16_Locale_messages	0x1e9a1
	_ZNSt4priv9_MessagesC1EbP16_Locale_messages	0x1e9a1
	_ZNSt8messagesIcEC2Ej	0x1e9bd
	_ZNSt8messagesIcEC1Ej	0x1e9bd
	_ZNSt15messages_bynameIcEC2EPKcj	0x1e9dd
	_ZNSt15messages_bynameIcEC1EPKcj	0x1e9dd
	_ZNSt15messages_bynameIcEC2EP16_Locale_messages	0x1ea0d
	_ZNSt15messages_bynameIcEC1EP16_Locale_messages	0x1ea0d
	_ZNSt8messagesIwEC2Ej	0x1ea39
	_ZNSt8messagesIwEC1Ej	0x1ea39
	_ZNSt15messages_bynameIwEC2EPKcj	0x1ea59
	_ZNSt15messages_bynameIwEC1EPKcj	0x1ea59
	_ZNSt15messages_bynameIwEC2EP16_Locale_messages	0x1ea89
	_ZNSt15messages_bynameIwEC1EP16_Locale_messages	0x1ea89
	_ZNKSt4priv9_Messages6do_getEiiiRKSs	0x1eacf
	_Locale_catgets	0x2d4d1
	_ZNKSt15messages_bynameIcE6do_getEiiiRKSs	0x1eb0f
	_ZNSbIwSt11char_traitsIwESaIwEEC2ERKS2_	0x1eb3d
	_ZNSbIwSt11char_traitsIwESaIwEEC1ERKS2_	0x1eb3d
	_ZNKSt4priv9_Messages6do_getEiiiRKSbIwSt11char_traitsIwESaIwEE	0x1eb75
	_ZNKSt15messages_bynameIwE6do_getEiiiRKSbIwSt11char_traitsIwESaIwEE	0x1ec59
	_ZNSt4priv10_Stl_primeIbE12_S_next_sizeEj	0x1ec89
	_ZNSt9hashtableISt4pairIKiSt6localeEiSt4hashIiENSt4priv15_HashMapTraitsTIS3_EENS6_10_Select1stIS3_EESt8equal_toIiESaIS3_EE15_S_before_beginERKSt5slistIS3_SD_ERKSt6vectorIPNS6_16_Slist_node_baseESaISL_EERj	0x1eccd
	_ZNSt6vectorIPNSt4priv16_Slist_node_baseESaIS2_EE14_M_fill_assignEjRKS2_	0x1ed53
	_ZNSt4priv9_MessagesD2Ev	0x1ee1b
	_ZNSt4priv18__release_messagesEP16_Locale_messages	0x29ded
	_ZNSt4priv9_MessagesD1Ev	0x1ee1b
	_ZNSt15messages_bynameIwED2Ev	0x1ee45
	_ZNSt15messages_bynameIwED1Ev	0x1ee45
	_ZNSt15messages_bynameIwED0Ev	0x1ee71
	_ZNSt15messages_bynameIcED2Ev	0x1ee85
	_ZNSt15messages_bynameIcED1Ev	0x1ee85
	_ZNSt15messages_bynameIcED0Ev	0x1eeb1
	_ZNSt9hashtableISt4pairIKiSt6localeEiSt4hashIiENSt4priv15_HashMapTraitsTIS3_EENS6_10_Select1stIS3_EESt8equal_toIiESaIS3_EE9_M_rehashEj	0x1ef59
	_ZNSt9hashtableISt4pairIKiSt6localeEiSt4hashIiENSt4priv15_HashMapTraitsTIS3_EENS6_10_Select1stIS3_EESt8equal_toIiESaIS3_EE9_M_reduceEv	0x1f019
	_ZNSt9hashtableISt4pairIKiSt6localeEiSt4hashIiENSt4priv15_HashMapTraitsTIS3_EENS6_10_Select1stIS3_EESt8equal_toIiESaIS3_EE5eraseERS1_	0x1f0f5
	_ZNSt4priv19_Catalog_locale_map5eraseEi	0x1f1b9
	_ZNKSt4priv9_Messages8do_closeEi	0x1f1c9
	_Locale_catclose	0x17c8f
	_ZNKSt15messages_bynameIwE8do_closeEi	0x1f1e7
	_ZNKSt15messages_bynameIcE8do_closeEi	0x1f1e7
	_ZNSt4priv19_Catalog_locale_map6insertEiRKSt6locale	0x1f1ed
	_ZNKSt4priv9_Messages7do_openERKSsRKSt6locale	0x1f2ef
	_Locale_catopen	0x17dc3
	_ZNKSt15messages_bynameIwE7do_openERKSsRKSt6locale	0x1f31b
	_ZNKSt15messages_bynameIcE7do_openERKSsRKSt6locale	0x1f31b
	_ZNSt6locale5facetD1Ev	0x1f321
	_ZNSt6locale5facetD0Ev	0x1f33d
	_ZNSt6localeC2Ev	0x1f367
	_ZSt22_Stl_get_global_localev	0x21141
	_ZSt16_get_Locale_implPSt12_Locale_impl	0x206e1
	_ZNSt6localeC2ERKS_	0x1f37b
	_ZNSt6locale9_M_insertEPNS_5facetERNS_2idE	0x1f38d
	_ZNSt12_Locale_impl6insertEPNSt6locale5facetERKNS0_2idE	0x21499
	_ZNSt6localeC2EPSt12_Locale_impl	0x1f3dd
	_ZNSt6localeC1EPSt12_Locale_impl	0x1f3dd
	_ZNSt6localeD2Ev	0x1f3ed
	_ZSt20_release_Locale_implRPSt12_Locale_impl	0x20ac5
	_ZNSt12_Locale_impl17_M_throw_bad_castEv	0x17c8f
	_ZSt23_Stl_get_classic_localev	0x21191
	_ZNSsC2ERKSs	0x1f45d
	_ZNSsC1ERKSs	0x1f45d
	_ZNKSt6locale4nameEv	0x1f473
	_ZNSt6locale6globalERKS_	0x1f485
	_ZNKSt6localeeqERKS_	0x1f51d
	_ZNSs9_M_assignEPKcS0_	0x1f609
	_ZNSt6localeC2ERKS_S1_i	0x1f659
	_ZNSt12_Locale_implC1ERKS_	0x21241
	_ZNSt12_Locale_impl6insertEPS_RKNSt6locale2idE	0x215a5
	_ZNSt6localeC1ERKS_S1_i	0x1f659
	_ZNSt6localeC2EPKc	0x1f8f1
	_ZNSt12_Locale_implC1EjPKc	0x211e1
	_ZNSt12_Locale_impl19insert_ctype_facetsERPKcPcP17_Locale_name_hint	0x21c95
	_ZNSt12_Locale_impl21insert_numeric_facetsERPKcPcP17_Locale_name_hint	0x21b31
	_ZNSt12_Locale_impl18insert_time_facetsERPKcPcP17_Locale_name_hint	0x219bd
	_ZNSt12_Locale_impl21insert_collate_facetsERPKcPcP17_Locale_name_hint	0x21891
	_ZNSt12_Locale_impl22insert_monetary_facetsERPKcPcP17_Locale_name_hint	0x216ad
	_ZNSt12_Locale_impl22insert_messages_facetsERPKcPcP17_Locale_name_hint	0x215c9
	_ZNSt6localeC1EPKc	0x1f8f1
	_ZNSt6locale25_M_throw_on_combine_errorERKSs	0x1fb45
	_ZNSt6localeC2ERKS_PKci	0x1fc6d
	_Locale_extract_ctype_name	0x2d10d
	_Locale_extract_time_name	0x2d119
	_Locale_extract_numeric_name	0x2d113
	_Locale_extract_collate_name	0x2d11f
	_Locale_extract_monetary_name	0x2d125
	_Locale_extract_messages_name	0x2d12b
	_ZNSt6localeC1ERKS_PKci	0x1fc6d
	_ZNSt14_Refcount_BaseD2Ev	0x204c9
	_ZNSt14_Refcount_BaseD1Ev	0x204c9
	_ZSt10_get_facetPNSt6locale5facetE	0x20501
	_ZSt14_release_facetRPNSt6locale5facetE	0x2052d
	_ZNKSt12_Locale_impl4Init8_M_countEv	0x20675
	_ZNSt12_Locale_impl4InitD2Ev	0x206d1
	_ZNSt12_Locale_impl4InitD1Ev	0x206d1
	_ZNSt12_Locale_impl15_S_uninitializeEv	0x17c8f
	_ZNSt4priv11_GetFacetIdEPKSt9money_getIcSt19istreambuf_iteratorIcSt11char_traitsIcEEE	0x206ed
	_ZNSt4priv11_GetFacetIdEPKSt9money_putIcSt19ostreambuf_iteratorIcSt11char_traitsIcEEE	0x20701
	_ZNSt4priv11_GetFacetIdEPKSt9money_getIwSt19istreambuf_iteratorIwSt11char_traitsIwEEE	0x20715
	_ZNSt4priv11_GetFacetIdEPKSt9money_putIwSt19ostreambuf_iteratorIwSt11char_traitsIwEEE	0x20729
	_ZNSt4priv11_GetFacetIdEPKSt7num_getIcSt19istreambuf_iteratorIcSt11char_traitsIcEEE	0x2073d
	_ZNSt4priv11_GetFacetIdEPKSt7num_getIwSt19istreambuf_iteratorIwSt11char_traitsIwEEE	0x20751
	_ZNSt4priv11_GetFacetIdEPKSt7num_putIcSt19ostreambuf_iteratorIcSt11char_traitsIcEEE	0x20765
	_ZNSt4priv11_GetFacetIdEPKSt7num_putIwSt19ostreambuf_iteratorIwSt11char_traitsIwEEE	0x20779
	_ZNSt4priv11_GetFacetIdEPKSt8time_getIcSt19istreambuf_iteratorIcSt11char_traitsIcEEE	0x2078d
	_ZNSt4priv11_GetFacetIdEPKSt8time_putIcSt19ostreambuf_iteratorIcSt11char_traitsIcEEE	0x207a1
	_ZNSt4priv11_GetFacetIdEPKSt8time_getIwSt19istreambuf_iteratorIwSt11char_traitsIwEEE	0x207b5
	_ZNSt4priv11_GetFacetIdEPKSt8time_putIwSt19ostreambuf_iteratorIwSt11char_traitsIwEEE	0x207c9
	_ZNSt4priv15_Time_Info_BaseD2Ev	0x207dd
	_ZNSt4priv15_Time_Info_BaseD1Ev	0x207dd
	_ZNSt4priv10_Time_InfoD2Ev	0x2080b
	_ZNSt4priv10_Time_InfoD1Ev	0x2080b
	_ZNSt4priv11_WTime_InfoD2Ev	0x2094b
	_ZNSt4priv11_WTime_InfoD1Ev	0x2094b
	_ZNSt12_Locale_implD2Ev	0x20a89
	_ZNSt12_Locale_implD1Ev	0x20a89
	_ZNSt6vectorIPNSt6locale5facetESaIS2_EE7reserveEj	0x20b11
	_ZNSt12_Locale_implC2EPKc	0x20c39
	_ZNSt12_Locale_impl4InitC1Ev	0x21129
	_ZNSt12_Locale_implC1EPKc	0x20c39
	_ZNSt12_Locale_impl19make_classic_localeEv	0x20c7d
	_ZNSt12_Locale_impl13_S_initializeEv	0x21089
	_ZNSt12_Locale_impl4InitC2Ev	0x21129
	_ZNSt12_Locale_implC2EjPKc	0x211e1
	_ZNSt12_Locale_implC2ERKS_	0x21241
	_ZNSt6vectorIPNSt6locale5facetESaIS2_EE18_M_fill_insert_auxEPS2_jRKS2_RKSt12__false_type	0x213db
	_Locale_messages_default	0x2d101
	_Locale_monetary_default	0x2d101
	_Locale_get_monetary_hint	0x17d85
	_ZNSt17moneypunct_bynameIcLb0EEC1EP16_Locale_monetary	0x2aa6d
	_ZNSt4priv18__acquire_monetaryERPKcPcP17_Locale_name_hintPi	0x29bf5
	_ZNSt17moneypunct_bynameIcLb1EEC1EP16_Locale_monetary	0x2a9c9
	_ZNSt17moneypunct_bynameIwLb0EEC1EP16_Locale_monetary	0x2abb5
	_ZNSt17moneypunct_bynameIwLb1EEC1EP16_Locale_monetary	0x2ab11
	_Locale_collate_default	0x2d101
	_Locale_get_collate_hint	0x17d85
	_ZNSt4priv17__acquire_collateERPKcPcP17_Locale_name_hintPi	0x29c35
	_Locale_time_default	0x2d101
	_Locale_get_time_hint	0x17d85
	_Locale_numeric_default	0x2d101
	_Locale_get_numeric_hint	0x17d85
	_ZNSt4priv17__acquire_numericERPKcPcP17_Locale_name_hintPi	0x29cb5
	_Locale_ctype_default	0x2d101
	_Locale_get_ctype_hint	0x17d85
	_ZNSt12ctype_bynameIcE7_M_initEv	0x2a5ff
	_ZNSt14codecvt_bynameIcc9mbstate_tEC1EPKcj	0x2a7f5
	_ZNSt4priv15__acquire_ctypeERPKcPcP17_Locale_name_hintPi	0x29d35
	_ZNSt4priv17__acquire_codecvtERPKcPcP17_Locale_name_hintPi	0x29cf5
	_ZSt26_copy_Nameless_Locale_implPSt12_Locale_impl	0x21e5d
	_ZNKSt8time_putIcSt19ostreambuf_iteratorIcSt11char_traitsIcEEE6do_putES3_RSt8ios_basecPK2tmcc	0x21f6d
	_ZNSt4priv13__do_put_boolIwSt19ostreambuf_iteratorIwSt11char_traitsIwEEEET0_S5_RSt8ios_baseT_b	0x2201b
	_ZNKSt7num_putIwSt19ostreambuf_iteratorIwSt11char_traitsIwEEE6do_putES3_RSt8ios_basewb	0x220d9
	_ZNSt4priv13__do_put_boolIcSt19ostreambuf_iteratorIcSt11char_traitsIcEEEET0_S5_RSt8ios_baseT_b	0x22149
	_ZNKSt7num_putIcSt19ostreambuf_iteratorIcSt11char_traitsIcEEE6do_putES3_RSt8ios_basecb	0x22239
	_ZNSt4priv24__write_integer_backwardImEEPcS1_iT_	0x2227b
	_ZNKSt8time_putIwSt19ostreambuf_iteratorIwSt11char_traitsIwEEE6do_putES3_RSt8ios_basewPK2tmcc	0x2240d
	_ZNSt4priv18__get_base_or_zeroISt19istreambuf_iteratorIwSt11char_traitsIwEEwEEiRT_S6_iRKSt5ctypeIT0_E	0x2250d
	_ZNSt4priv16__do_get_integerISt19istreambuf_iteratorIwSt11char_traitsIwEEywEET_RS5_S6_RSt8ios_baseRiRT0_PT1_	0x22631
	_ZNKSt7num_getIwSt19istreambuf_iteratorIwSt11char_traitsIwEEE6do_getES3_S3_RSt8ios_baseRiRy	0x22849
	_ZNKSt7num_getIwSt19istreambuf_iteratorIwSt11char_traitsIwEEE6do_getES3_S3_RSt8ios_baseRiRPv	0x22875
	_ZNKSt7num_getIwSt19istreambuf_iteratorIwSt11char_traitsIwEEE6do_getES3_S3_RSt8ios_baseRiRx	0x228b1
	_ZNKSt7num_getIwSt19istreambuf_iteratorIwSt11char_traitsIwEEE6do_getES3_S3_RSt8ios_baseRiRm	0x22ad1
	_ZNKSt7num_getIwSt19istreambuf_iteratorIwSt11char_traitsIwEEE6do_getES3_S3_RSt8ios_baseRiRj	0x22c7d
	_ZNKSt7num_getIwSt19istreambuf_iteratorIwSt11char_traitsIwEEE6do_getES3_S3_RSt8ios_baseRiRt	0x22e29
	_ZNSt4priv16__do_get_integerISt19istreambuf_iteratorIwSt11char_traitsIwEElwEET_RS5_S6_RSt8ios_baseRiRT0_PT1_	0x22fe1
	_ZNKSt7num_getIwSt19istreambuf_iteratorIwSt11char_traitsIwEEE6do_getES3_S3_RSt8ios_baseRiRl	0x23195
	_ZNKSt8time_getIwSt19istreambuf_iteratorIwSt11char_traitsIwEEE11do_get_yearES3_S3_RSt8ios_baseRiP2tm	0x232c9
	_ZNSt4priv7__matchISt19istreambuf_iteratorIwSt11char_traitsIwEEPKSbIwS3_SaIwEEEEjRT_SA_T0_SB_	0x2332d
	_ZNKSt8time_getIwSt19istreambuf_iteratorIwSt11char_traitsIwEEE16do_get_monthnameES3_S3_RSt8ios_baseRiP2tm	0x2340d
	_ZNKSt8time_getIwSt19istreambuf_iteratorIwSt11char_traitsIwEEE14do_get_weekdayES3_S3_RSt8ios_baseRiP2tm	0x23473
	_ZNSt4priv12__get_stringISt19istreambuf_iteratorIwSt11char_traitsIwEEPwEESt4pairIT_bES7_S7_T0_S9_	0x234d9
	_ZNSt4priv18__do_get_alphaboolISt19istreambuf_iteratorIwSt11char_traitsIwEEwEET_RS5_S6_RSt8ios_baseRiRbPT0_	0x23539
	_ZNKSt7num_getIwSt19istreambuf_iteratorIwSt11char_traitsIwEEE6do_getES3_S3_RSt8ios_baseRiRb	0x23655
	_ZNSt4priv20__get_formatted_timeISt19istreambuf_iteratorIwSt11char_traitsIwEEwNS_11_WTime_InfoEEEPKcT_S8_S7_S7_PT0_RKT1_RKSt8ios_baseRiP2tm	0x236c1
	_ZNKSt8time_getIwSt19istreambuf_iteratorIwSt11char_traitsIwEEE11do_get_dateES3_S3_RSt8ios_baseRiP2tm	0x238c7
	_ZNKSt8time_getIwSt19istreambuf_iteratorIwSt11char_traitsIwEEE11do_get_timeES3_S3_RSt8ios_baseRiP2tm	0x2393d
	_ZNSt4priv18__get_base_or_zeroISt19istreambuf_iteratorIcSt11char_traitsIcEEcEEiRT_S6_iRKSt5ctypeIT0_E	0x23a49
	_ZNSt4priv16__do_get_integerISt19istreambuf_iteratorIcSt11char_traitsIcEEycEET_RS5_S6_RSt8ios_baseRiRT0_PT1_	0x23b79
	_ZNKSt7num_getIcSt19istreambuf_iteratorIcSt11char_traitsIcEEE6do_getES3_S3_RSt8ios_baseRiRy	0x23d91
	_ZNKSt7num_getIcSt19istreambuf_iteratorIcSt11char_traitsIcEEE6do_getES3_S3_RSt8ios_baseRiRPv	0x23db7
	_ZNKSt7num_getIcSt19istreambuf_iteratorIcSt11char_traitsIcEEE6do_getES3_S3_RSt8ios_baseRiRx	0x23de9
	_ZNKSt7num_getIcSt19istreambuf_iteratorIcSt11char_traitsIcEEE6do_getES3_S3_RSt8ios_baseRiRm	0x24009
	_ZNKSt7num_getIcSt19istreambuf_iteratorIcSt11char_traitsIcEEE6do_getES3_S3_RSt8ios_baseRiRj	0x24009
	_ZNKSt7num_getIcSt19istreambuf_iteratorIcSt11char_traitsIcEEE6do_getES3_S3_RSt8ios_baseRiRt	0x241ad
	_ZNSt4priv16__do_get_integerISt19istreambuf_iteratorIcSt11char_traitsIcEElcEET_RS5_S6_RSt8ios_baseRiRT0_PT1_	0x2435d
	_ZNKSt7num_getIcSt19istreambuf_iteratorIcSt11char_traitsIcEEE6do_getES3_S3_RSt8ios_baseRiRl	0x24511
	_ZNKSt8time_getIcSt19istreambuf_iteratorIcSt11char_traitsIcEEE11do_get_yearES3_S3_RSt8ios_baseRiP2tm	0x24641
	_ZNSt4priv7__matchISt19istreambuf_iteratorIcSt11char_traitsIcEEPKSsEEjRT_S8_T0_S9_	0x24699
	_ZNKSt8time_getIcSt19istreambuf_iteratorIcSt11char_traitsIcEEE16do_get_monthnameES3_S3_RSt8ios_baseRiP2tm	0x24771
	_ZNKSt8time_getIcSt19istreambuf_iteratorIcSt11char_traitsIcEEE14do_get_weekdayES3_S3_RSt8ios_baseRiP2tm	0x247cb
	_ZNSt4priv12__get_stringISt19istreambuf_iteratorIcSt11char_traitsIcEEPcEESt4pairIT_bES7_S7_T0_S9_	0x24821
	_ZNSt4priv18__do_get_alphaboolISt19istreambuf_iteratorIcSt11char_traitsIcEEcEET_RS5_S6_RSt8ios_baseRiRbPT0_	0x24889
	_ZNKSt7num_getIcSt19istreambuf_iteratorIcSt11char_traitsIcEEE6do_getES3_S3_RSt8ios_baseRiRb	0x249d1
	_ZNSt4priv20__get_formatted_timeISt19istreambuf_iteratorIcSt11char_traitsIcEEcNS_10_Time_InfoEEEPKcT_S8_S7_S7_PT0_RKT1_RKSt8ios_baseRiP2tm	0x24a33
	_ZNKSt8time_getIcSt19istreambuf_iteratorIcSt11char_traitsIcEEE11do_get_dateES3_S3_RSt8ios_baseRiP2tm	0x24c37
	_ZNKSt8time_getIcSt19istreambuf_iteratorIcSt11char_traitsIcEEE11do_get_timeES3_S3_RSt8ios_baseRiP2tm	0x24ca1
	_ZNSt4priv23__copy_integer_and_fillIwSt19ostreambuf_iteratorIwSt11char_traitsIwEEEET0_PKT_iS5_iiS6_S6_S6_	0x24d03
	_ZNSt4priv13__put_integerISt19ostreambuf_iteratorIwSt11char_traitsIwEEEET_PcS6_S5_RSt8ios_baseiw	0x24e2d
	_ZNSt4priv16__do_put_integerIwSt19ostreambuf_iteratorIwSt11char_traitsIwEEmEET0_S5_RSt8ios_baseT_T1_	0x24f41
	_ZNKSt7num_putIwSt19ostreambuf_iteratorIwSt11char_traitsIwEEE6do_putES3_RSt8ios_basewPKv	0x24f9d
	_ZNKSt7num_putIwSt19ostreambuf_iteratorIwSt11char_traitsIwEEE6do_putES3_RSt8ios_basewm	0x25035
	_ZNKSt7num_putIwSt19ostreambuf_iteratorIwSt11char_traitsIwEEE6do_putES3_RSt8ios_basewy	0x25055
	_ZNKSt7num_putIwSt19ostreambuf_iteratorIwSt11char_traitsIwEEE6do_putES3_RSt8ios_basewx	0x250f5
	_ZNKSt7num_putIwSt19ostreambuf_iteratorIwSt11char_traitsIwEEE6do_putES3_RSt8ios_basewl	0x25195
	_ZNSt4priv21__copy_float_and_fillIwSt19ostreambuf_iteratorIwSt11char_traitsIwEEEET0_PKT_S8_S5_iiS6_S6_S6_	0x25229
	_ZNSt4priv11__put_floatISt19ostreambuf_iteratorIwSt11char_traitsIwEEEET_RNS_16__basic_iostringIcEES5_RSt8ios_basewwwjRKSs	0x252ff
	_ZNSt4priv14__do_put_floatIwSt19ostreambuf_iteratorIwSt11char_traitsIwEEeEET0_S5_RSt8ios_baseT_T1_	0x253dd
	_ZNKSt7num_putIwSt19ostreambuf_iteratorIwSt11char_traitsIwEEE6do_putES3_RSt8ios_basewe	0x25491
	_ZNSt4priv14__do_put_floatIwSt19ostreambuf_iteratorIwSt11char_traitsIwEEdEET0_S5_RSt8ios_baseT_T1_	0x254b9
	_ZNKSt7num_putIwSt19ostreambuf_iteratorIwSt11char_traitsIwEEE6do_putES3_RSt8ios_basewd	0x2556d
	_ZNSt4priv23__copy_integer_and_fillIcSt19ostreambuf_iteratorIcSt11char_traitsIcEEEET0_PKT_iS5_iiS6_S6_S6_	0x25593
	_ZNSt4priv13__put_integerISt19ostreambuf_iteratorIcSt11char_traitsIcEEEET_PcS6_S5_RSt8ios_baseic	0x256b9
	_ZNSt4priv16__do_put_integerIcSt19ostreambuf_iteratorIcSt11char_traitsIcEEmEET0_S5_RSt8ios_baseT_T1_	0x257ad
	_ZNKSt7num_putIcSt19ostreambuf_iteratorIcSt11char_traitsIcEEE6do_putES3_RSt8ios_basecPKv	0x2580d
	_ZNKSt7num_putIcSt19ostreambuf_iteratorIcSt11char_traitsIcEEE6do_putES3_RSt8ios_basecm	0x258a5
	_ZNKSt7num_putIcSt19ostreambuf_iteratorIcSt11char_traitsIcEEE6do_putES3_RSt8ios_basecy	0x258c9
	_ZNKSt7num_putIcSt19ostreambuf_iteratorIcSt11char_traitsIcEEE6do_putES3_RSt8ios_basecx	0x2596d
	_ZNKSt7num_putIcSt19ostreambuf_iteratorIcSt11char_traitsIcEEE6do_putES3_RSt8ios_basecl	0x25a11
	_ZNSt4priv21__copy_float_and_fillIcSt19ostreambuf_iteratorIcSt11char_traitsIcEEEET0_PKT_S8_S5_iiS6_S6_S6_	0x25aa5
	_ZNSt4priv11__put_floatISt19ostreambuf_iteratorIcSt11char_traitsIcEEEET_RNS_16__basic_iostringIcEES5_RSt8ios_basecccjRKSs	0x25b85
	_ZNSt4priv14__do_put_floatIcSt19ostreambuf_iteratorIcSt11char_traitsIcEEeEET0_S5_RSt8ios_baseT_T1_	0x25c09
	_ZNKSt7num_putIcSt19ostreambuf_iteratorIcSt11char_traitsIcEEE6do_putES3_RSt8ios_basece	0x25cbd
	_ZNSt4priv14__do_put_floatIcSt19ostreambuf_iteratorIcSt11char_traitsIcEEdEET0_S5_RSt8ios_baseT_T1_	0x25ce5
	_ZNKSt7num_putIcSt19ostreambuf_iteratorIcSt11char_traitsIcEEE6do_putES3_RSt8ios_basecd	0x25d99
	_ZNSt4priv14__money_do_putIwSt19ostreambuf_iteratorIwSt11char_traitsIwEESbIwS3_SaIwEENS_16__basic_iostringIwEEEET0_S9_bRSt8ios_baseT_RKT2_bPT1_	0x25eed
	_ZNKSt9money_putIwSt19ostreambuf_iteratorIwSt11char_traitsIwEEE6do_putES3_bRSt8ios_basewe	0x263d1
	_ZNSt4priv14__money_do_putIwSt19ostreambuf_iteratorIwSt11char_traitsIwEESbIwS3_SaIwEES6_EET0_S7_bRSt8ios_baseT_RKT2_bPT1_	0x26489
	_ZNKSt9money_putIwSt19ostreambuf_iteratorIwSt11char_traitsIwEEE6do_putES3_bRSt8ios_basewRKSbIwS2_SaIwEE	0x26969
	_ZNSt4priv11__copy_signISt19istreambuf_iteratorIcSt11char_traitsIcEEcEET_S5_S5_RNS_16__basic_iostringIcEET0_S9_	0x26a55
	_ZNSt4priv12__read_floatISt19istreambuf_iteratorIcSt11char_traitsIcEEcEEbRNS_16__basic_iostringIcEERT_S9_RKSt5ctypeIT0_ERKSt8numpunctISB_E	0x26ae9
	_ZNSt4priv14__do_get_floatISt19istreambuf_iteratorIcSt11char_traitsIcEEecEET_RS5_S6_RSt8ios_baseRiRT0_PT1_	0x26cbd
	_ZNKSt7num_getIcSt19istreambuf_iteratorIcSt11char_traitsIcEEE6do_getES3_S3_RSt8ios_baseRiRe	0x26d65
	_ZNSt4priv14__do_get_floatISt19istreambuf_iteratorIcSt11char_traitsIcEEdcEET_RS5_S6_RSt8ios_baseRiRT0_PT1_	0x26d8d
	_ZNKSt7num_getIcSt19istreambuf_iteratorIcSt11char_traitsIcEEE6do_getES3_S3_RSt8ios_baseRiRd	0x26e35
	_ZNSt4priv14__do_get_floatISt19istreambuf_iteratorIcSt11char_traitsIcEEfcEET_RS5_S6_RSt8ios_baseRiRT0_PT1_	0x26e5d
	_ZNKSt7num_getIcSt19istreambuf_iteratorIcSt11char_traitsIcEEE6do_getES3_S3_RSt8ios_baseRiRf	0x26f05
	_ZNSt4priv13__copy_digitsISt19istreambuf_iteratorIwSt11char_traitsIwEEwEEbRT_S5_RNS_16__basic_iostringIcEEPKT0_	0x26f2b
	_ZNSt4priv12__read_floatISt19istreambuf_iteratorIwSt11char_traitsIwEEwEEbRNS_16__basic_iostringIcEERT_S9_RKSt5ctypeIT0_ERKSt8numpunctISB_E	0x26f81
	_ZNSt4priv14__do_get_floatISt19istreambuf_iteratorIwSt11char_traitsIwEEewEET_RS5_S6_RSt8ios_baseRiRT0_PT1_	0x271e5
	_ZNKSt7num_getIwSt19istreambuf_iteratorIwSt11char_traitsIwEEE6do_getES3_S3_RSt8ios_baseRiRe	0x2728d
	_ZNSt4priv14__do_get_floatISt19istreambuf_iteratorIwSt11char_traitsIwEEdwEET_RS5_S6_RSt8ios_baseRiRT0_PT1_	0x272b9
	_ZNKSt7num_getIwSt19istreambuf_iteratorIwSt11char_traitsIwEEE6do_getES3_S3_RSt8ios_baseRiRd	0x27361
	_ZNSt4priv14__do_get_floatISt19istreambuf_iteratorIwSt11char_traitsIwEEfwEET_RS5_S6_RSt8ios_baseRiRT0_PT1_	0x2738d
	_ZNKSt7num_getIwSt19istreambuf_iteratorIwSt11char_traitsIwEEE6do_getES3_S3_RSt8ios_baseRiRf	0x27435
	_ZNSt4priv14__money_do_putIcSt19ostreambuf_iteratorIcSt11char_traitsIcEESsNS_16__basic_iostringIcEEEET0_S7_bRSt8ios_baseT_RKT2_bPT1_	0x27545
	_ZNKSt9money_putIcSt19ostreambuf_iteratorIcSt11char_traitsIcEEE6do_putES3_bRSt8ios_basece	0x279f9
	_ZNSt4priv14__money_do_putIcSt19ostreambuf_iteratorIcSt11char_traitsIcEESsSsEET0_S5_bRSt8ios_baseT_RKT2_bPT1_	0x27a6d
	_ZNKSt9money_putIcSt19ostreambuf_iteratorIcSt11char_traitsIcEEE6do_putES3_bRSt8ios_basecRKSs	0x27f1d
	_ZNSbIwSt11char_traitsIwESaIwEE10_M_reserveEj	0x27f6b
	_ZNSt4priv20__get_monetary_valueISt19istreambuf_iteratorIwSt11char_traitsIwEESt20back_insert_iteratorISbIwS3_SaIwEEEwEEbRT_S9_T0_RKSt5ctypeIT1_ESD_iSD_RKSsRb	0x2802d
	_ZNSbIwSt11char_traitsIwESaIwEE6assignEjw	0x282f5
	_ZNSt4priv14__money_do_getIwSt19istreambuf_iteratorIwSt11char_traitsIwEESbIwS3_SaIwEEEET0_S7_S7_bRSt8ios_baseRiRT1_RbPT_	0x283e9
	_ZNKSt9money_getIwSt19istreambuf_iteratorIwSt11char_traitsIwEEE6do_getES3_S3_bRSt8ios_baseRiRSbIwS2_SaIwEE	0x2888d
	_ZNKSt9money_getIwSt19istreambuf_iteratorIwSt11char_traitsIwEEE6do_getES3_S3_bRSt8ios_baseRiRe	0x288e1
	_ZNSs10_M_reserveEj	0x28ab9
	_ZNSt4priv20__get_monetary_valueISt19istreambuf_iteratorIcSt11char_traitsIcEESt20back_insert_iteratorISsEcEEbRT_S7_T0_RKSt5ctypeIT1_ESB_iSB_RKSsRb	0x28b31
	_ZNSs6assignEjc	0x28dc1
	_ZNSt4priv14__money_do_getIcSt19istreambuf_iteratorIcSt11char_traitsIcEESsEET0_S5_S5_bRSt8ios_baseRiRT1_RbPT_	0x28ed5
	_ZNKSt9money_getIcSt19istreambuf_iteratorIcSt11char_traitsIcEEE6do_getES3_S3_bRSt8ios_baseRiRSs	0x292e9
	_ZNKSt9money_getIcSt19istreambuf_iteratorIcSt11char_traitsIcEEE6do_getES3_S3_bRSt8ios_baseRiRe	0x29329
	_Locale_messages_name	0x2d101
	_Locale_messages_destroy	0x17c8f
	_Locale_monetary_name	0x2d101
	_Locale_monetary_destroy	0x17c8f
	_Locale_collate_name	0x2d101
	_Locale_collate_destroy	0x17c8f
	_Locale_time_name	0x2d101
	_Locale_time_destroy	0x17c8f
	_Locale_numeric_name	0x2d101
	_Locale_numeric_destroy	0x17c8f
	_Locale_codecvt_name	0x2d101
	_Locale_codecvt_destroy	0x17c8f
	_Locale_ctype_name	0x2d101
	_Locale_ctype_destroy	0x17c8f
	_Locale_messages_create	0x2d0fb
	_Locale_monetary_create	0x2d0fb
	_Locale_collate_create	0x2d0fb
	_Locale_time_create	0x2d0fb
	_Locale_numeric_create	0x2d0fb
	_Locale_codecvt_create	0x2d0fb
	_Locale_ctype_create	0x2d0fb
	_ZNSt9hashtableISt4pairIKSsS0_IPvjEESsSt4hashISsENSt4priv15_HashMapTraitsTIS4_EENS7_10_Select1stIS4_EESt8equal_toISsESaIS4_EE15_S_before_beginERKSt5slistIS4_SE_ERKSt6vectorIPNS7_16_Slist_node_baseESaISM_EERj	0x1eccd
	_ZNSt9hashtableISt4pairIKSsS0_IPvjEESsSt4hashISsENSt4priv15_HashMapTraitsTIS4_EENS7_10_Select1stIS4_EESt8equal_toISsESaIS4_EE9_M_rehashEj	0x297b9
	_ZNSt9hashtableISt4pairIKSsS0_IPvjEESsSt4hashISsENSt4priv15_HashMapTraitsTIS4_EENS7_10_Select1stIS4_EESt8equal_toISsESaIS4_EE9_M_reduceEv	0x29899
	_ZNSt9hashtableISt4pairIKSsS0_IPvjEESsSt4hashISsENSt4priv15_HashMapTraitsTIS4_EENS7_10_Select1stIS4_EESt8equal_toISsESaIS4_EE5eraseENS7_12_Ht_iteratorINS7_15_Slist_iteratorIS4_St16_Nonconst_traitsIS4_EEENS7_28_ConstNonLocalHashMapTraitsTIS4_EEEE	0x29975
	_ZNSt4priv18__release_monetaryEP16_Locale_monetary	0x29e0d
	_ZNSt4priv17__release_collateEP15_Locale_collate	0x29e2d
	_ZNSt4priv17__release_numericEP15_Locale_numeric	0x29e6d
	_ZNSt4priv17__release_codecvtEP15_Locale_codecvt	0x29e8d
	_ZNSt4priv15__release_ctypeEP13_Locale_ctype	0x29ead
	_ZNKSt14codecvt_bynameIwc9mbstate_tE16do_always_noconvEv	0x17d85
	_ZNKSt17moneypunct_bynameIwLb0EE14do_frac_digitsEv	0x29ecd
	_Locale_frac_digits	0x17d85
	_ZNKSt17moneypunct_bynameIcLb0EE14do_frac_digitsEv	0x29ecd
	_ZNKSt17moneypunct_bynameIwLb0EE16do_thousands_sepEv	0x29ed7
	_Locale_mon_thousands_sep	0x1cef1
	_ZNKSt17moneypunct_bynameIwLb1EE16do_thousands_sepEv	0x29ed7
	_ZNKSt17moneypunct_bynameIcLb0EE16do_thousands_sepEv	0x29ee1
	_ZNKSt17moneypunct_bynameIcLb1EE16do_thousands_sepEv	0x29ee1
	_ZNKSt17moneypunct_bynameIwLb0EE16do_decimal_pointEv	0x29ee7
	_Locale_mon_decimal_point	0x1ceed
	_ZNKSt17moneypunct_bynameIwLb1EE16do_decimal_pointEv	0x29ee7
	_ZNKSt17moneypunct_bynameIcLb0EE16do_decimal_pointEv	0x29ef1
	_ZNKSt17moneypunct_bynameIcLb1EE16do_decimal_pointEv	0x29ef1
	_ZNSt17moneypunct_bynameIwLb0EED2Ev	0x29ef9
	_ZNSt17moneypunct_bynameIwLb0EED1Ev	0x29ef9
	_ZNSt17moneypunct_bynameIwLb0EED0Ev	0x29f19
	_Locale_p_sign_posn	0x2d3f9
	_Locale_p_cs_precedes	0x2d3f9
	_Locale_n_sign_posn	0x2d3f9
	_Locale_n_cs_precedes	0x2d3f9
	_Locale_p_sep_by_space	0x2d3f9
	_Locale_n_sep_by_space	0x2d3f9
	_ZNKSt17moneypunct_bynameIwLb1EE14do_frac_digitsEv	0x29ecd
	_Locale_int_frac_digits	0x17d85
	_ZNKSt17moneypunct_bynameIcLb1EE14do_frac_digitsEv	0x29ecd
	_ZNSt17moneypunct_bynameIwLb1EED2Ev	0x2a151
	_ZNSt17moneypunct_bynameIwLb1EED1Ev	0x2a151
	_ZNSt17moneypunct_bynameIwLb1EED0Ev	0x2a171
	_ZNSt17moneypunct_bynameIcLb0EED2Ev	0x2a185
	_ZNSt17moneypunct_bynameIcLb0EED1Ev	0x2a185
	_ZNSt17moneypunct_bynameIcLb0EED0Ev	0x2a1a5
	_ZNSt17moneypunct_bynameIcLb1EED2Ev	0x2a1b9
	_ZNSt17moneypunct_bynameIcLb1EED1Ev	0x2a1b9
	_ZNSt17moneypunct_bynameIcLb1EED0Ev	0x2a1d9
	_ZNKSt15numpunct_bynameIwE16do_thousands_sepEv	0x2a1eb
	_WLocale_thousands_sep	0x1cef1
	_ZNKSt15numpunct_bynameIwE16do_decimal_pointEv	0x2a1f1
	_WLocale_decimal_point	0x1ceed
	_ZNSt15numpunct_bynameIwED2Ev	0x2a1f9
	_ZNSt15numpunct_bynameIwED1Ev	0x2a1f9
	_ZNSt15numpunct_bynameIwED0Ev	0x2a219
	_ZNKSt15numpunct_bynameIcE16do_thousands_sepEv	0x2a1eb
	_Locale_thousands_sep	0x1cef1
	_ZNKSt15numpunct_bynameIcE16do_decimal_pointEv	0x2a1f1
	_Locale_decimal_point	0x1ceed
	_ZNSt15numpunct_bynameIcED2Ev	0x2a22d
	_ZNSt15numpunct_bynameIcED1Ev	0x2a22d
	_ZNSt15numpunct_bynameIcED0Ev	0x2a24d
	_ZNKSt14codecvt_bynameIwc9mbstate_tE13do_max_lengthEv	0x2a25f
	_WLocale_mb_cur_max	0x1abd3
	_ZNKSt14codecvt_bynameIwc9mbstate_tE9do_lengthERS0_PKcS4_j	0x2a265
	_WLocale_mbtowc	0x2d249
	_ZNKSt14codecvt_bynameIwc9mbstate_tE5do_inERS0_PKcS4_RS4_PwS6_RS6_	0x2a2a5
	_ZNKSt14codecvt_bynameIwc9mbstate_tE11do_encodingEv	0x2a301
	_WLocale_is_stateless	0x1abd3
	_WLocale_mb_cur_min	0x1abd3
	_ZNKSt14codecvt_bynameIwc9mbstate_tE10do_unshiftERS0_PcS3_RS3_	0x2a32b
	_WLocale_unshift	0x2d257
	_ZNKSt14codecvt_bynameIwc9mbstate_tE6do_outERS0_PKwS4_RS4_PcS6_RS6_	0x2a359
	_WLocale_wctomb	0x2d251
	_ZNSt14codecvt_bynameIwc9mbstate_tED2Ev	0x2a3bd
	_ZNSt14codecvt_bynameIwc9mbstate_tED1Ev	0x2a3bd
	_ZNSt14codecvt_bynameIwc9mbstate_tED0Ev	0x2a3dd
	_ZNSt14codecvt_bynameIcc9mbstate_tED2Ev	0x2a3f1
	_ZNSt14codecvt_bynameIcc9mbstate_tED1Ev	0x2a3f1
	_ZNSt14codecvt_bynameIcc9mbstate_tED0Ev	0x2a409
	_ZNKSt14collate_bynameIwE10do_compareEPKwS2_S2_S2_	0x2a41b
	_WLocale_strcmp	0x2d305
	_ZNSt14collate_bynameIwED2Ev	0x2a435
	_ZNSt14collate_bynameIwED1Ev	0x2a435
	_ZNSt14collate_bynameIwED0Ev	0x2a455
	_ZNKSt14collate_bynameIcE10do_compareEPKcS2_S2_S2_	0x2a467
	_Locale_strcmp	0x2d261
	_ZNSt14collate_bynameIcED2Ev	0x2a47d
	_ZNSt14collate_bynameIcED1Ev	0x2a47d
	_ZNSt14collate_bynameIcED0Ev	0x2a49d
	_ZNKSt12ctype_bynameIwE10do_tolowerEPwPKw	0x2a4af
	_WLocale_tolower	0x2d23d
	_ZNKSt12ctype_bynameIwE10do_tolowerEw	0x2a4cf
	_ZNKSt12ctype_bynameIwE10do_toupperEPwPKw	0x2a4d5
	_WLocale_toupper	0x2d243
	_ZNKSt12ctype_bynameIwE10do_toupperEw	0x2a4f5
	_ZNKSt12ctype_bynameIwE5do_isEPKwS2_PNSt10ctype_base4maskE	0x2a4fb
	_WLocale_ctype	0x2d17d
	_ZNKSt12ctype_bynameIwE5do_isENSt10ctype_base4maskEw	0x2a523
	_ZNSt12ctype_bynameIwED2Ev	0x2a539
	_ZNSt12ctype_bynameIwED1Ev	0x2a539
	_ZNSt12ctype_bynameIwED0Ev	0x2a559
	_ZNKSt12ctype_bynameIcE10do_tolowerEPcPKc	0x2a56b
	_Locale_tolower	0x2d15d
	_ZNKSt12ctype_bynameIcE10do_tolowerEc	0x2a58b
	_ZNKSt12ctype_bynameIcE10do_toupperEPcPKc	0x2a599
	_Locale_toupper	0x2d13d
	_ZNKSt12ctype_bynameIcE10do_toupperEc	0x2a5b9
	_ZNSt12ctype_bynameIcED2Ev	0x2a5c9
	_ZNSt12ctype_bynameIcED1Ev	0x2a5c9
	_ZNSt12ctype_bynameIcED0Ev	0x2a5ed
	_Locale_ctype_table	0x2d131
	_ZNSt12ctype_bynameIcEC2EPKcj	0x2a625
	_ZNSt12ctype_bynameIcEC1EPKcj	0x2a625
	_ZNSt12ctype_bynameIwEC2EPKcj	0x2a6bd
	_ZNSt12ctype_bynameIwEC1EPKcj	0x2a6bd
	_ZNSt14collate_bynameIcEC2EPKcj	0x2a725
	_ZNSt14collate_bynameIcEC1EPKcj	0x2a725
	_ZNSt14collate_bynameIwEC2EPKcj	0x2a78d
	_ZNSt14collate_bynameIwEC1EPKcj	0x2a78d
	_ZNSt14codecvt_bynameIcc9mbstate_tEC2EPKcj	0x2a7f5
	_ZNSt14codecvt_bynameIwc9mbstate_tEC2EPKcj	0x2a819
	_ZNSt14codecvt_bynameIwc9mbstate_tEC1EPKcj	0x2a819
	_ZNSt15numpunct_bynameIcEC2EPKcj	0x2a881
	_ZNSt15numpunct_bynameIcEC1EPKcj	0x2a881
	_ZNSt15numpunct_bynameIwEC2EPKcj	0x2a8e9
	_ZNSt15numpunct_bynameIwEC1EPKcj	0x2a8e9
	_ZNSt17moneypunct_bynameIcLb1EEC2EPKcj	0x2a951
	_ZNSt17moneypunct_bynameIcLb1EEC1EPKcj	0x2a951
	_ZNSt17moneypunct_bynameIcLb1EEC2EP16_Locale_monetary	0x2a9c9
	_ZNSt17moneypunct_bynameIcLb0EEC2EPKcj	0x2a9f5
	_ZNSt17moneypunct_bynameIcLb0EEC1EPKcj	0x2a9f5
	_ZNSt17moneypunct_bynameIcLb0EEC2EP16_Locale_monetary	0x2aa6d
	_ZNSt17moneypunct_bynameIwLb1EEC2EPKcj	0x2aa99
	_ZNSt17moneypunct_bynameIwLb1EEC1EPKcj	0x2aa99
	_ZNSt17moneypunct_bynameIwLb1EEC2EP16_Locale_monetary	0x2ab11
	_ZNSt17moneypunct_bynameIwLb0EEC2EPKcj	0x2ab3d
	_ZNSt17moneypunct_bynameIwLb0EEC1EPKcj	0x2ab3d
	_ZNSt17moneypunct_bynameIwLb0EEC2EP16_Locale_monetary	0x2abb5
	_ZNKSt12ctype_bynameIwE10do_scan_isENSt10ctype_base4maskEPKwS4_	0x2ac6d
	_ZNKSt12ctype_bynameIwE11do_scan_notENSt10ctype_base4maskEPKwS4_	0x2ad13
	_ZNKSt17moneypunct_bynameIwLb0EE11do_groupingEv	0x2ad2d
	_Locale_mon_grouping	0x2d3bd
	_ZNKSt17moneypunct_bynameIwLb1EE11do_groupingEv	0x2ad2d
	_ZNKSt17moneypunct_bynameIcLb0EE16do_negative_signEv	0x2ad2d
	_Locale_negative_sign	0x2d3bd
	_ZNKSt17moneypunct_bynameIcLb0EE16do_positive_signEv	0x2ad2d
	_Locale_positive_sign	0x2d3bd
	_ZNKSt17moneypunct_bynameIcLb0EE14do_curr_symbolEv	0x2ad2d
	_Locale_currency_symbol	0x2d3bd
	_ZNKSt17moneypunct_bynameIcLb0EE11do_groupingEv	0x2ad2d
	_ZNKSt17moneypunct_bynameIcLb1EE16do_negative_signEv	0x2ad2d
	_ZNKSt17moneypunct_bynameIcLb1EE16do_positive_signEv	0x2ad2d
	_ZNKSt17moneypunct_bynameIcLb1EE14do_curr_symbolEv	0x2ad2d
	_Locale_int_curr_symbol	0x2d3bd
	_ZNKSt17moneypunct_bynameIcLb1EE11do_groupingEv	0x2ad2d
	_ZNKSt15numpunct_bynameIwE11do_groupingEv	0x2ad45
	_Locale_grouping	0x2d3bd
	_ZNKSt15numpunct_bynameIcE12do_falsenameEv	0x2ad6d
	_Locale_false	0x2d3d5
	_ZNKSt15numpunct_bynameIcE11do_truenameEv	0x2ad85
	_Locale_true	0x2d3c9
	_ZNKSt15numpunct_bynameIcE11do_groupingEv	0x2ad45
	_ZNKSt14collate_bynameIcE12do_transformEPKcS2_	0x2ad9d
	_Locale_strxfrm	0x2d381
	_ZNKSt17moneypunct_bynameIwLb0EE16do_negative_signEv	0x2ae5d
	_WLocale_negative_sign	0x2d3fd
	_ZNKSt17moneypunct_bynameIwLb0EE16do_positive_signEv	0x2ae5d
	_WLocale_positive_sign	0x2d3fd
	_ZNKSt17moneypunct_bynameIwLb0EE14do_curr_symbolEv	0x2ae5d
	_WLocale_currency_symbol	0x2d3fd
	_ZNKSt17moneypunct_bynameIwLb1EE16do_negative_signEv	0x2ae5d
	_ZNKSt17moneypunct_bynameIwLb1EE16do_positive_signEv	0x2ae5d
	_ZNKSt17moneypunct_bynameIwLb1EE14do_curr_symbolEv	0x2ae5d
	_WLocale_int_curr_symbol	0x2d3fd
	_ZNKSt15numpunct_bynameIwE12do_falsenameEv	0x2ae7d
	_WLocale_false	0x2d3ed
	_ZNKSt15numpunct_bynameIwE11do_truenameEv	0x2ae9d
	_WLocale_true	0x2d3e1
	_ZNKSt14collate_bynameIwE12do_transformEPKwS2_	0x2aebd
	_WLocale_strxfrm	0x2d39f
	_ZSt3absIfET_RKSt7complexIS0_E	0x2af55
	_ZSt3absIdET_RKSt7complexIS0_E	0x2af81
	_ZSt3absIeET_RKSt7complexIS0_E	0x2af81
	_ZSt3argIfET_RKSt7complexIS0_E	0x2af8f
	_ZSt3argIdET_RKSt7complexIS0_E	0x2af99
	_ZSt3argIeET_RKSt7complexIS0_E	0x2af99
	_ZSt5polarIfESt7complexIT_ERKS1_S4_	0x2afa7
	_ZSt5polarIdESt7complexIT_ERKS1_S4_	0x2afe1
	_ZSt5polarIeESt7complexIT_ERKS1_S4_	0x2afe1
	_ZNSt7complexIfE4_divERKfS2_S2_S2_RfS3_	0x2b021
	_ZNSt7complexIfE4_divERKfS2_S2_RfS3_	0x2b0cd
	_ZNSt7complexIdE4_divERKdS2_S2_S2_RdS3_	0x2b163
	_ZNSt7complexIdE4_divERKdS2_S2_RdS3_	0x2b213
	_ZNSt7complexIeE4_divERKeS2_S2_S2_ReS3_	0x2b163
	_ZNSt7complexIeE4_divERKeS2_S2_ReS3_	0x2b213
	_ZSt4sqrtRKSt7complexIfE	0x2b2ad
	_ZSt4sqrtRKSt7complexIdE	0x2b365
	_ZSt4sqrtRKSt7complexIeE	0x2b365
	_ZSt3expRKSt7complexIfE	0x2b411
	_ZSt3expRKSt7complexIdE	0x2b453
	_ZSt3expRKSt7complexIeE	0x2b453
	_ZSt5log10RKSt7complexIfE	0x2b49d
	_ZSt5log10RKSt7complexIdE	0x2b501
	_ZSt5log10RKSt7complexIeE	0x2b541
	_ZSt3logRKSt7complexIfE	0x2b591
	_ZSt3logRKSt7complexIdE	0x2b5e1
	_ZSt3logRKSt7complexIeE	0x2b5e1
	_ZSt3powRKfRKSt7complexIfE	0x2b61b
	_ZSt3powRKSt7complexIfEi	0x2b67d
	_ZSt3powRKSt7complexIfERKf	0x2b749
	_ZSt3powRKSt7complexIfES2_	0x2b7d5
	_ZSt3powRKdRKSt7complexIdE	0x2b871
	_ZSt3powRKSt7complexIdERKd	0x2b8d3
	_ZSt3powRKSt7complexIdES2_	0x2b94f
	_ZSt3powRKeRKSt7complexIeE	0x2b871
	_ZSt3powRKSt7complexIeERKe	0x2b8d3
	_ZSt3powRKSt7complexIeES2_	0x2b94f
	_ZNSt4priv7__powerISt7complexIdEiSt10multipliesIS2_EEET_S5_T0_T1_	0x2b9e1
	_ZSt3powRKSt7complexIdEi	0x2ba81
	_ZNSt4priv7__powerISt7complexIeEiSt10multipliesIS2_EEET_S5_T0_T1_	0x2b9e1
	_ZSt3powRKSt7complexIeEi	0x2ba81
	_ZNSi7putbackEc	0x2bbdf
	_ZNSt4priv12__init_bostrIcSt11char_traitsIcEEEbRSt13basic_ostreamIT_T0_E	0x2bc23
	_ZNSt4priv9__put_numIcSt11char_traitsIcEeEERSt13basic_ostreamIT_T0_ES7_T1_	0x2bc81
	_ZNSo11_M_put_charEc	0x2bd13
	_ZStlsRSoRKSt7complexIeE	0x2bdc3
	_ZNSt4priv9__put_numIcSt11char_traitsIcEdEERSt13basic_ostreamIT_T0_ES7_T1_	0x2bdf7
	_ZStlsRSoRKSt7complexIdE	0x2be89
	_ZStlsRSoRKSt7complexIfE	0x2bebd
	_ZSt20_M_ignore_unbufferedIcSt11char_traitsIcENSt4priv14_Is_not_wspaceIS1_EEEvPSt13basic_istreamIT_T0_EPSt15basic_streambufIS6_S7_ET1_bb	0x2bf17
	_ZNSi18_M_skip_whitespaceEb	0x2bf6b
	_ZNSi16_M_formatted_getERc	0x2c06f
	_ZNSt4priv9__get_numIcSt11char_traitsIcEeEEiRSt13basic_istreamIT_T0_ERT1_	0x2c0ab
	_ZStrsRSiRSt7complexIeE	0x2c14d
	_ZNSt4priv9__get_numIcSt11char_traitsIcEdEEiRSt13basic_istreamIT_T0_ERT1_	0x2c1eb
	_ZStrsRSiRSt7complexIdE	0x2c28d
	_ZNSt4priv9__get_numIcSt11char_traitsIcEfEEiRSt13basic_istreamIT_T0_ERT1_	0x2c32b
	_ZStrsRSiRSt7complexIfE	0x2c3d1
	_ZSt3sinRKSt7complexIfE	0x2c471
	_ZSt3sinRKSt7complexIdE	0x2c4bb
	_ZSt3sinRKSt7complexIeE	0x2c4bb
	_ZSt3cosRKSt7complexIfE	0x2c50d
	_ZSt3cosRKSt7complexIdE	0x2c557
	_ZSt3cosRKSt7complexIeE	0x2c557
	_ZSt3tanRKSt7complexIfE	0x2c5a9
	_ZSt3tanRKSt7complexIdE	0x2c651
	_ZSt3tanRKSt7complexIeE	0x2c651
	_ZSt4sinhRKSt7complexIfE	0x2c6f9
	_ZSt4sinhRKSt7complexIdE	0x2c743
	_ZSt4sinhRKSt7complexIeE	0x2c743
	_ZSt4coshRKSt7complexIfE	0x2c795
	_ZSt4coshRKSt7complexIdE	0x2c7df
	_ZSt4coshRKSt7complexIeE	0x2c7df
	_ZSt4tanhRKSt7complexIfE	0x2c831
	_ZSt4tanhRKSt7complexIdE	0x2c8d9
	_ZSt4tanhRKSt7complexIeE	0x2c8d9
	_ZNSt4priv5_Bs_G8_S_countEPKhS2_	0x2c981
	_ZNSt4priv5_Bs_G12_S_first_oneEh	0x2c9a1
	_ZNSt4priv19_Pthread_alloc_impl13_S_destructorEPv	0x2c9b9
	_ZNSt14__malloc_alloc8allocateEj	0x2c9e5
	_ZNSt14__malloc_alloc18set_malloc_handlerEPFvvE	0x2ca2d
	_ZNSt17__node_alloc_impl13_M_deallocateEPvj	0x2ca55
	_ZNSt17__node_alloc_impl14_S_chunk_allocEjRi	0x2ca91
	_ZNSt17__node_alloc_impl9_S_refillEj	0x2cb41
	_ZNSt17__node_alloc_impl11_M_allocateERj	0x2cb85
	_ZNSt4priv19_Pthread_alloc_impl23_S_new_per_thread_stateEv	0x2cbe5
	_ZNSt4priv19_Pthread_alloc_impl23_S_get_per_thread_stateEv	0x2cc1d
	_ZNSt4priv19_Pthread_alloc_impl14_S_chunk_allocEjRjPNS_31_Pthread_alloc_per_thread_stateE	0x2ccb5
	_ZNSt4priv31_Pthread_alloc_per_thread_state9_M_refillEj	0x2cd85
	_ZNSt4priv19_Pthread_alloc_impl8allocateERj	0x2cdc9
	_ZNSt4priv19_Pthread_alloc_impl10deallocateEPvj	0x2ce09
	_ZNSt4priv19_Pthread_alloc_impl8allocateERjPNS_31_Pthread_alloc_per_thread_stateE	0x2ce31
	_ZNSt4priv19_Pthread_alloc_impl10deallocateEPvjPNS_31_Pthread_alloc_per_thread_stateE	0x2ce81
	_ZNSt4priv19_Pthread_alloc_impl10reallocateEPvjRj	0x2ceb9
	_ZNSt4priv14_Pthread_alloc8allocateERj	0x2cf09
	_ZNSt4priv14_Pthread_alloc10deallocateEPvj	0x2cf0d
	_ZNSt4priv14_Pthread_alloc8allocateERjPNS_31_Pthread_alloc_per_thread_stateE	0x2cf11
	_ZNSt4priv14_Pthread_alloc10deallocateEPvjPNS_31_Pthread_alloc_per_thread_stateE	0x2cf15
	_ZNSt4priv14_Pthread_alloc10reallocateEPvjRj	0x2cf19
	_ZNSt4priv14_Pthread_alloc23_S_get_per_thread_stateEv	0x2cf1d
	_Locale_create	0x2d0e5
	_Locale_get_messages_hint	0x17d85
	_WLocale_mon_decimal_point	0x1ceed
	_WLocale_mon_thousands_sep	0x1cef1
Module(name="libnetutils.so", base_address=0x40282000, size=28672, path="/system/lib/libnetutils.so")
	func_name	RVA
	ifc_configure	0x3459
	get_msecs	0x1745
	printerr	0x1779
	dhcp_lasterror	0x17b9
	fatal	0x17c5
	ipaddr	0x17e9
	get_dhcp_info	0x17f1
	dump_dhcp_info	0x1829
	decode_dhcp_msg	0x190d
	ipv4NetmaskToPrefixLength	0x2837
	dump_dhcp_msg	0x19f1
	dhcp_init_ifc	0x1c71
	ifc_get_hwaddr	0x296d
	ifc_get_ifindex	0x29c9
	open_raw_socket	0x390d
	init_dhcp_discover_msg	0x1fc3
	init_dhcp_request_msg	0x1ff5
	send_packet	0x3999
	receive_packet	0x3b01
	do_dhcp	0x1f11
	ifc_set_addr	0x2a2d
	ifc_up	0x2a1d
	get_p2p_interface_replacement	0x20bd
	dhcp_do_request	0x230d
	dhcp_stop	0x24f9
	dhcp_release_lease	0x25ad
	dhcp_get_errmsg	0x2635
	dhcp_do_request_renew	0x2641
	prefixLengthToIpv4Netmask	0x281d
	string_to_ip	0x2849
	ifc_init	0x2895
	ifc_init6	0x28e5
	ifc_close	0x2935
	ifc_close6	0x2951
	ifc_down	0x2a25
	ifc_act_on_address	0x2a81
	ifc_add_address	0x2bad
	ifc_del_address	0x2bc3
	ifc_clear_ipv6_addresses	0x2bd9
	ifc_set_hwaddr	0x2cf9
	ifc_set_mask	0x2d51
	ifc_set_prefixLength	0x2da5
	ifc_get_addr	0x2e0d
	ifc_clear_ipv4_addresses	0x2e65
	ifc_clear_addresses	0x2ea7
	ifc_get_info	0x2eb9
	ifc_act_on_ipv4_route	0x2f5d
	ifc_create_default_route	0x3035
	ifc_add_host_route	0x304b
	ifc_enable	0x3063
	ifc_disable	0x307b
	ifc_reset_connections	0x30c9
	ifc_remove_host_routes	0x3171
	ifc_get_default_route	0x32b1
	ifc_set_default_route	0x3385
	ifc_remove_default_route	0x33d1
	ifc_act_on_ipv6_route	0x3599
	ifc_act_on_route	0x3685
	ifc_add_ipv4_route	0x3855
	ifc_add_ipv6_route	0x386f
	ifc_add_route	0x38ab
	ifc_remove_route	0x38c5
Module(name="libui.so", base_address=0x40289000, size=45056, path="/system/lib/libui.so")
	func_name	RVA
	_ZN7android5FenceC2Ev	0x4dc9
	_ZN7android5FenceC1Ev	0x4dc9
	_ZN7android5FenceC2Ei	0x4dd5
	_ZN7android5FenceC1Ei	0x4dd5
	_ZN7android5FenceD2Ev	0x4ddd
	_ZN7android5FenceD1Ev	0x4ddd
	_ZN7android2spINS_5FenceEED2Ev	0x4def
	_ZN7android2spINS_5FenceEED1Ev	0x4def
	_ZN7android5Fence4waitEj	0x4e11
	_ZN7android5Fence11waitForeverEPKc	0x4e4d
	_ZN7android5Fence5mergeERKNS_7String8ERKNS_2spIS0_EES7_	0x4ec9
	_ZNK7android5Fence3dupEv	0x4f8d
	_ZNK7android5Fence13getSignalTimeEv	0x4f95
	_ZNK7android5Fence16getFlattenedSizeEv	0x5011
	_ZNK7android5Fence10getFdCountEv	0x5015
	_ZNK7android5Fence7flattenERPvRjRPiS3_	0x501f
	_ZN7android5Fence9unflattenERPKvRjRPKiS4_	0x506b
	_ZN7android23FramebufferNativeWindow15setSwapIntervalEP13ANativeWindowi	0x5101
	_ZN7android23FramebufferNativeWindow21lockBuffer_DEPRECATEDEP13ANativeWindowP19ANativeWindowBuffer	0x510d
	_ZN7android23FramebufferNativeWindow7performEP13ANativeWindowiz	0x5111
	_ZN7android23FramebufferNativeWindow13dequeueBufferEP13ANativeWindowPP19ANativeWindowBufferPi	0x517d
	_ZN7android23FramebufferNativeWindow5queryEPK13ANativeWindowiPi	0x51e9
	_ZN7android23FramebufferNativeWindow18setUpdateRectangleERKNS_4RectE	0x528d
	_ZN7android23FramebufferNativeWindow19compositionCompleteEv	0x52b5
	_ZN7android23FramebufferNativeWindow4dumpERNS_7String8E	0x52c9
	_ZNK7android23FramebufferNativeWindow21getCurrentBufferIndexEv	0x5325
	_ZN7android2spINS_12NativeBufferEED2Ev	0x5341
	_ZN7android2spINS_12NativeBufferEED1Ev	0x5341
	_ZN7android23FramebufferNativeWindowD2Ev	0x5353
	_ZN7android23FramebufferNativeWindowD1Ev	0x5353
	_ZN7android2spINS_12NativeBufferEEaSEPS1_	0x53e3
	_ZN7android23FramebufferNativeWindowC2Ev	0x5405
	_ZN7android23FramebufferNativeWindow11queueBufferEP13ANativeWindowP19ANativeWindowBufferi	0x56fd
	_ZN7android23FramebufferNativeWindow24dequeueBuffer_DEPRECATEDEP13ANativeWindowPP19ANativeWindowBuffer	0x569d
	_ZN7android23FramebufferNativeWindow22queueBuffer_DEPRECATEDEP13ANativeWindowP19ANativeWindowBuffer	0x5777
	_ZN7android23FramebufferNativeWindowC1Ev	0x5405
	android_createDisplaySurface	0x5675
	_ZNK7android13GraphicBuffer9initCheckEv	0x57d7
	_ZN7android13GraphicBuffer26dumpAllocationsToSystemLogEv	0x57db
	_ZN7android22GraphicBufferAllocator15dumpToSystemLogEv	0x62ad
	_ZNK7android13GraphicBuffer15getNativeBufferEv	0x57df
	_ZN7android13GraphicBuffer4lockEjRKNS_4RectEPPv	0x57e5
	_ZN7android19GraphicBufferMapper4lockEPK13native_handleiRKNS_4RectEPPv	0x6561
	_ZN7android13GraphicBuffer4lockEjPPv	0x5851
	_ZN7android13GraphicBuffer9lockYCbCrEjRKNS_4RectEP13android_ycbcr	0x586d
	_ZN7android19GraphicBufferMapper9lockYCbCrEPK13native_handleiRKNS_4RectEP13android_ycbcr	0x65d9
	_ZN7android13GraphicBuffer9lockYCbCrEjP13android_ycbcr	0x58d9
	_ZN7android13GraphicBuffer6unlockEv	0x58f5
	_ZN7android19GraphicBufferMapper6unlockEPK13native_handle	0x6651
	_ZNK7android13GraphicBuffer16getFlattenedSizeEv	0x58ff
	_ZNK7android13GraphicBuffer10getFdCountEv	0x590f
	_ZNK7android13GraphicBuffer7flattenERPvRjRPiS3_	0x5919
	_ZN7android9SingletonINS_22GraphicBufferAllocatorEE11getInstanceEv	0x59dd
	_ZN7android22GraphicBufferAllocatorC1Ev	0x5fa1
	_ZN7android13GraphicBuffer8initSizeEjjij	0x5a19
	_ZN7android22GraphicBufferAllocator5allocEjjiiPPK13native_handlePi	0x6175
	_ZN7android13GraphicBuffer10reallocateEjjij	0x5a55
	_ZN7android22GraphicBufferAllocator4freeEPK13native_handle	0x6235
	_ZN7android13GraphicBuffer11free_handleEv	0x5ab9
	_ZN7android19GraphicBufferMapper16unregisterBufferEPK13native_handle	0x6509
	_ZN7android13GraphicBuffer9unflattenERPKvRjRPKiS4_	0x5af9
	_ZN7android19GraphicBufferMapper14registerBufferEPK13native_handle	0x64b1
	_ZN7android13GraphicBufferD2Ev	0x5c05
	_ZN7android13GraphicBufferD1Ev	0x5c05
	_ZN7android13GraphicBufferD0Ev	0x5c31
	_ZN7android9SingletonINS_19GraphicBufferMapperEE11getInstanceEv	0x5c45
	_ZN7android19GraphicBufferMapperC1Ev	0x6475
	_ZN7android13GraphicBufferC2EjjijjP13native_handleb	0x5cd1
	_ZN7android13GraphicBufferC1EjjijjP13native_handleb	0x5cd1
	_ZN7android13GraphicBufferC2Ejjij	0x5d15
	_ZN7android13GraphicBufferC1Ejjij	0x5d15
	_ZN7android13GraphicBufferC2Ev	0x5d65
	_ZN7android13GraphicBufferC1Ev	0x5d65
	_ZN7android13GraphicBufferC2EP19ANativeWindowBufferb	0x5d9d
	_ZN7android13GraphicBufferC1EP19ANativeWindowBufferb	0x5d9d
	_ZNK7android12SortedVectorINS_16key_value_pair_tIPK13native_handleNS_22GraphicBufferAllocator11alloc_rec_tEEEE12do_constructEPvj	0x5de9
	_ZNK7android12SortedVectorINS_16key_value_pair_tIPK13native_handleNS_22GraphicBufferAllocator11alloc_rec_tEEEE10do_destroyEPvj	0x5de9
	_ZNK7android12SortedVectorINS_16key_value_pair_tIPK13native_handleNS_22GraphicBufferAllocator11alloc_rec_tEEEE16do_move_backwardEPvPKvj	0x5ecd
	_ZNK7android12SortedVectorINS_16key_value_pair_tIPK13native_handleNS_22GraphicBufferAllocator11alloc_rec_tEEEE15do_move_forwardEPvPKvj	0x5f07
	_ZNK7android12SortedVectorINS_16key_value_pair_tIPK13native_handleNS_22GraphicBufferAllocator11alloc_rec_tEEEE8do_splatEPvPKvj	0x5f4d
	_ZNK7android12SortedVectorINS_16key_value_pair_tIPK13native_handleNS_22GraphicBufferAllocator11alloc_rec_tEEEE7do_copyEPvPKvj	0x5ecd
	_ZNK7android12SortedVectorINS_16key_value_pair_tIPK13native_handleNS_22GraphicBufferAllocator11alloc_rec_tEEEE10do_compareEPKvSA_	0x5f7b
	_ZN7android22GraphicBufferAllocatorC2Ev	0x5fa1
	_ZN7android22GraphicBufferAllocatorD2Ev	0x5fed
	_ZN7android22GraphicBufferAllocatorD1Ev	0x5fed
	_ZNK7android22GraphicBufferAllocator4dumpERNS_7String8E	0x5ffd
	_ZN7android13bytesPerPixelEi	0x6701
	_ZN7android9SingletonINS_22GraphicBufferAllocatorEE11hasInstanceEv	0x62e1
	_ZN7android9SingletonINS_22GraphicBufferAllocatorEED2Ev	0x5de9
	_ZN7android9SingletonINS_22GraphicBufferAllocatorEED1Ev	0x5de9
	_ZN7android9SingletonINS_22GraphicBufferAllocatorEEC2Ev	0x5de9
	_ZN7android9SingletonINS_22GraphicBufferAllocatorEEC1Ev	0x5de9
	_ZN7android19GraphicBufferMapperC2Ev	0x6475
	_ZN7android9SingletonINS_19GraphicBufferMapperEE11hasInstanceEv	0x66a9
	_ZN7android9SingletonINS_19GraphicBufferMapperEED2Ev	0x5de9
	_ZN7android9SingletonINS_19GraphicBufferMapperEED1Ev	0x5de9
	_ZN7android9SingletonINS_19GraphicBufferMapperEEC2Ev	0x5de9
	_ZN7android9SingletonINS_19GraphicBufferMapperEEC1Ev	0x5de9
	_ZN7android12bitsPerPixelEi	0x6719
	_ZN7android4Rect11makeInvalidEv	0x6731
	_ZNK7android4RectltERKS0_	0x6741
	_ZN7android4Rect8offsetToEii	0x676f
	_ZN7android4Rect8offsetByEii	0x678b
	_ZNK7android4RectplERKNS_5PointE	0x67a7
	_ZNK7android4RectmiERKNS_5PointE	0x67c7
	_ZNK7android4Rect9intersectERKS0_PS0_	0x67e7
	_ZNK7android4Rect9transformEjii	0x6833
	_ZNK7android4Rect6reduceERKS0_	0x687b
	_ZNK7android6VectorINS_4RectEE12do_constructEPvj	0x5de9
	_ZNK7android6VectorINS_4RectEE10do_destroyEPvj	0x5de9
	_ZNK7android6VectorINS_4RectEE8do_splatEPvPKvj	0x6915
	_ZNK7android6VectorINS_4RectEE15do_move_forwardEPvPKvj	0x6931
	_ZNK7android6VectorINS_4RectEE16do_move_backwardEPvPKvj	0x6931
	_ZNK7android6VectorINS_4RectEE7do_copyEPvPKvj	0x693b
	_ZN7android6RegionC2ERKS0_	0x69e1
	_ZN7android6RegionC1ERKS0_	0x69e1
	_ZN7android6RegionD2Ev	0x6a01
	_ZN7android6RegionD1Ev	0x6a01
	_ZN7android6RegionaSERKS0_	0x6a0d
	_ZNK7android6Region16isTriviallyEqualERKS0_	0x6a19
	_ZN7android6Region16addRectUncheckedEiiii	0x6a27
	_ZNK7android6Region16getFlattenedSizeEv	0x6a41
	_ZNK7android6Region7flattenEPvj	0x6a47
	_ZNK7android6Region5beginEv	0x6a67
	_ZNK7android6Region3endEv	0x6a6b
	_ZNK7android6Region8getArrayEPj	0x6a7b
	_ZNK7android6Region15getSharedBufferEPj	0x6a91
	_ZNK7android6Region4dumpERNS_7String8EPKcj	0x6ab1
	_ZNK7android6Region4dumpEPKcj	0x6b39
	_ZN7android6Region8validateERKS0_PKcb	0x6bad
	_ZN7android6RegionC2ERKNS_4RectE	0x6e65
	_ZN7android6RegionC1ERKNS_4RectE	0x6e65
	_ZN7android6RegionC2Ev	0x6e7b
	_ZN7android6RegionC1Ev	0x6e7b
	_ZN7android6Region3setEjj	0x6ee5
	_ZN7android6Region3setERKNS_4RectE	0x6f05
	_ZN7android6Region5clearEv	0x6f1b
	_ZN7android6Region14makeBoundsSelfEv	0x6f37
	_ZN7android6Region9translateERS0_ii	0x70e9
	_ZN7android6Region9translateERS0_RKS0_ii	0x7121
	_ZNK7android6Region9translateEii	0x713b
	_ZN7android6Region13translateSelfEii	0x7159
	_ZN7android6Region25createTJunctionFreeRegionERKS0_	0x716b
	_ZN7android6Region9unflattenEPKvj	0x7369
	_ZN7android6Region17boolean_operationEiRS0_RKS0_RKNS_4RectEii	0x7691
	_ZN7android6Region17boolean_operationEiRS0_RKS0_RKNS_4RectE	0x7721
	_ZNK7android6Region9operationERKNS_4RectEi	0x772f
	_ZNK7android6Region8subtractERKNS_4RectE	0x774d
	_ZNK7android6Region9intersectERKNS_4RectE	0x7769
	_ZNK7android6Region14mergeExclusiveERKNS_4RectE	0x7785
	_ZNK7android6Region5mergeERKNS_4RectE	0x77a1
	_ZN7android6Region13operationSelfERKNS_4RectEi	0x77bd
	_ZN7android6Region12subtractSelfERKNS_4RectE	0x77e7
	_ZN7android6Region7andSelfERKNS_4RectE	0x77ed
	_ZN7android6Region7xorSelfERKNS_4RectE	0x77f3
	_ZN7android6Region6orSelfERKNS_4RectE	0x77f9
	_ZN7android6Region17boolean_operationEiRS0_RKS0_S3_ii	0x77ff
	_ZN7android6Region17boolean_operationEiRS0_RKS0_S3_	0x785f
	_ZNK7android6Region9operationERKS0_i	0x786d
	_ZNK7android6Region8subtractERKS0_	0x788b
	_ZNK7android6Region9intersectERKS0_	0x78a7
	_ZNK7android6Region14mergeExclusiveERKS0_	0x78c3
	_ZNK7android6Region5mergeERKS0_	0x78df
	_ZN7android6Region13operationSelfERKS0_i	0x78fb
	_ZN7android6Region12subtractSelfERKS0_	0x7925
	_ZN7android6Region7andSelfERKS0_	0x792b
	_ZN7android6Region7xorSelfERKS0_	0x7931
	_ZN7android6Region6orSelfERKS0_	0x7937
	_ZNK7android6Region9operationERKS0_iii	0x793d
	_ZNK7android6Region8subtractERKS0_ii	0x7961
	_ZNK7android6Region9intersectERKS0_ii	0x7985
	_ZNK7android6Region14mergeExclusiveERKS0_ii	0x79a9
	_ZNK7android6Region5mergeERKS0_ii	0x79cd
	_ZN7android6Region13operationSelfERKS0_iii	0x79f1
	_ZN7android6Region12subtractSelfERKS0_ii	0x7a21
	_ZN7android6Region7andSelfERKS0_ii	0x7a2d
	_ZN7android6Region7xorSelfERKS0_ii	0x7a39
	_ZN7android6Region6orSelfERKS0_ii	0x7a45
	_ZN7android20appendUiConfigStringERNS_7String8E	0x7a51
Module(name="libsync.so", base_address=0x40294000, size=12288, path="/system/lib/libsync.so")
	func_name	RVA
	sync_wait	0x5e9
	sync_merge	0x5fd
	sync_fence_info	0x64d
	sync_pt_info	0x681
	sync_fence_info_free	0x69b
	sw_sync_timeline_create	0x6a1
	sw_sync_timeline_inc	0x6b1
	sw_sync_fence_create	0x6c5
Module(name="libgui.so", base_address=0x40297000, size=258048, path="/system/lib/libgui.so")
	func_name	RVA
	_ZNK7android22IGraphicBufferConsumer22getInterfaceDescriptorEv	0x21ccd
	_ZN7android11BnInterfaceINS_22IGraphicBufferConsumerEE10onAsBinderEv	0x21cdd
	_ZN7android22IGraphicBufferConsumerD1Ev	0x21d39
	_ZN7android22IGraphicBufferConsumerD0Ev	0x21d6d
	_ZN7android22IGraphicBufferConsumer10BufferItemC2Ev	0x2230d
	_ZN7android22IGraphicBufferConsumer10BufferItemC1Ev	0x2230d
	_ZNK7android22IGraphicBufferConsumer10BufferItem10getPodSizeEv	0x22349
	_ZNK7android22IGraphicBufferConsumer10BufferItem16getFlattenedSizeEv	0x2234d
	_ZNK7android22IGraphicBufferConsumer10BufferItem10getFdCountEv	0x22371
	_ZNK7android22IGraphicBufferConsumer10BufferItem7flattenERPvRjRPiS4_	0x22393
	_ZN7android22IGraphicBufferConsumer10BufferItem9unflattenERPKvRjRPKiS5_	0x2252f
	_ZN7android22IGraphicBufferConsumerC2Ev	0x226f5
	_ZN7android22IGraphicBufferConsumer11asInterfaceERKNS_2spINS_7IBinderEEE	0x22711
	_ZN7android22IGraphicBufferConsumerC1Ev	0x227e9
	_ZN7android22IGraphicBufferConsumerD2Ev	0x22819
	_ZN7android2spINS_5FenceEED2Ev	0x22a3f
	_ZN7android2spINS_5FenceEED1Ev	0x22a3f
	_ZN7android2spINS_7IBinderEED2Ev	0x22a4f
	_ZN7android2spINS_7IBinderEED1Ev	0x22a4f
	_ZN7android23BnGraphicBufferConsumer10onTransactEjRKNS_6ParcelEPS1_j	0x22add
	_ZN7android17IConsumerListener11asInterfaceERKNS_2spINS_7IBinderEEE	0x2309d
	_ZThn4_N7android23BnGraphicBufferConsumer10onTransactEjRKNS_6ParcelEPS1_j	0x22dd5
	_ZTv0_n12_N7android22IGraphicBufferConsumerD0Ev	0x22e19
	_ZTv0_n12_N7android22IGraphicBufferConsumerD1Ev	0x22e25
	_ZNK7android17IConsumerListener22getInterfaceDescriptorEv	0x22e31
	_ZN7android11BnInterfaceINS_17IConsumerListenerEE10onAsBinderEv	0x22e5d
	_ZThn4_N7android11BnInterfaceINS_17IConsumerListenerEE10onAsBinderEv	0x22e61
	_ZN7android18BnConsumerListener10onTransactEjRKNS_6ParcelEPS1_j	0x22f41
	_ZThn8_N7android18BnConsumerListener10onTransactEjRKNS_6ParcelEPS1_j	0x22f95
	_ZN7android17IConsumerListenerD1Ev	0x22f9d
	_ZThn4_N7android17IConsumerListenerD1Ev	0x22fe9
	_ZN7android17IConsumerListenerD0Ev	0x22ff1
	_ZThn4_N7android17IConsumerListenerD0Ev	0x23003
	_ZN7android17IConsumerListenerC2Ev	0x2306d
	_ZN7android17IConsumerListenerC1Ev	0x23189
	_ZN7android17IConsumerListenerD2Ev	0x231d5
	_ZTv0_n12_N7android17IConsumerListenerD0Ev	0x2348d
	_ZTv0_n12_N7android17IConsumerListenerD1Ev	0x23499
	_ZN7android7BitTubeD2Ev	0x234a5
	_ZN7android7BitTubeD1Ev	0x234a5
	_ZN7android7BitTubeD0Ev	0x234d5
	_ZN7android7BitTubeC2ERKNS_6ParcelE	0x234e9
	_ZN7android7BitTubeC1ERKNS_6ParcelE	0x234e9
	_ZN7android7BitTube4initEjj	0x2353d
	_ZN7android7BitTubeC2Ej	0x235dd
	_ZN7android7BitTubeC1Ej	0x235dd
	_ZN7android7BitTubeC2Ev	0x23609
	_ZN7android7BitTubeC1Ev	0x23609
	_ZNK7android7BitTube9initCheckEv	0x23635
	_ZNK7android7BitTube5getFdEv	0x2363d
	_ZN7android7BitTube5writeEPKvj	0x23641
	_ZN7android7BitTube4readEPvj	0x2366d
	_ZNK7android7BitTube13writeToParcelEPNS_6ParcelE	0x2369f
	_ZN7android7BitTube11sendObjectsERKNS_2spIS0_EEPKvjj	0x236c9
	_ZN7android7BitTube11recvObjectsERKNS_2spIS0_EEPvjj	0x23711
	_ZN7android18BufferItemConsumerD1Ev	0x23759
	_ZN7android12ConsumerBaseD2Ev	0x266a5
	_ZN7android18BufferItemConsumerD0Ev	0x2378d
	_ZN7android18BufferItemConsumerD2Ev	0x237b7
	_ZN7android18BufferItemConsumer7setNameERKNS_7String8E	0x237d1
	_ZN7android18BufferItemConsumer13acquireBufferEPNS_22IGraphicBufferConsumer10BufferItemExb	0x23805
	_ZN7android18BufferItemConsumer20setDefaultBufferSizeEjj	0x238cd
	_ZN7android18BufferItemConsumer22setDefaultBufferFormatEj	0x238fd
	_ZN7android2spINS_13GraphicBufferEED2Ev	0x23929
	_ZN7android2spINS_13GraphicBufferEED1Ev	0x23929
	_ZN7android18BufferItemConsumer13releaseBufferERKNS_22IGraphicBufferConsumer10BufferItemERKNS_2spINS_5FenceEEE	0x2393d
	_ZN7android12ConsumerBase21addReleaseFenceLockedEiNS_2spINS_13GraphicBufferEEERKNS1_INS_5FenceEEE	0x26aa9
	_ZN7android2spINS_22IGraphicBufferConsumerEEC2INS_11BufferQueueEEERKNS0_IT_EE	0x239d5
	_ZN7android2spINS_22IGraphicBufferConsumerEEC1INS_11BufferQueueEEERKNS0_IT_EE	0x239d5
	_ZN7android2spINS_22IGraphicBufferConsumerEED2Ev	0x22a4f
	_ZN7android2spINS_22IGraphicBufferConsumerEED1Ev	0x22a4f
	_ZN7android18BufferItemConsumerC1ERKNS_2spINS_11BufferQueueEEEjib	0x239f5
	_ZN7android12ConsumerBaseC2ERKNS_2spINS_22IGraphicBufferConsumerEEEb	0x2687d
	_ZN7android18BufferItemConsumerC2ERKNS_2spINS_11BufferQueueEEEjib	0x23a5d
	_ZTv0_n12_N7android18BufferItemConsumerD0Ev	0x23aa9
	_ZTv0_n12_N7android18BufferItemConsumerD1Ev	0x23ab5
	_ZN7android12ConsumerBase16onFrameAvailableEv	0x2699d
	_ZN7android12ConsumerBase17onBuffersReleasedEv	0x26415
	_ZN7android12ConsumerBase15onLastStrongRefEPKv	0x26487
	_ZN7android12ConsumerBase16freeBufferLockedEi	0x26581
	_ZN7android12ConsumerBase13abandonLockedEv	0x263a7
	_ZNK7android12ConsumerBase10dumpLockedERNS_7String8EPKc	0x263e5
	_ZN7android12ConsumerBase19acquireBufferLockedEPNS_22IGraphicBufferConsumer10BufferItemEx	0x26525
	_ZN7android12ConsumerBase19releaseBufferLockedEiNS_2spINS_13GraphicBufferEEEPvS4_	0x26a29
	_ZTv0_n20_N7android12ConsumerBase15onLastStrongRefEPKv	0x26baf
	_ZN7android12ConsumerBaseD1Ev	0x265e1
	_ZN7android12ConsumerBaseD0Ev	0x26691
	_ZTv0_n12_N7android12ConsumerBaseD1Ev	0x26ba3
	_ZTv0_n12_N7android12ConsumerBaseD0Ev	0x26b97
	_ZN7android11BufferQueue10binderDiedERKNS_2wpINS_7IBinderEEE	0x23ac1
	_ZThn32_N7android11BufferQueue10binderDiedERKNS_2wpINS_7IBinderEEE	0x23acf
	_ZN7android11BnInterfaceINS_22IGraphicBufferProducerEE10onAsBinderEv	0x21cdd
	_ZNK7android22IGraphicBufferProducer22getInterfaceDescriptorEv	0x29cd5
	_ZNK7android6VectorINS_22IGraphicBufferConsumer10BufferItemEE12do_constructEPvj	0x23ae1
	_ZN7android22IGraphicBufferProducerD2Ev	0x22819
	_ZN7android11BufferQueue20setDefaultBufferSizeEjj	0x23d8d
	_ZThn16_N7android11BufferQueue20setDefaultBufferSizeEjj	0x23de1
	_ZN7android11BufferQueue16setTransformHintEj	0x23de9
	_ZThn16_N7android11BufferQueue16setTransformHintEj	0x23e0b
	_ZN7android11BufferQueue20setConsumerUsageBitsEj	0x23e13
	_ZThn16_N7android11BufferQueue20setConsumerUsageBitsEj	0x23e35
	_ZN7android11BufferQueue22setDefaultBufferFormatEj	0x23e3d
	_ZThn16_N7android11BufferQueue22setDefaultBufferFormatEj	0x23e5f
	_ZN7android11BufferQueue15setConsumerNameERKNS_7String8E	0x23e67
	_ZThn16_N7android11BufferQueue15setConsumerNameERKNS_7String8E	0x23e8d
	_ZNK7android11BufferQueue4dumpERNS_7String8EPKc	0x23e95
	_ZThn16_NK7android11BufferQueue4dumpERNS_7String8EPKc	0x24099
	_ZN7android11BufferQueue25setMaxAcquiredBufferCountEi	0x240f1
	_ZThn16_N7android11BufferQueue25setMaxAcquiredBufferCountEi	0x24165
	_ZN7android11BufferQueue18disableAsyncBufferEv	0x2416d
	_ZThn16_N7android11BufferQueue18disableAsyncBufferEv	0x241cd
	_ZN7android22IGraphicBufferProducerC2Ev	0x226f5
	_ZN7android11BufferQueue30setDefaultMaxBufferCountLockedEi	0x242d5
	_ZN7android11BufferQueue24setDefaultMaxBufferCountEi	0x24301
	_ZThn16_N7android11BufferQueue24setDefaultMaxBufferCountEi	0x24345
	_ZNK7android11BufferQueue27getMinUndequeuedBufferCountEb	0x2434d
	_ZN7android11BufferQueue5queryEiPi	0x24369
	_ZNK7android11BufferQueue26getMinMaxBufferCountLockedEb	0x24419
	_ZNK7android11BufferQueue23getMaxBufferCountLockedEb	0x24423
	_ZN7android11BufferQueue7connectERKNS_2spINS_7IBinderEEEibPNS_22IGraphicBufferProducer17QueueBufferOutputE	0x24461
	_ZNK7android11BufferQueue13stillTrackingEPKNS_22IGraphicBufferConsumer10BufferItemE	0x2461d
	_ZN7android11BufferQueue21ProxyConsumerListenerD1Ev	0x246d9
	_ZThn4_N7android11BufferQueue21ProxyConsumerListenerD1Ev	0x24725
	_ZThn8_N7android11BufferQueue21ProxyConsumerListenerD1Ev	0x2472d
	_ZN7android11BufferQueue21ProxyConsumerListenerD0Ev	0x24735
	_ZThn4_N7android11BufferQueue21ProxyConsumerListenerD0Ev	0x24747
	_ZThn8_N7android11BufferQueue21ProxyConsumerListenerD0Ev	0x2474f
	_ZN7android11BufferQueue21ProxyConsumerListenerC2ERKNS_2wpINS_16ConsumerListenerEEE	0x24757
	_ZN7android11BufferQueue21ProxyConsumerListenerC1ERKNS_2wpINS_16ConsumerListenerEEE	0x24791
	_ZN7android11BufferQueue21ProxyConsumerListenerD2Ev	0x247e5
	_ZN7android2spINS_5FenceEEaSERKS2_	0x24819
	_ZN7android11BufferQueue12cancelBufferEiRKNS_2spINS_5FenceEEE	0x24835
	_ZN7android11BufferQueue16freeBufferLockedEi	0x24921
	_ZN7android11BufferQueue20freeAllBuffersLockedEv	0x2499d
	_ZN7android11BufferQueue18consumerDisconnectEv	0x249b9
	_ZThn16_N7android11BufferQueue18consumerDisconnectEv	0x24a2d
	_ZNK7android6VectorINS_22IGraphicBufferConsumer10BufferItemEE10do_destroyEPvj	0x24a49
	_ZN7android2spINS_19IGraphicBufferAllocEED2Ev	0x22a4f
	_ZN7android2spINS_19IGraphicBufferAllocEED1Ev	0x22a4f
	_ZN7android2spINS_17IConsumerListenerEED2Ev	0x22a4f
	_ZN7android2spINS_17IConsumerListenerEED1Ev	0x22a4f
	_ZN7android11BufferQueueD1Ev	0x24a9d
	_ZThn4_N7android11BufferQueueD1Ev	0x24b59
	_ZThn16_N7android11BufferQueueD1Ev	0x24b61
	_ZThn20_N7android11BufferQueueD1Ev	0x24b69
	_ZThn32_N7android11BufferQueueD1Ev	0x24b71
	_ZN7android11BufferQueueD0Ev	0x24b79
	_ZThn4_N7android11BufferQueueD0Ev	0x24b8b
	_ZThn16_N7android11BufferQueueD0Ev	0x24b93
	_ZThn20_N7android11BufferQueueD0Ev	0x24b9b
	_ZThn32_N7android11BufferQueueD0Ev	0x24ba3
	_ZN7android11BufferQueueD2Ev	0x24bab
	_ZN7android2spINS_16ISurfaceComposerEED2Ev	0x22a4f
	_ZN7android2spINS_16ISurfaceComposerEED1Ev	0x22a4f
	_ZN7android2spINS_19IGraphicBufferAllocEEaSERKS2_	0x24c49
	_ZN7android11BufferQueueC1ERKNS_2spINS_19IGraphicBufferAllocEEE	0x24c79
	_ZN7android15ComposerService18getComposerServiceEv	0x2f7a9
	_ZN7android11BufferQueueC2ERKNS_2spINS_19IGraphicBufferAllocEEE	0x24e25
	_ZN7android2spINS_17IConsumerListenerEEaSERKS2_	0x24c49
	_ZN7android11BufferQueue15consumerConnectERKNS_2spINS_17IConsumerListenerEEEb	0x24fc9
	_ZThn16_N7android11BufferQueue15consumerConnectERKNS_2spINS_17IConsumerListenerEEEb	0x25041
	_ZN7android11BufferQueue10disconnectEi	0x25049
	_ZN7android11BufferQueue14setBufferCountEi	0x2519d
	_ZN7android2spINS_13GraphicBufferEEaSERKS2_	0x252ad
	_ZN7android11BufferQueue13requestBufferEiPNS_2spINS_13GraphicBufferEEE	0x2532d
	_ZN7android11BufferQueue13dequeueBufferEPiPNS_2spINS_5FenceEEEbjjjj	0x253f1
	_ZNK7android2wpINS_16ConsumerListenerEE7promoteEv	0x25921
	_ZN7android2spINS_16ConsumerListenerEED2Ev	0x22a4f
	_ZN7android2spINS_16ConsumerListenerEED1Ev	0x22a4f
	_ZN7android11BufferQueue21ProxyConsumerListener17onBuffersReleasedEv	0x25941
	_ZN7android11BufferQueue21ProxyConsumerListener16onFrameAvailableEv	0x2595f
	_ZN7android11BufferQueue11queueBufferEiRKNS_22IGraphicBufferProducer16QueueBufferInputEPNS1_17QueueBufferOutputE	0x25981
	_ZN7android11BufferQueue13releaseBufferEiyPvS1_RKNS_2spINS_5FenceEEE	0x25d91
	_ZThn16_N7android11BufferQueue13releaseBufferEiyPvS1_RKNS_2spINS_5FenceEEE	0x25f41
	_ZN7android11BufferQueue13acquireBufferEPNS_22IGraphicBufferConsumer10BufferItemEx	0x25f69
	_ZThn16_N7android11BufferQueue13acquireBufferEPNS_22IGraphicBufferConsumer10BufferItemEx	0x261e1
	_ZN7android11BufferQueue18getReleasedBuffersEPj	0x261e9
	_ZThn16_N7android11BufferQueue18getReleasedBuffersEPj	0x26281
	_ZNK7android6VectorINS_22IGraphicBufferConsumer10BufferItemEE7do_copyEPvPKvj	0x262f3
	_ZNK7android6VectorINS_22IGraphicBufferConsumer10BufferItemEE8do_splatEPvPKvj	0x26311
	_ZNK7android6VectorINS_22IGraphicBufferConsumer10BufferItemEE15do_move_forwardEPvPKvj	0x2632d
	_ZNK7android6VectorINS_22IGraphicBufferConsumer10BufferItemEE16do_move_backwardEPvPKvj	0x26353
	_ZTv0_n12_N7android11BufferQueueD0Ev	0x26377
	_ZTv0_n12_N7android11BufferQueueD1Ev	0x26383
	_ZTv0_n12_N7android11BufferQueue21ProxyConsumerListenerD0Ev	0x2638f
	_ZTv0_n12_N7android11BufferQueue21ProxyConsumerListenerD1Ev	0x2639b
	_ZN7android22IGraphicBufferProducerD1Ev	0x29ce1
	_ZN7android22IGraphicBufferProducerD0Ev	0x29d15
	_ZTv0_n12_N7android22IGraphicBufferProducerD1Ev	0x2a845
	_ZTv0_n12_N7android22IGraphicBufferProducerD0Ev	0x2a839
	_ZN7android23BnGraphicBufferProducer10onTransactEjRKNS_6ParcelEPS1_j	0x2a37d
	_ZThn4_N7android23BnGraphicBufferProducer10onTransactEjRKNS_6ParcelEPS1_j	0x2a635
	_ZN7android12ConsumerBase7abandonEv	0x2645d
	_ZN7android12ConsumerBase25setFrameAvailableListenerERKNS_2wpINS0_22FrameAvailableListenerEEE	0x2648b
	_ZNK7android12ConsumerBase4dumpERNS_7String8EPKc	0x264cd
	_ZNK7android12ConsumerBase4dumpERNS_7String8E	0x264f9
	_ZN7android12ConsumerBase13stillTrackingEiNS_2spINS_13GraphicBufferEEE	0x26505
	_ZN7android2spINS_22IGraphicBufferConsumerEEC2ERKS2_	0x265c5
	_ZN7android2spINS_22IGraphicBufferConsumerEEC1ERKS2_	0x265c5
	_ZN7android2wpINS_16ConsumerListenerEEC2EPS1_	0x2673d
	_ZN7android2wpINS_16ConsumerListenerEEC1EPS1_	0x2673d
	_ZN7android12ConsumerBaseC1ERKNS_2spINS_22IGraphicBufferConsumerEEEb	0x26759
	_ZN7android2spINS_12ConsumerBase22FrameAvailableListenerEED2Ev	0x22a4f
	_ZN7android2spINS_12ConsumerBase22FrameAvailableListenerEED1Ev	0x22a4f
	_ZN7android2spINS_13GraphicBufferEEC2ERKS2_	0x26a15
	_ZN7android2spINS_13GraphicBufferEEC1ERKS2_	0x26a15
	_ZN7android12ConsumerBase15addReleaseFenceEiNS_2spINS_13GraphicBufferEEERKNS1_INS_5FenceEEE	0x26b5d
	_ZNK7android6VectorINS_11CpuConsumer14AcquiredBufferEE12do_constructEPvj	0x26bbb
	_ZN7android11CpuConsumer16freeBufferLockedEi	0x26be1
	_ZN7android11CpuConsumerD1Ev	0x26c21
	_ZN7android11CpuConsumerD0Ev	0x26c5d
	_ZN7android11CpuConsumerD2Ev	0x26c6f
	_ZN7android11CpuConsumer7setNameERKNS_7String8E	0x26c95
	_ZN7android11CpuConsumer20setDefaultBufferSizeEjj	0x26cc5
	_ZN7android11CpuConsumer22setDefaultBufferFormatEj	0x26cf1
	_ZN7android11CpuConsumer27releaseAcquiredBufferLockedEi	0x26d19
	_ZN7android11CpuConsumer12unlockBufferERKNS0_12LockedBufferE	0x26dd1
	_ZNK7android6VectorINS_11CpuConsumer14AcquiredBufferEE10do_destroyEPvj	0x26e3d
	_ZN7android11CpuConsumer14lockNextBufferEPNS0_12LockedBufferE	0x26e55
	_ZN7android11CpuConsumerC1ERKNS_2spINS_22IGraphicBufferConsumerEEEjb	0x270cd
	_ZN7android11CpuConsumerC2ERKNS_2spINS_22IGraphicBufferConsumerEEEjb	0x27141
	_ZNK7android6VectorINS_11CpuConsumer14AcquiredBufferEE7do_copyEPvPKvj	0x271b7
	_ZNK7android6VectorINS_11CpuConsumer14AcquiredBufferEE8do_splatEPvPKvj	0x271d5
	_ZNK7android6VectorINS_11CpuConsumer14AcquiredBufferEE15do_move_forwardEPvPKvj	0x271f1
	_ZNK7android6VectorINS_11CpuConsumer14AcquiredBufferEE16do_move_backwardEPvPKvj	0x27219
	_ZTv0_n12_N7android11CpuConsumerD0Ev	0x2723d
	_ZTv0_n12_N7android11CpuConsumerD1Ev	0x27249
	_ZNK7android20DisplayEventReceiver9initCheckEv	0x27255
	_ZNK7android20DisplayEventReceiver5getFdEv	0x27263
	_ZN7android20DisplayEventReceiver12setVsyncRateEj	0x27271
	_ZN7android20DisplayEventReceiver16requestNextVsyncEv	0x27291
	_ZN7android20DisplayEventReceiver9getEventsEPNS0_5EventEj	0x272a7
	_ZN7android20DisplayEventReceiver9getEventsERKNS_2spINS_7BitTubeEEEPNS0_5EventEj	0x272af
	_ZN7android20DisplayEventReceiver10sendEventsERKNS_2spINS_7BitTubeEEEPKNS0_5EventEj	0x272b5
	_ZN7android2spINS_23IDisplayEventConnectionEED2Ev	0x22a4f
	_ZN7android2spINS_23IDisplayEventConnectionEED1Ev	0x22a4f
	_ZN7android2spINS_7BitTubeEED2Ev	0x23929
	_ZN7android2spINS_7BitTubeEED1Ev	0x23929
	_ZN7android20DisplayEventReceiverD2Ev	0x272bb
	_ZN7android20DisplayEventReceiverD1Ev	0x272bb
	_ZN7android20DisplayEventReceiverC2Ev	0x272cf
	_ZN7android20DisplayEventReceiverC1Ev	0x272cf
	_ZNK7android10GLConsumer10dumpLockedERNS_7String8EPKc	0x276a9
	_ZN7android10GLConsumer16freeBufferLockedEi	0x276fd
	_ZN7android10GLConsumer19acquireBufferLockedEPNS_22IGraphicBufferConsumer10BufferItemEx	0x277f9
	_ZN7android10GLConsumer13abandonLockedEv	0x27921
	_ZN7android10GLConsumer24setDefaultMaxBufferCountEi	0x27943
	_ZN7android10GLConsumer20setDefaultBufferSizeEjj	0x2796f
	_ZN7android10GLConsumer28checkAndUpdateEglStateLockedEb	0x279a9
	_ZN7android10GLConsumer16isExternalFormatEj	0x27a1d
	_ZNK7android10GLConsumer23getCurrentTextureTargetEv	0x27a49
	_ZN7android10GLConsumer18getTransformMatrixEPf	0x27a4f
	_ZN7android10GLConsumer35computeCurrentTransformMatrixLockedEv	0x27a7d
	_ZN7android10GLConsumer19setFilteringEnabledEb	0x27ce1
	_ZN7android10GLConsumer12getTimestampEv	0x27d65
	_ZN7android10GLConsumer14getFrameNumberEv	0x27d8b
	_ZN7android10GLConsumer11createImageEPvRKNS_2spINS_13GraphicBufferEEERKNS_4RectE	0x27db1
	_ZN7android10GLConsumer25bindUnslottedBufferLockedEPv	0x27e65
	_ZN7android10GLConsumer15attachToContextEj	0x27edd
	_ZNK7android10GLConsumer14getCurrentCropEv	0x27fd1
	_ZNK7android10GLConsumer19getCurrentTransformEv	0x2806f
	_ZNK7android10GLConsumer21getCurrentScalingModeEv	0x2808f
	_ZN7android10GLConsumer7setNameERKNS_7String8E	0x237d1
	_ZN7android10GLConsumer22setDefaultBufferFormatEj	0x238fd
	_ZN7android10GLConsumer20setConsumerUsageBitsEj	0x280af
	_ZN7android10GLConsumer16setTransformHintEj	0x280dd
	_ZN7android2spINS_5FenceEEC2ERKS2_	0x28109
	_ZN7android2spINS_5FenceEEC1ERKS2_	0x28109
	_ZNK7android10GLConsumer15getCurrentFenceEv	0x2811b
	_ZN7android10GLConsumerC1ERKNS_2spINS_22IGraphicBufferConsumerEEEjjbb	0x28145
	_ZN7android10GLConsumerC2ERKNS_2spINS_22IGraphicBufferConsumerEEEjjbb	0x28235
	_ZNK7android10GLConsumer16getCurrentBufferEv	0x28371
	_ZN7android10GLConsumer15setReleaseFenceERKNS_2spINS_5FenceEEE	0x28399
	_ZN7android10GLConsumer19releaseBufferLockedEiNS_2spINS_13GraphicBufferEEEPvS4_	0x283fd
	_ZN7android10GLConsumer22getDebugTexImageBufferEv	0x2843d
	_ZN7android9SingletonINS_12SyncFeaturesEE11getInstanceEv	0x28515
	_ZN7android12SyncFeaturesC1Ev	0x30591
	_ZNK7android10GLConsumer19doGLFenceWaitLockedEv	0x28551
	_ZNK7android12SyncFeatures11useWaitSyncEv	0x3057d
	_ZNK7android10GLConsumer13doGLFenceWaitEv	0x286c9
	_ZN7android10GLConsumer22bindTextureImageLockedEv	0x286ed
	_ZN7android10GLConsumer20syncForReleaseLockedEPv	0x287d9
	_ZNK7android12SyncFeatures18useNativeFenceSyncEv	0x3056d
	_ZNK7android12SyncFeatures12useFenceSyncEv	0x30571
	_ZN7android10GLConsumer17detachFromContextEv	0x289b9
	_ZN7android10GLConsumer22updateAndReleaseLockedERKNS_22IGraphicBufferConsumer10BufferItemE	0x28ac9
	_ZN7android10GLConsumer14updateTexImageEv	0x28c5d
	_ZN7android10GLConsumer15releaseTexImageEv	0x28d3d
	_ZN7android11BnInterfaceINS_19IGraphicBufferAllocEE10onAsBinderEv	0x21cdd
	_ZNK7android19IGraphicBufferAlloc22getInterfaceDescriptorEv	0x2979d
	_ZN7android19IGraphicBufferAllocD2Ev	0x22819
	_ZN7android18GraphicBufferAlloc19createGraphicBufferEjjijPi	0x28f99
	_ZN7android19IGraphicBufferAllocC2Ev	0x226f5
	_ZN7android18GraphicBufferAllocD1Ev	0x290fd
	_ZThn4_N7android18GraphicBufferAllocD1Ev	0x29135
	_ZN7android18GraphicBufferAllocD0Ev	0x2913d
	_ZThn4_N7android18GraphicBufferAllocD0Ev	0x2914f
	_ZN7android18GraphicBufferAllocC2Ev	0x29157
	_ZN7android18GraphicBufferAllocC1Ev	0x29179
	_ZN7android18GraphicBufferAllocD2Ev	0x291b1
	_ZTv0_n12_N7android18GraphicBufferAllocD0Ev	0x291cf
	_ZTv0_n12_N7android18GraphicBufferAllocD1Ev	0x291db
	_ZN7android19IGraphicBufferAllocD1Ev	0x297ed
	_ZN7android19IGraphicBufferAllocD0Ev	0x29821
	_ZTv0_n12_N7android19IGraphicBufferAllocD1Ev	0x29cc9
	_ZTv0_n12_N7android19IGraphicBufferAllocD0Ev	0x29cbd
	_ZN7android20BnGraphicBufferAlloc10onTransactEjRKNS_6ParcelEPS1_j	0x29b55
	_ZThn4_N7android20BnGraphicBufferAlloc10onTransactEjRKNS_6ParcelEPS1_j	0x29c61
	_ZN7android21appendGuiConfigStringERNS_7String8E	0x291e9
	_ZNK7android23IDisplayEventConnection22getInterfaceDescriptorEv	0x291f5
	_ZN7android11BnInterfaceINS_23IDisplayEventConnectionEE10onAsBinderEv	0x21cdd
	_ZN7android23IDisplayEventConnectionD1Ev	0x29215
	_ZN7android23IDisplayEventConnectionD0Ev	0x29249
	_ZN7android24BnDisplayEventConnection10onTransactEjRKNS_6ParcelEPS1_j	0x2934d
	_ZThn4_N7android24BnDisplayEventConnection10onTransactEjRKNS_6ParcelEPS1_j	0x293d7
	_ZN7android23IDisplayEventConnectionC2Ev	0x226f5
	_ZN7android23IDisplayEventConnection11asInterfaceERKNS_2spINS_7IBinderEEE	0x29435
	_ZN7android23IDisplayEventConnectionC1Ev	0x2950d
	_ZN7android23IDisplayEventConnectionD2Ev	0x22819
	_ZTv0_n12_N7android23IDisplayEventConnectionD0Ev	0x29785
	_ZTv0_n12_N7android23IDisplayEventConnectionD1Ev	0x29791
	_ZN7android19IGraphicBufferAlloc11asInterfaceERKNS_2spINS_7IBinderEEE	0x298f1
	_ZN7android19IGraphicBufferAllocC1Ev	0x299c9
	_ZN7android22IGraphicBufferProducer11asInterfaceERKNS_2spINS_7IBinderEEE	0x2a07d
	_ZN7android22IGraphicBufferProducerC1Ev	0x2a155
	_ZNK7android22IGraphicBufferProducer16QueueBufferInput16getFlattenedSizeEv	0x2a28f
	_ZNK7android22IGraphicBufferProducer16QueueBufferInput10getFdCountEv	0x2a2a1
	_ZNK7android22IGraphicBufferProducer16QueueBufferInput7flattenERPvRjRPiS4_	0x2a2ad
	_ZN7android2spINS_5FenceEEaSEPS1_	0x2a63d
	_ZN7android22IGraphicBufferProducer16QueueBufferInput9unflattenERPKvRjRPKiS5_	0x2a659
	_ZNK7android22ISensorEventConnection22getInterfaceDescriptorEv	0x2a851
	_ZN7android11BnInterfaceINS_22ISensorEventConnectionEE10onAsBinderEv	0x21cdd
	_ZN7android22ISensorEventConnectionD1Ev	0x2a871
	_ZN7android22ISensorEventConnectionD0Ev	0x2a8a5
	_ZN7android23BnSensorEventConnection10onTransactEjRKNS_6ParcelEPS1_j	0x2aa45
	_ZThn4_N7android23BnSensorEventConnection10onTransactEjRKNS_6ParcelEPS1_j	0x2ab49
	_ZN7android22ISensorEventConnectionC2Ev	0x226f5
	_ZN7android22ISensorEventConnection11asInterfaceERKNS_2spINS_7IBinderEEE	0x2aba5
	_ZN7android22ISensorEventConnectionC1Ev	0x2ac7d
	_ZN7android22ISensorEventConnectionD2Ev	0x22819
	_ZTv0_n12_N7android22ISensorEventConnectionD0Ev	0x2aef5
	_ZTv0_n12_N7android22ISensorEventConnectionD1Ev	0x2af01
	_ZNK7android13ISensorServer22getInterfaceDescriptorEv	0x2af0d
	_ZN7android11BnInterfaceINS_13ISensorServerEE10onAsBinderEv	0x21cdd
	_ZNK7android6VectorINS_6SensorEE10do_destroyEPvj	0x2af2d
	_ZN7android6SensorD1Ev	0x2d1d1
	_ZNK7android6VectorINS_6SensorEE12do_constructEPvj	0x2af45
	_ZN7android6SensorC1Ev	0x2d125
	_ZN7android13ISensorServerD1Ev	0x2af9d
	_ZN7android13ISensorServerD0Ev	0x2afd1
	_ZN7android6Sensor9unflattenEPKvj	0x2d371
	_ZN7android13ISensorServerC2Ev	0x226f5
	_ZN7android13ISensorServer11asInterfaceERKNS_2spINS_7IBinderEEE	0x2b0ed
	_ZN7android13ISensorServerC1Ev	0x2b1c5
	_ZN7android13ISensorServerD2Ev	0x22819
	_ZN7android14BnSensorServer10onTransactEjRKNS_6ParcelEPS1_j	0x2b45d
	_ZNK7android6Sensor16getFlattenedSizeEv	0x2d213
	_ZNK7android6Sensor7flattenEPvj	0x2d235
	_ZThn4_N7android14BnSensorServer10onTransactEjRKNS_6ParcelEPS1_j	0x2b52f
	_ZNK7android6VectorINS_6SensorEE7do_copyEPvPKvj	0x2b585
	_ZNK7android6VectorINS_6SensorEE8do_splatEPvPKvj	0x2b5a3
	_ZNK7android6VectorINS_6SensorEE15do_move_forwardEPvPKvj	0x2b5bf
	_ZNK7android6VectorINS_6SensorEE16do_move_backwardEPvPKvj	0x2b5e7
	_ZTv0_n12_N7android13ISensorServerD0Ev	0x2b649
	_ZTv0_n12_N7android13ISensorServerD1Ev	0x2b655
	_ZNK7android16ISurfaceComposer22getInterfaceDescriptorEv	0x2b661
	_ZN7android11BnInterfaceINS_16ISurfaceComposerEE10onAsBinderEv	0x21cdd
	_ZNK7android6VectorINS_12DisplayStateEE12do_constructEPvj	0x2b681
	_ZN7android16ISurfaceComposerD1Ev	0x2b719
	_ZN7android16ISurfaceComposerD0Ev	0x2b74d
	_ZNK7android13ComposerState5writeERNS_6ParcelE	0x2cf17
	_ZNK7android12DisplayState5writeERNS_6ParcelE	0x2ce15
	_ZNK7android6VectorINS_13ComposerStateEE12do_constructEPvj	0x2bb05
	_ZN7android16ISurfaceComposerC2Ev	0x226f5
	_ZN7android16ISurfaceComposer11asInterfaceERKNS_2spINS_7IBinderEEE	0x2bb25
	_ZN7android16ISurfaceComposerC1Ev	0x2bbfd
	_ZN7android16ISurfaceComposerD2Ev	0x22819
	_ZN7android22ISurfaceComposerClient11asInterfaceERKNS_2spINS_7IBinderEEE	0x2c899
	_ZN7android2spINS_22ISurfaceComposerClientEED2Ev	0x22a4f
	_ZN7android2spINS_22ISurfaceComposerClientEED1Ev	0x22a4f
	_ZNK7android6VectorINS_13ComposerStateEE10do_destroyEPvj	0x2c0a7
	_ZN7android2spINS_7IBinderEEC2ERKS2_	0x265c5
	_ZN7android2spINS_7IBinderEEC1ERKS2_	0x265c5
	_ZN7android2spINS_22IGraphicBufferProducerEED2Ev	0x22a4f
	_ZN7android2spINS_22IGraphicBufferProducerEED1Ev	0x22a4f
	_ZNK7android6VectorINS_12DisplayStateEE10do_destroyEPvj	0x2c18f
	_ZN7android17BnSurfaceComposer10onTransactEjRKNS_6ParcelEPS1_j	0x2c1a9
	_ZN7android13ComposerState4readERKNS_6ParcelE	0x2d0a9
	_ZN7android12DisplayState4readERKNS_6ParcelE	0x2cf5b
	_ZThn4_N7android17BnSurfaceComposer10onTransactEjRKNS_6ParcelEPS1_j	0x2c539
	_ZNK7android6VectorINS_12DisplayStateEE7do_copyEPvPKvj	0x2c593
	_ZNK7android6VectorINS_12DisplayStateEE8do_splatEPvPKvj	0x2c5b1
	_ZNK7android6VectorINS_12DisplayStateEE15do_move_forwardEPvPKvj	0x2c5cd
	_ZNK7android6VectorINS_12DisplayStateEE16do_move_backwardEPvPKvj	0x2c5f5
	_ZNK7android6VectorINS_13ComposerStateEE7do_copyEPvPKvj	0x2c6ab
	_ZNK7android6VectorINS_13ComposerStateEE8do_splatEPvPKvj	0x2c6c9
	_ZNK7android6VectorINS_13ComposerStateEE15do_move_forwardEPvPKvj	0x2c6e5
	_ZNK7android6VectorINS_13ComposerStateEE16do_move_backwardEPvPKvj	0x2c70d
	_ZTv0_n12_N7android16ISurfaceComposerD0Ev	0x2c76d
	_ZTv0_n12_N7android16ISurfaceComposerD1Ev	0x2c779
	_ZNK7android22ISurfaceComposerClient22getInterfaceDescriptorEv	0x2c785
	_ZN7android11BnInterfaceINS_22ISurfaceComposerClientEE10onAsBinderEv	0x21cdd
	_ZN7android22ISurfaceComposerClientD1Ev	0x2c7a5
	_ZN7android22ISurfaceComposerClientD0Ev	0x2c7d9
	_ZN7android22ISurfaceComposerClientC2Ev	0x226f5
	_ZN7android22ISurfaceComposerClientC1Ev	0x2c971
	_ZN7android22ISurfaceComposerClientD2Ev	0x22819
	_ZN7android23BnSurfaceComposerClient10onTransactEjRKNS_6ParcelEPS1_j	0x2cca5
	_ZThn4_N7android23BnSurfaceComposerClient10onTransactEjRKNS_6ParcelEPS1_j	0x2cd99
	_ZTv0_n12_N7android22ISurfaceComposerClientD0Ev	0x2cddd
	_ZTv0_n12_N7android22ISurfaceComposerClientD1Ev	0x2cde9
	_ZN7android6Parcel5writeINS_4RectEEEiRKNS_16LightFlattenableIT_EE	0x2cdf5
	_ZNK7android13layer_state_t5writeERNS_6ParcelE	0x2ce69
	_ZN7android2spINS_7IBinderEEaSERKS2_	0x24c49
	_ZNK7android6Parcel4readINS_4RectEEEiRNS_16LightFlattenableIT_EE	0x2cf3f
	_ZN7android13layer_state_t4readERKNS_6ParcelE	0x2cff7
	_ZN7android6SensorC2Ev	0x2d125
	_ZN7android6SensorC2EPK8sensor_ti	0x2d15d
	_ZN7android6SensorC1EPK8sensor_ti	0x2d15d
	_ZN7android6SensorD2Ev	0x2d1d1
	_ZNK7android6Sensor7getNameEv	0x2d1e5
	_ZNK7android6Sensor9getVendorEv	0x21cdd
	_ZNK7android6Sensor9getHandleEv	0x21cd9
	_ZNK7android6Sensor7getTypeEv	0x2363d
	_ZNK7android6Sensor11getMinValueEv	0x2d1e7
	_ZNK7android6Sensor11getMaxValueEv	0x2d1eb
	_ZNK7android6Sensor13getResolutionEv	0x2d1ef
	_ZNK7android6Sensor13getPowerUsageEv	0x2d1f3
	_ZNK7android6Sensor11getMinDelayEv	0x2d1f7
	_ZNK7android6Sensor13getMinDelayNsEv	0x2d1fb
	_ZNK7android6Sensor10getVersionEv	0x2d207
	_ZNK7android6Sensor25getFifoReservedEventCountEv	0x2d20b
	_ZNK7android6Sensor20getFifoMaxEventCountEv	0x2d20f
	_ZN7android16SensorEventQueueC2ERKNS_2spINS_22ISensorEventConnectionEEE	0x2d475
	_ZN7android16SensorEventQueueC1ERKNS_2spINS_22ISensorEventConnectionEEE	0x2d475
	_ZNK7android16SensorEventQueue5getFdEv	0x2d4c5
	_ZN7android16SensorEventQueue5writeERKNS_2spINS_7BitTubeEEEPK12ASensorEventj	0x2d4cb
	_ZN7android16SensorEventQueue4readEP12ASensorEventj	0x2d4d1
	_ZNK7android16SensorEventQueue9getLooperEv	0x2d525
	_ZNK7android16SensorEventQueue12enableSensorEPKNS_6SensorE	0x2d59b
	_ZNK7android16SensorEventQueue13disableSensorEPKNS_6SensorE	0x2d5c7
	_ZNK7android16SensorEventQueue12enableSensorEiiii	0x2d5f1
	_ZNK7android16SensorEventQueue5flushEv	0x2d61b
	_ZNK7android16SensorEventQueue13disableSensorEi	0x2d627
	_ZNK7android16SensorEventQueue12setEventRateEPKNS_6SensorEx	0x2d647
	_ZN7android16SensorEventQueue10onFirstRefEv	0x2d665
	_ZN7android2spINS_6LooperEED2Ev	0x23929
	_ZN7android2spINS_6LooperEED1Ev	0x23929
	_ZN7android16SensorEventQueueD2Ev	0x2d699
	_ZN7android16SensorEventQueueD1Ev	0x2d699
	_ZN7android16SensorEventQueueD0Ev	0x2d6e9
	_ZNK7android16SensorEventQueue4wakeEv	0x2d6fb
	_ZNK7android16SensorEventQueue12waitForEventEv	0x2d715
	_ZN7android13SensorManager17sensorManagerDiedEv	0x2d7cb
	_ZN7android9SingletonINS_13SensorManagerEE11hasInstanceEv	0x2d82d
	_ZN7android9SingletonINS_13SensorManagerEED2Ev	0x2d1e5
	_ZN7android9SingletonINS_13SensorManagerEED1Ev	0x2d1e5
	_ZN7android9SingletonINS_13SensorManagerEEC2Ev	0x2d1e5
	_ZN7android9SingletonINS_13SensorManagerEEC1Ev	0x2d1e5
	_ZN7android2spINS_13ISensorServerEED2Ev	0x22a4f
	_ZN7android2spINS_13ISensorServerEED1Ev	0x22a4f
	_ZN7android13SensorManagerD2Ev	0x2d85d
	_ZN7android13SensorManagerD1Ev	0x2d85d
	_ZN7android10getServiceINS_13ISensorServerEEEiRKNS_8String16EPNS_2spIT_EE	0x2d893
	_ZNK7android13SensorManager17assertStateLockedEv	0x2d915
	_ZN7android13SensorManager16getDefaultSensorEi	0x2da09
	_ZNK7android13SensorManager13getSensorListEPPKPKNS_6SensorE	0x2da4f
	_ZN7android13SensorManagerC2Ev	0x2da75
	_ZN7android13SensorManagerC1Ev	0x2da75
	_ZN7android9SingletonINS_13SensorManagerEE11getInstanceEv	0x2dab1
	_ZN7android2spINS_22ISensorEventConnectionEED2Ev	0x22a4f
	_ZN7android2spINS_22ISensorEventConnectionEED1Ev	0x22a4f
	_ZN7android13SensorManager16createEventQueueEv	0x2dae5
	_ZN7android7Surface20hook_setSwapIntervalEP13ANativeWindowi	0x2dbad
	_ZN7android7Surface18hook_dequeueBufferEP13ANativeWindowPP19ANativeWindowBufferPi	0x2dbbb
	_ZN7android7Surface17hook_cancelBufferEP13ANativeWindowP19ANativeWindowBufferi	0x2dbc9
	_ZN7android7Surface16hook_queueBufferEP13ANativeWindowP19ANativeWindowBufferi	0x2dbd7
	_ZN7android7Surface28hook_cancelBuffer_DEPRECATEDEP13ANativeWindowP19ANativeWindowBuffer	0x2dbe5
	_ZN7android7Surface26hook_lockBuffer_DEPRECATEDEP13ANativeWindowP19ANativeWindowBuffer	0x2dbf7
	_ZN7android7Surface27hook_queueBuffer_DEPRECATEDEP13ANativeWindowP19ANativeWindowBuffer	0x2dc05
	_ZN7android7Surface10hook_queryEPK13ANativeWindowiPi	0x2dc17
	_ZN7android2spINS_7BBinderEED2Ev	0x22a4f
	_ZN7android2spINS_7BBinderEED1Ev	0x22a4f
	_ZN7android7Surface12hook_performEP13ANativeWindowiz	0x2dc39
	_ZN7android7Surface19setBuffersTimestampEx	0x2dd19
	_ZN7android7Surface16setBuffersFormatEi	0x2dd45
	_ZN7android7Surface8setUsageEj	0x2dd6f
	_ZN7android7Surface21lockBuffer_DEPRECATEDEP19ANativeWindowBuffer	0x2dd91
	_ZN7android7Surface19setBuffersTransformEi	0x2ddad
	_ZN7android7Surface14setScalingModeEi	0x2dded
	_ZN7android7Surface24setBuffersUserDimensionsEii	0x2de51
	_ZN7android7Surface20setBuffersDimensionsEii	0x2deb9
	_ZN7android7Surface15setSwapIntervalEi	0x2df21
	_ZN7android7Surface7setCropEPKNS_4RectE	0x2df65
	_ZNK7android7Surface5queryEiPi	0x2dfd9
	_ZN7android7Surface7connectEi	0x2e0d1
	_ZNK7android7Surface23getSlotFromBufferLockedEP19ANativeWindowBuffer	0x2e241
	_ZN7android7Surface15dispatchConnectESt9__va_list	0x2e285
	_ZN7android7Surface18dispatchDisconnectESt9__va_list	0x2e291
	_ZN7android7Surface16dispatchSetUsageESt9__va_list	0x2e29d
	_ZN7android7Surface15dispatchSetCropESt9__va_list	0x2e2a9
	_ZN7android7Surface22dispatchSetBufferCountESt9__va_list	0x2e2b5
	_ZN7android7Surface26dispatchSetBuffersGeometryESt9__va_list	0x2e2c1
	_ZN7android7Surface28dispatchSetBuffersDimensionsESt9__va_list	0x2e2dd
	_ZN7android7Surface32dispatchSetBuffersUserDimensionsESt9__va_list	0x2e2e9
	_ZN7android7Surface24dispatchSetBuffersFormatESt9__va_list	0x2e2f5
	_ZN7android7Surface22dispatchSetScalingModeESt9__va_list	0x2e301
	_ZN7android7Surface27dispatchSetBuffersTransformESt9__va_list	0x2e30d
	_ZN7android7Surface27dispatchSetBuffersTimestampESt9__va_list	0x2e319
	_ZN7android7Surface12dispatchLockESt9__va_list	0x2e32d
	_ZN7android7Surface21dispatchUnlockAndPostESt9__va_list	0x2e339
	_ZN7android7Surface7performEiSt9__va_list	0x2e343
	_ZN7android7Surface14freeAllBuffersEv	0x2e403
	_ZN7android7Surface14setBufferCountEi	0x2e42d
	_ZN7android7Surface10disconnectEi	0x2e49d
	_ZN7android7Surface13dequeueBufferEPP19ANativeWindowBufferPi	0x2e519
	_ZN7android7SurfaceD2Ev	0x2e649
	_ZN7android7SurfaceD1Ev	0x2e649
	_ZN7android7SurfaceD0Ev	0x2e6c1
	_ZN7android2spINS_22IGraphicBufferProducerEEC2ERKS2_	0x265c5
	_ZN7android2spINS_22IGraphicBufferProducerEEC1ERKS2_	0x265c5
	_ZNK7android7Surface25getIGraphicBufferProducerEv	0x2e6d3
	_ZN7android7SurfaceC2ERKNS_2spINS_22IGraphicBufferProducerEEEb	0x2e6e1
	_ZN7android7Surface29hook_dequeueBuffer_DEPRECATEDEP13ANativeWindowPP19ANativeWindowBuffer	0x2ea11
	_ZN7android7SurfaceC1ERKNS_2spINS_22IGraphicBufferProducerEEEb	0x2e6e1
	_ZN7android2spINS_5FenceEEC2EPS1_	0x2e821
	_ZN7android2spINS_5FenceEEC1EPS1_	0x2e821
	_ZN7android7Surface11queueBufferEP19ANativeWindowBufferi	0x2e835
	_ZN7android7Surface12cancelBufferEP19ANativeWindowBufferi	0x2e97d
	_ZN7android7Surface13unlockAndPostEv	0x2ea99
	_ZN7android7Surface4lockEP20ANativeWindow_BufferP5ARect	0x2eb45
	_ZN7android14SurfaceControlC2ERKNS_2spINS_21SurfaceComposerClientEEERKNS1_INS_7IBinderEEERKNS1_INS_22IGraphicBufferProducerEEE	0x2ef45
	_ZN7android14SurfaceControlC1ERKNS_2spINS_21SurfaceComposerClientEEERKNS1_INS_7IBinderEEERKNS1_INS_22IGraphicBufferProducerEEE	0x2ef45
	_ZN7android14SurfaceControl7destroyEv	0x2efad
	_ZN7android21SurfaceComposerClient14destroySurfaceERKNS_2spINS_7IBinderEEE	0x2f423
	_ZN7android14SurfaceControl5clearEv	0x2f011
	_ZN7android14SurfaceControl13isSameSurfaceERKNS_2spIS0_EES4_	0x2f015
	_ZNK7android14SurfaceControl8validateEv	0x2f031
	_ZN7android14SurfaceControl7setCropERKNS_4RectE	0x2f061
	_ZN7android21SurfaceComposerClient7setCropERKNS_2spINS_7IBinderEEERKNS_4RectE	0x30253
	_ZN7android14SurfaceControl9setMatrixEffff	0x2f081
	_ZN7android21SurfaceComposerClient9setMatrixERKNS_2spINS_7IBinderEEEffff	0x30063
	_ZN7android14SurfaceControl8setAlphaEf	0x2f0ad
	_ZN7android21SurfaceComposerClient8setAlphaERKNS_2spINS_7IBinderEEEf	0x300d5
	_ZN7android14SurfaceControl24setTransparentRegionHintERKNS_6RegionE	0x2f0cd
	_ZN7android21SurfaceComposerClient24setTransparentRegionHintERKNS_2spINS_7IBinderEEERKNS_6RegionE	0x300ff
	_ZN7android14SurfaceControl8setFlagsEjj	0x2f0ed
	_ZN7android21SurfaceComposerClient8setFlagsERKNS_2spINS_7IBinderEEEjj	0x30129
	_ZN7android14SurfaceControl4showEv	0x2f111
	_ZN7android21SurfaceComposerClient4showERKNS_2spINS_7IBinderEEE	0x3015f
	_ZN7android14SurfaceControl4hideEv	0x2f12d
	_ZN7android21SurfaceComposerClient4hideERKNS_2spINS_7IBinderEEE	0x3018f
	_ZN7android14SurfaceControl7setSizeEjj	0x2f149
	_ZN7android21SurfaceComposerClient7setSizeERKNS_2spINS_7IBinderEEEjj	0x301e7
	_ZN7android14SurfaceControl11setPositionEff	0x2f16d
	_ZN7android21SurfaceComposerClient11setPositionERKNS_2spINS_7IBinderEEEff	0x3021d
	_ZN7android14SurfaceControl8setLayerEi	0x2f191
	_ZN7android21SurfaceComposerClient8setLayerERKNS_2spINS_7IBinderEEEi	0x301bd
	_ZN7android14SurfaceControl13setLayerStackEi	0x2f1b1
	_ZN7android21SurfaceComposerClient13setLayerStackERKNS_2spINS_7IBinderEEEj	0x300ab
	_ZNK7android14SurfaceControl10getSurfaceEv	0x2f1d1
	_ZN7android14SurfaceControl20writeSurfaceToParcelERKNS_2spIS0_EEPNS_6ParcelE	0x2f233
	_ZN7android14SurfaceControlD2Ev	0x2f28d
	_ZN7android14SurfaceControlD1Ev	0x2f28d
	_ZN7android14SurfaceControlD0Ev	0x2f2dd
	_ZNK7android12SortedVectorINS_12DisplayStateEE10do_compareEPKvS4_	0x2f2ef
	_ZNK7android12SortedVectorINS_13ComposerStateEE10do_compareEPKvS4_	0x2f307
	_ZNK7android12SortedVectorINS_12DisplayStateEE12do_constructEPvj	0x2b681
	_ZN7android8Composer25openGlobalTransactionImplEv	0x2f3d7
	_ZN7android8Composer27setAnimationTransactionImplEv	0x2f3f3
	_ZNK7android21SurfaceComposerClient9initCheckEv	0x2363d
	_ZNK7android21SurfaceComposerClient10connectionEv	0x2f40f
	_ZN7android16ScreenshotClientC2Ev	0x2f435
	_ZN7android16ScreenshotClientC1Ev	0x2f435
	_ZNK7android16ScreenshotClient14getCpuConsumerEv	0x2f451
	_ZN7android16ScreenshotClient7releaseEv	0x2f549
	_ZNK7android16ScreenshotClient9getPixelsEv	0x21cd9
	_ZNK7android16ScreenshotClient8getWidthEv	0x2363d
	_ZNK7android16ScreenshotClient9getHeightEv	0x2d1e7
	_ZNK7android16ScreenshotClient9getFormatEv	0x2d1eb
	_ZNK7android16ScreenshotClient9getStrideEv	0x2d1ef
	_ZNK7android16ScreenshotClient7getSizeEv	0x2f587
	_ZN7android9SingletonINS_15ComposerServiceEE11hasInstanceEv	0x2f59d
	_ZN7android9SingletonINS_15ComposerServiceEED2Ev	0x2d1e5
	_ZN7android9SingletonINS_15ComposerServiceEED1Ev	0x2d1e5
	_ZN7android9SingletonINS_15ComposerServiceEEC2Ev	0x2d1e5
	_ZN7android9SingletonINS_15ComposerServiceEEC1Ev	0x2d1e5
	_ZN7android2spINS_7IBinder14DeathRecipientEEaSEPS2_	0x2f5cd
	_ZN7android15ComposerService19composerServiceDiedEv	0x2f5fb
	_ZN7android15ComposerService13connectLockedEv	0x2f659
	_ZN7android15ComposerServiceC2Ev	0x2f745
	_ZN7android15ComposerServiceC1Ev	0x2f745
	_ZN7android9SingletonINS_15ComposerServiceEE11getInstanceEv	0x2f775
	_ZN7android16ScreenshotClient7captureERKNS_2spINS_7IBinderEEERKNS1_INS_22IGraphicBufferProducerEEEjjjj	0x2f7fd
	_ZN7android21SurfaceComposerClient14unblankDisplayERKNS_2spINS_7IBinderEEE	0x2f83d
	_ZN7android21SurfaceComposerClient12blankDisplayERKNS_2spINS_7IBinderEEE	0x2f859
	_ZN7android21SurfaceComposerClient14getDisplayInfoERKNS_2spINS_7IBinderEEEPNS_11DisplayInfoE	0x2f875
	_ZN7android21SurfaceComposerClient19linkToComposerDeathERKNS_2spINS_7IBinder14DeathRecipientEEEPvj	0x2f899
	_ZN7android8Composer26closeGlobalTransactionImplEb	0x2f8d1
	_ZN7android8Composer17getBuiltInDisplayEi	0x2f9b9
	_ZN7android8Composer14destroyDisplayERKNS_2spINS_7IBinderEEE	0x2f9db
	_ZN7android8Composer13createDisplayERKNS_7String8Eb	0x2f9f7
	_ZN7android9SingletonINS_8ComposerEEC2Ev	0x2d1e5
	_ZN7android9SingletonINS_8ComposerEEC1Ev	0x2d1e5
	_ZN7android9SingletonINS_8ComposerEED2Ev	0x2d1e5
	_ZN7android9SingletonINS_8ComposerEED1Ev	0x2d1e5
	_ZN7android9SingletonINS_8ComposerEE11getInstanceEv	0x2fa1d
	_ZN7android21SurfaceComposerClient23setAnimationTransactionEv	0x2fa95
	_ZN7android21SurfaceComposerClient21openGlobalTransactionEv	0x2faa3
	_ZN7android21SurfaceComposerClientC2Ev	0x2fab1
	_ZN7android21SurfaceComposerClientC1Ev	0x2fab1
	_ZN7android21SurfaceComposerClient22closeGlobalTransactionEb	0x2fae5
	_ZN7android21SurfaceComposerClient17getBuiltInDisplayEi	0x2faf7
	_ZN7android21SurfaceComposerClient14destroyDisplayERKNS_2spINS_7IBinderEEE	0x2fb0f
	_ZN7android21SurfaceComposerClient13createDisplayERKNS_7String8Eb	0x2fb21
	_ZN7android9SingletonINS_8ComposerEE11hasInstanceEv	0x2fb3d
	_ZNK7android12SortedVectorINS_13ComposerStateEE10do_destroyEPvj	0x2c0a7
	_ZN7android2spINS_22ISurfaceComposerClientEEaSERKS2_	0x24c49
	_ZN7android21SurfaceComposerClient7disposeEv	0x2fb6d
	_ZN7android21SurfaceComposerClientD2Ev	0x2fbb9
	_ZN7android21SurfaceComposerClientD1Ev	0x2fbb9
	_ZN7android21SurfaceComposerClientD0Ev	0x2fbe9
	_ZN7android21SurfaceComposerClient10onFirstRefEv	0x2fbfb
	_ZN7android8Composer19getLayerStateLockedERKNS_2spINS_21SurfaceComposerClientEEERKNS1_INS_7IBinderEEE	0x2fc31
	_ZN7android8Composer7setCropERKNS_2spINS_21SurfaceComposerClientEEERKNS1_INS_7IBinderEEERKNS_4RectE	0x2fc93
	_ZN7android8Composer9setMatrixERKNS_2spINS_21SurfaceComposerClientEEERKNS1_INS_7IBinderEEEffff	0x2fcd5
	_ZN7android8Composer13setLayerStackERKNS_2spINS_21SurfaceComposerClientEEERKNS1_INS_7IBinderEEEj	0x2fd37
	_ZN7android8Composer8setAlphaERKNS_2spINS_21SurfaceComposerClientEEERKNS1_INS_7IBinderEEEf	0x2fd6f
	_ZN7android8Composer24setTransparentRegionHintERKNS_2spINS_21SurfaceComposerClientEEERKNS1_INS_7IBinderEEERKNS_6RegionE	0x2fda7
	_ZN7android8Composer8setFlagsERKNS_2spINS_21SurfaceComposerClientEEERKNS1_INS_7IBinderEEEjj	0x2fde5
	_ZN7android8Composer8setLayerERKNS_2spINS_21SurfaceComposerClientEEERKNS1_INS_7IBinderEEEi	0x2fe39
	_ZN7android8Composer7setSizeERKNS_2spINS_21SurfaceComposerClientEEERKNS1_INS_7IBinderEEEjj	0x2fe71
	_ZN7android8Composer11setPositionERKNS_2spINS_21SurfaceComposerClientEEERKNS1_INS_7IBinderEEEff	0x2feb1
	_ZN7android8Composer21getDisplayStateLockedERKNS_2spINS_7IBinderEEE	0x2fef1
	_ZN7android8Composer20setDisplayProjectionERKNS_2spINS_7IBinderEEEjRKNS_4RectES8_	0x2ff35
	_ZN7android21SurfaceComposerClient20setDisplayProjectionERKNS_2spINS_7IBinderEEEjRKNS_4RectES8_	0x2ff89
	_ZN7android8Composer20setDisplayLayerStackERKNS_2spINS_7IBinderEEEj	0x2ffa5
	_ZN7android21SurfaceComposerClient20setDisplayLayerStackERKNS_2spINS_7IBinderEEEj	0x2ffd1
	_ZN7android8Composer17setDisplaySurfaceERKNS_2spINS_7IBinderEEERKNS1_INS_22IGraphicBufferProducerEEE	0x2ffe7
	_ZN7android21SurfaceComposerClient17setDisplaySurfaceERKNS_2spINS_7IBinderEEERKNS1_INS_22IGraphicBufferProducerEEE	0x30039
	_ZNK7android12SortedVectorINS_12DisplayStateEE10do_destroyEPvj	0x2c18f
	_ZN7android2spINS_21SurfaceComposerClientEEC2EPS1_	0x3004f
	_ZN7android2spINS_21SurfaceComposerClientEEC1EPS1_	0x3004f
	_ZN7android2spINS_21SurfaceComposerClientEED2Ev	0x23929
	_ZN7android2spINS_21SurfaceComposerClientEED1Ev	0x23929
	_ZN7android21SurfaceComposerClient13createSurfaceERKNS_7String8Ejjij	0x3027d
	_ZN7android2spINS_11CpuConsumerEED2Ev	0x22a4f
	_ZN7android2spINS_11CpuConsumerEED1Ev	0x22a4f
	_ZN7android16ScreenshotClientD2Ev	0x30325
	_ZN7android16ScreenshotClientD1Ev	0x30325
	_ZN7android16ScreenshotClient6updateERKNS_2spINS_7IBinderEEEjjjj	0x30349
	_ZN7android16ScreenshotClient6updateERKNS_2spINS_7IBinderEEEjj	0x303fb
	_ZN7android16ScreenshotClient6updateERKNS_2spINS_7IBinderEEE	0x3040d
	_ZNK7android12SortedVectorINS_12DisplayStateEE8do_splatEPvPKvj	0x2c5b1
	_ZNK7android12SortedVectorINS_12DisplayStateEE7do_copyEPvPKvj	0x2c593
	_ZNK7android12SortedVectorINS_12DisplayStateEE15do_move_forwardEPvPKvj	0x30449
	_ZNK7android12SortedVectorINS_12DisplayStateEE16do_move_backwardEPvPKvj	0x30477
	_ZNK7android12SortedVectorINS_13ComposerStateEE12do_constructEPvj	0x3049f
	_ZNK7android12SortedVectorINS_13ComposerStateEE8do_splatEPvPKvj	0x2c6c9
	_ZNK7android12SortedVectorINS_13ComposerStateEE7do_copyEPvPKvj	0x2c6ab
	_ZNK7android12SortedVectorINS_13ComposerStateEE15do_move_forwardEPvPKvj	0x304cf
	_ZNK7android12SortedVectorINS_13ComposerStateEE16do_move_backwardEPvPKvj	0x304fd
	_ZN7android12SyncFeaturesC2Ev	0x30591
	_ZNK7android12SyncFeatures8toStringEv	0x30675
	_ZN7android9SingletonINS_12SyncFeaturesEE11hasInstanceEv	0x30685
	_ZN7android9SingletonINS_12SyncFeaturesEED2Ev	0x2d1e5
	_ZN7android9SingletonINS_12SyncFeaturesEED1Ev	0x2d1e5
	_ZN7android9SingletonINS_12SyncFeaturesEEC2Ev	0x2d1e5
	_ZN7android9SingletonINS_12SyncFeaturesEEC1Ev	0x2d1e5
Module(name="libEGL.so", base_address=0x402d6000, size=335872, path="/system/lib/libEGL.so")
	func_name	RVA
	eglReleaseThread	0xf041
	eglGetError	0xe999
	_ZN7android11egl_cache_tC2Ev	0xc4df
	_ZN7android11egl_cache_tC1Ev	0xc4df
	_ZN7android11egl_cache_t3getEv	0xc501
	_ZN7android11egl_cache_t10initializeEPNS_13egl_display_tE	0xc50d
	_ZN7android11egl_cache_t16setCacheFilenameEPKc	0xc62d
	_ZN7android11egl_cache_t19saveBlobCacheLockedEv	0xc655
	_ZN7android11egl_cache_t9terminateEv	0xc83d
	_ZN7android11egl_cache_t19loadBlobCacheLockedEv	0xc869
	_ZN7android11egl_cache_t18getBlobCacheLockedEv	0xc9fd
	_ZN7android11egl_cache_tD2Ev	0xca5f
	_ZN7android11egl_cache_tD1Ev	0xca5f
	_ZN7android11egl_cache_t7getBlobEPKvlPvl	0xca7d
	_ZN7android11egl_cache_t7setBlobEPKvlS2_l	0xcb0d
	_ZN7android13egl_display_tC2Ev	0xcced
	_ZN7android13egl_display_tC1Ev	0xcced
	_ZN7android13egl_display_tD2Ev	0xcd69
	_ZN7android13egl_display_tD1Ev	0xcd69
	_ZN7android13egl_display_t3getEPv	0xcdc5
	_ZN7android13egl_display_t9addObjectEPNS_12egl_object_tE	0xcdd9
	_ZN7android13egl_display_t12removeObjectEPNS_12egl_object_tE	0xcdfb
	_ZNK7android13egl_display_t9getObjectEPNS_12egl_object_tE	0xce1d
	_ZN7android13egl_display_t10getDisplayEPv	0xce59
	_ZN7android13egl_display_t20getFromNativeDisplayEPv	0xced5
	_ZNK7android13egl_display_t13haveExtensionEPKcj	0xcee9
	_ZN7android13egl_display_t18HibernationMachine12incWakeCountENS1_15WakeRefStrengthE	0xcf05
	_ZN7android13egl_display_t18HibernationMachine12decWakeCountENS1_15WakeRefStrengthE	0xcfb1
	_ZN7android13egl_display_t18HibernationMachine15setDisplayValidEb	0xd03d
	_ZN7android13egl_display_t10initializeEPiS1_	0xd059
	_ZN7android13egl_display_t9terminateEv	0xd269
	_ZN7android13egl_display_t11makeCurrentEPNS_13egl_context_tES2_PvS3_S3_S3_S3_S3_	0xd391
	_ZN7android13egl_display_t15loseCurrentImplEPNS_13egl_context_tE	0xd461
	_ZN7android13egl_display_t11loseCurrentEPNS_13egl_context_tE	0xd4cf
	_ZN7android15setGLDebugLevelEi	0xd82d
	_ZN7android34egl_get_string_for_current_contextEj	0xdba9
	_ZN7android19setGlThreadSpecificEPKNS_10gl_hooks_tE	0xdcd3
	eglGetSystemTimeNV	0xddc1
	eglGetSystemTimeFrequencyNV	0xde21
	eglWaitSyncKHR	0xe0f9
	eglGetSyncAttribKHR	0xe141
	eglClientWaitSyncKHR	0xe191
	eglSignalSyncKHR	0xe1e9
	eglDestroySyncKHR	0xe231
	eglCreateSyncKHR	0xe279
	eglDestroyImageKHR	0xe2c1
	eglGetDisplay	0xe309
	eglInitialize	0xe351
	eglTerminate	0xe39d
	eglGetConfigs	0xe3e1
	eglChooseConfig	0xe451
	eglGetConfigAttrib	0xe5e1
	eglCreateWindowSurface	0xe61d
	eglCreatePixmapSurface	0xe7f9
	eglCreatePbufferSurface	0xe85d
	eglGetCurrentContext	0xe8bd
	eglGetCurrentSurface	0xe8cd
	eglGetCurrentDisplay	0xe90d
	eglWaitGL	0xe91d
	eglWaitNative	0xe959
	eglGetProcAddress	0xeae9
	eglQueryString	0xee41
	_Z35eglQueryStringImplementationANDROIDPvi	0xeead
	eglSwapInterval	0xef19
	eglWaitClient	0xef61
	eglBindAPI	0xefa5
	eglQueryAPI	0xeff5
	eglCreatePbufferFromClientBuffer	0xf081
	eglDupNativeFenceFDANDROID	0xf0e5
	eglUnlockSurfaceKHR	0xf149
	eglLockSurfaceKHR	0xf1bd
	eglReleaseTexImage	0xf235
	eglBindTexImage	0xf2a9
	eglSurfaceAttrib	0xf319
	eglCopyBuffers	0xf38d
	_Z13eglBeginFramePvS_	0xf3ed
	eglQuerySurface	0xf44d
	eglDestroySurface	0xf4b1
	eglPresentationTimeANDROID	0xf519
	eglSwapBuffers	0xf579
	eglCreateImageKHR	0xf6bd
	eglQueryContext	0xf729
	eglCreateContext	0xf78d
	eglDestroyContext	0xf861
	eglMakeCurrent	0xf8d5
Module(name="libGLES_trace.so", base_address=0x4032b000, size=323584, path="/system/lib/libGLES_trace.so")
	func_name	RVA
	_ZN6google8protobuf8internal20RepeatedPtrFieldBase7ReserveEi	0x456a5
	_ZN7android7gltrace18GLMessage_DataTypeC1Ev	0x42f3d
	_ZN7android7gltrace23GLTrace_glActiveTextureEj	0x203c7
	_ZN7android7gltrace9GLMessageC1Ev	0x42e09
	_ZN7android7gltrace17getGLTraceContextEv	0x40755
	_ZN7android7gltrace14fixupGLMessageEPNS0_14GLTraceContextExxxxPNS0_9GLMessageEPPv	0x422f7
	_ZN7android7gltrace14GLTraceContext14traceGLMessageEPNS0_9GLMessageE	0x40991
	_ZN7android7gltrace9GLMessageD1Ev	0x43bf9
	_ZN7android7gltrace22GLTrace_glAttachShaderEjj	0x2046b
	_ZN7android7gltrace28GLTrace_glBindAttribLocationEjjPKc	0x20539
	_ZN7android7gltrace20GLTrace_glBindBufferEjj	0x20623
	_ZN7android7gltrace25GLTrace_glBindFramebufferEjj	0x206f1
	_ZN7android7gltrace26GLTrace_glBindRenderbufferEjj	0x207bb
	_ZN7android7gltrace21GLTrace_glBindTextureEjj	0x20885
	_ZN7android7gltrace20GLTrace_glBlendColorEffff	0x2094f
	_ZN7android7gltrace23GLTrace_glBlendEquationEj	0x20a57
	_ZN7android7gltrace31GLTrace_glBlendEquationSeparateEjj	0x20afd
	_ZN7android7gltrace19GLTrace_glBlendFuncEjj	0x20bcb
	_ZN7android7gltrace27GLTrace_glBlendFuncSeparateEjjjj	0x20c99
	_ZN7android7gltrace20GLTrace_glBufferDataEjlPKvj	0x20da1
	_ZN7android7gltrace23GLTrace_glBufferSubDataEjllPKv	0x20ebd
	_ZN7android7gltrace32GLTrace_glCheckFramebufferStatusEj	0x20fcb
	_ZN7android7gltrace15GLTrace_glClearEj	0x2109f
	_ZN7android7gltrace20GLTrace_glClearColorEffff	0x21147
	_ZN7android7gltrace21GLTrace_glClearDepthfEf	0x2124f
	_ZN7android7gltrace22GLTrace_glClearStencilEi	0x212f7
	_ZN7android7gltrace19GLTrace_glColorMaskEhhhh	0x2139f
	_ZN7android7gltrace23GLTrace_glCompileShaderEj	0x214bf
	_ZN7android7gltrace30GLTrace_glCompressedTexImage2DEjijiiiiPKv	0x21567
	_ZN7android7gltrace33GLTrace_glCompressedTexSubImage2DEjiiiiijiPKv	0x216fb
	_ZN7android7gltrace24GLTrace_glCopyTexImage2DEjijiiiii	0x218af
	_ZN7android7gltrace27GLTrace_glCopyTexSubImage2DEjiiiiiii	0x21a3d
	_ZN7android7gltrace23GLTrace_glCreateProgramEv	0x21bc7
	_ZN7android7gltrace22GLTrace_glCreateShaderEj	0x21c79
	_ZN7android7gltrace18GLTrace_glCullFaceEj	0x21d51
	_ZN7android7gltrace23GLTrace_glDeleteBuffersEiPKj	0x21df9
	_ZN7android7gltrace28GLTrace_glDeleteFramebuffersEiPKj	0x21ec9
	_ZN7android7gltrace23GLTrace_glDeleteProgramEj	0x21f99
	_ZN7android7gltrace29GLTrace_glDeleteRenderbuffersEiPKj	0x22041
	_ZN7android7gltrace22GLTrace_glDeleteShaderEj	0x22111
	_ZN7android7gltrace24GLTrace_glDeleteTexturesEiPKj	0x221b9
	_ZN7android7gltrace19GLTrace_glDepthFuncEj	0x22289
	_ZN7android7gltrace19GLTrace_glDepthMaskEh	0x22331
	_ZN7android7gltrace21GLTrace_glDepthRangefEff	0x223dd
	_ZN7android7gltrace22GLTrace_glDetachShaderEjj	0x224ab
	_ZN7android7gltrace17GLTrace_glDisableEj	0x22579
	_ZN7android7gltrace34GLTrace_glDisableVertexAttribArrayEj	0x22621
	_ZN7android7gltrace20GLTrace_glDrawArraysEjii	0x226c9
	_ZN7android7gltrace22GLTrace_glDrawElementsEjijPKv	0x227b3
	_ZN7android7gltrace16GLTrace_glEnableEj	0x228cf
	_ZN7android7gltrace33GLTrace_glEnableVertexAttribArrayEj	0x22977
	_ZN7android7gltrace16GLTrace_glFinishEv	0x22a1f
	_ZN7android7gltrace15GLTrace_glFlushEv	0x22aa3
	_ZN7android7gltrace33GLTrace_glFramebufferRenderbufferEjjjj	0x22b27
	_ZN7android7gltrace30GLTrace_glFramebufferTexture2DEjjjji	0x22c31
	_ZN7android7gltrace19GLTrace_glFrontFaceEj	0x22d75
	_ZN7android7gltrace20GLTrace_glGenBuffersEiPj	0x22e1d
	_ZN7android7gltrace24GLTrace_glGenerateMipmapEj	0x22eed
	_ZN7android7gltrace25GLTrace_glGenFramebuffersEiPj	0x22f95
	_ZN7android7gltrace26GLTrace_glGenRenderbuffersEiPj	0x23065
	_ZN7android7gltrace21GLTrace_glGenTexturesEiPj	0x23135
	_ZN7android7gltrace25GLTrace_glGetActiveAttribEjjiPiS1_PjPc	0x23205
	_ZN7android7gltrace26GLTrace_glGetActiveUniformEjjiPiS1_PjPc	0x2337d
	_ZN7android7gltrace28GLTrace_glGetAttachedShadersEjiPiPj	0x234f5
	_ZN7android7gltrace27GLTrace_glGetAttribLocationEjPKc	0x23605
	_ZN7android7gltrace21GLTrace_glGetBooleanvEjPh	0x23703
	_ZN7android7gltrace30GLTrace_glGetBufferParameterivEjjPi	0x237cf
	_ZN7android7gltrace18GLTrace_glGetErrorEv	0x238bd
	_ZN7android7gltrace19GLTrace_glGetFloatvEjPf	0x2396f
	_ZN7android7gltrace45GLTrace_glGetFramebufferAttachmentParameterivEjjjPi	0x23a3b
	_ZN7android7gltrace21GLTrace_glGetIntegervEjPi	0x23b49
	_ZN7android7gltrace22GLTrace_glGetProgramivEjjPi	0x23c15
	_ZN7android7gltrace27GLTrace_glGetProgramInfoLogEjiPiPc	0x23d03
	_ZN7android7gltrace36GLTrace_glGetRenderbufferParameterivEjjPi	0x23e13
	_ZN7android7gltrace21GLTrace_glGetShaderivEjjPi	0x23f01
	_ZN7android7gltrace26GLTrace_glGetShaderInfoLogEjiPiPc	0x23fef
	_ZN7android7gltrace34GLTrace_glGetShaderPrecisionFormatEjjPiS1_	0x240ff
	_ZN7android7gltrace25GLTrace_glGetShaderSourceEjiPiPc	0x24211
	_ZN7android7gltrace19GLTrace_glGetStringEj	0x24321
	_ZN7android7gltrace27GLTrace_glGetTexParameterfvEjjPf	0x243fd
	_ZN7android7gltrace27GLTrace_glGetTexParameterivEjjPi	0x244eb
	_ZN7android7gltrace22GLTrace_glGetUniformfvEjiPf	0x245d9
	_ZN7android7gltrace22GLTrace_glGetUniformivEjiPi	0x246c5
	_ZN7android7gltrace28GLTrace_glGetUniformLocationEjPKc	0x247b1
	_ZN7android7gltrace27GLTrace_glGetVertexAttribfvEjjPf	0x248af
	_ZN7android7gltrace27GLTrace_glGetVertexAttribivEjjPi	0x2499d
	_ZN7android7gltrace33GLTrace_glGetVertexAttribPointervEjjPPv	0x24a8b
	_ZN7android7gltrace14GLTrace_glHintEjj	0x24b79
	_ZN7android7gltrace18GLTrace_glIsBufferEj	0x24c47
	_ZN7android7gltrace19GLTrace_glIsEnabledEj	0x24d23
	_ZN7android7gltrace23GLTrace_glIsFramebufferEj	0x24dff
	_ZN7android7gltrace19GLTrace_glIsProgramEj	0x24edb
	_ZN7android7gltrace24GLTrace_glIsRenderbufferEj	0x24fb7
	_ZN7android7gltrace18GLTrace_glIsShaderEj	0x25093
	_ZN7android7gltrace19GLTrace_glIsTextureEj	0x2516f
	_ZN7android7gltrace19GLTrace_glLineWidthEf	0x2524b
	_ZN7android7gltrace21GLTrace_glLinkProgramEj	0x252f3
	_ZN7android7gltrace21GLTrace_glPixelStoreiEji	0x2539b
	_ZN7android7gltrace23GLTrace_glPolygonOffsetEff	0x25467
	_ZN7android7gltrace20GLTrace_glReadPixelsEiiiijjPv	0x25537
	_ZN7android7gltrace31GLTrace_glReleaseShaderCompilerEv	0x256ad
	_ZN7android7gltrace29GLTrace_glRenderbufferStorageEjjii	0x25733
	_ZN7android7gltrace24GLTrace_glSampleCoverageEfh	0x2583f
	_ZN7android7gltrace17GLTrace_glScissorEiiii	0x25911
	_ZN7android7gltrace22GLTrace_glShaderBinaryEiPKjjPKvi	0x25a1b
	_ZN7android7gltrace22GLTrace_glShaderSourceEjiPKPKcPKi	0x25b4f
	_ZN7android7gltrace21GLTrace_glStencilFuncEjij	0x25c61
	_ZN7android7gltrace29GLTrace_glStencilFuncSeparateEjjij	0x25d4d
	_ZN7android7gltrace21GLTrace_glStencilMaskEj	0x25e59
	_ZN7android7gltrace29GLTrace_glStencilMaskSeparateEjj	0x25f03
	_ZN7android7gltrace19GLTrace_glStencilOpEjjj	0x25fcf
	_ZN7android7gltrace27GLTrace_glStencilOpSeparateEjjjj	0x260b9
	_ZN7android7gltrace20GLTrace_glTexImage2DEjiiiiijjPKv	0x261c3
	_ZN7android7gltrace23GLTrace_glTexParameterfEjjf	0x2637d
	_ZN7android7gltrace24GLTrace_glTexParameterfvEjjPKf	0x26469
	_ZN7android7gltrace23GLTrace_glTexParameteriEjji	0x26559
	_ZN7android7gltrace24GLTrace_glTexParameterivEjjPKi	0x26645
	_ZN7android7gltrace23GLTrace_glTexSubImage2DEjiiiiijjPKv	0x26735
	_ZN7android7gltrace19GLTrace_glUniform1fEif	0x268ef
	_ZN7android7gltrace20GLTrace_glUniform1fvEiiPKf	0x269bb
	_ZN7android7gltrace19GLTrace_glUniform1iEii	0x26aa9
	_ZN7android7gltrace20GLTrace_glUniform1ivEiiPKi	0x26b79
	_ZN7android7gltrace19GLTrace_glUniform2fEiff	0x26c67
	_ZN7android7gltrace20GLTrace_glUniform2fvEiiPKf	0x26d53
	_ZN7android7gltrace19GLTrace_glUniform2iEiii	0x26e41
	_ZN7android7gltrace20GLTrace_glUniform2ivEiiPKi	0x26f2b
	_ZN7android7gltrace19GLTrace_glUniform3fEifff	0x27019
	_ZN7android7gltrace20GLTrace_glUniform3fvEiiPKf	0x27125
	_ZN7android7gltrace19GLTrace_glUniform3iEiiii	0x27213
	_ZN7android7gltrace20GLTrace_glUniform3ivEiiPKi	0x2731d
	_ZN7android7gltrace19GLTrace_glUniform4fEiffff	0x2740b
	_ZN7android7gltrace20GLTrace_glUniform4fvEiiPKf	0x2753b
	_ZN7android7gltrace19GLTrace_glUniform4iEiiiii	0x27629
	_ZN7android7gltrace20GLTrace_glUniform4ivEiiPKi	0x27753
	_ZN7android7gltrace26GLTrace_glUniformMatrix2fvEiihPKf	0x27841
	_ZN7android7gltrace26GLTrace_glUniformMatrix3fvEiihPKf	0x27957
	_ZN7android7gltrace26GLTrace_glUniformMatrix4fvEiihPKf	0x27a6d
	_ZN7android7gltrace20GLTrace_glUseProgramEj	0x27b83
	_ZN7android7gltrace25GLTrace_glValidateProgramEj	0x27c2d
	_ZN7android7gltrace24GLTrace_glVertexAttrib1fEjf	0x27cd7
	_ZN7android7gltrace25GLTrace_glVertexAttrib1fvEjPKf	0x27da3
	_ZN7android7gltrace24GLTrace_glVertexAttrib2fEjff	0x27e75
	_ZN7android7gltrace25GLTrace_glVertexAttrib2fvEjPKf	0x27f61
	_ZN7android7gltrace24GLTrace_glVertexAttrib3fEjfff	0x28033
	_ZN7android7gltrace25GLTrace_glVertexAttrib3fvEjPKf	0x2813f
	_ZN7android7gltrace24GLTrace_glVertexAttrib4fEjffff	0x28211
	_ZN7android7gltrace25GLTrace_glVertexAttrib4fvEjPKf	0x28341
	_ZN7android7gltrace29GLTrace_glVertexAttribPointerEjijhiPKv	0x28413
	_ZN7android7gltrace18GLTrace_glViewportEiiii	0x2856d
	_ZN7android7gltrace20GLTrace_glReadBufferEj	0x28677
	_ZN7android7gltrace27GLTrace_glDrawRangeElementsEjjjijPKv	0x28721
	_ZN7android7gltrace20GLTrace_glTexImage3DEjiiiiiijjPKv	0x28877
	_ZN7android7gltrace23GLTrace_glTexSubImage3DEjiiiiiiijjPKv	0x28a51
	_ZN7android7gltrace27GLTrace_glCopyTexSubImage3DEjiiiiiiii	0x28c4b
	_ZN7android7gltrace30GLTrace_glCompressedTexImage3DEjijiiiiiPKv	0x28df7
	_ZN7android7gltrace33GLTrace_glCompressedTexSubImage3DEjiiiiiiijiPKv	0x28fad
	_ZN7android7gltrace20GLTrace_glGenQueriesEiPj	0x291a3
	_ZN7android7gltrace23GLTrace_glDeleteQueriesEiPKj	0x29275
	_ZN7android7gltrace17GLTrace_glIsQueryEj	0x29347
	_ZN7android7gltrace20GLTrace_glBeginQueryEjj	0x29425
	_ZN7android7gltrace18GLTrace_glEndQueryEj	0x294f1
	_ZN7android7gltrace20GLTrace_glGetQueryivEjjPi	0x2959b
	_ZN7android7gltrace27GLTrace_glGetQueryObjectuivEjjPj	0x2968b
	_ZN7android7gltrace21GLTrace_glUnmapBufferEj	0x2977b
	_ZN7android7gltrace27GLTrace_glGetBufferPointervEjjPPv	0x29859
	_ZN7android7gltrace21GLTrace_glDrawBuffersEiPKj	0x29949
	_ZN7android7gltrace28GLTrace_glUniformMatrix2x3fvEiihPKf	0x29a1b
	_ZN7android7gltrace28GLTrace_glUniformMatrix3x2fvEiihPKf	0x29b31
	_ZN7android7gltrace28GLTrace_glUniformMatrix2x4fvEiihPKf	0x29c47
	_ZN7android7gltrace28GLTrace_glUniformMatrix4x2fvEiihPKf	0x29d5d
	_ZN7android7gltrace28GLTrace_glUniformMatrix3x4fvEiihPKf	0x29e73
	_ZN7android7gltrace28GLTrace_glUniformMatrix4x3fvEiihPKf	0x29f89
	_ZN7android7gltrace25GLTrace_glBlitFramebufferEiiiiiiiijj	0x2a09f
	_ZN7android7gltrace40GLTrace_glRenderbufferStorageMultisampleEjijii	0x2a26b
	_ZN7android7gltrace33GLTrace_glFramebufferTextureLayerEjjjii	0x2a3af
	_ZN7android7gltrace24GLTrace_glMapBufferRangeEjllj	0x2a4f5
	_ZN7android7gltrace32GLTrace_glFlushMappedBufferRangeEjll	0x2a629
	_ZN7android7gltrace25GLTrace_glBindVertexArrayEj	0x2a715
	_ZN7android7gltrace28GLTrace_glDeleteVertexArraysEiPKj	0x2a7bd
	_ZN7android7gltrace25GLTrace_glGenVertexArraysEiPj	0x2a88f
	_ZN7android7gltrace23GLTrace_glIsVertexArrayEj	0x2a961
	_ZN7android7gltrace23GLTrace_glGetIntegeri_vEjjPi	0x2aa3f
	_ZN7android7gltrace32GLTrace_glBeginTransformFeedbackEj	0x2ab2f
	_ZN7android7gltrace30GLTrace_glEndTransformFeedbackEv	0x2abd7
	_ZN7android7gltrace25GLTrace_glBindBufferRangeEjjjll	0x2ac5d
	_ZN7android7gltrace24GLTrace_glBindBufferBaseEjjj	0x2ad87
	_ZN7android7gltrace35GLTrace_glTransformFeedbackVaryingsEjiPKPKcj	0x2ae71
	_ZN7android7gltrace37GLTrace_glGetTransformFeedbackVaryingEjjiPiS1_PjPc	0x2af81
	_ZN7android7gltrace30GLTrace_glVertexAttribIPointerEjijiPKv	0x2b0fb
	_ZN7android7gltrace28GLTrace_glGetVertexAttribIivEjjPi	0x2b22d
	_ZN7android7gltrace29GLTrace_glGetVertexAttribIuivEjjPj	0x2b31d
	_ZN7android7gltrace25GLTrace_glVertexAttribI4iEjiiii	0x2b40d
	_ZN7android7gltrace26GLTrace_glVertexAttribI4uiEjjjjj	0x2b537
	_ZN7android7gltrace26GLTrace_glVertexAttribI4ivEjPKi	0x2b661
	_ZN7android7gltrace27GLTrace_glVertexAttribI4uivEjPKj	0x2b733
	_ZN7android7gltrace23GLTrace_glGetUniformuivEjiPj	0x2b805
	_ZN7android7gltrace29GLTrace_glGetFragDataLocationEjPKc	0x2b8f3
	_ZN7android7gltrace20GLTrace_glUniform1uiEij	0x2b9f3
	_ZN7android7gltrace20GLTrace_glUniform2uiEijj	0x2bac3
	_ZN7android7gltrace20GLTrace_glUniform3uiEijjj	0x2bbad
	_ZN7android7gltrace20GLTrace_glUniform4uiEijjjj	0x2bcb7
	_ZN7android7gltrace21GLTrace_glUniform1uivEiiPKj	0x2bde1
	_ZN7android7gltrace21GLTrace_glUniform2uivEiiPKj	0x2becf
	_ZN7android7gltrace21GLTrace_glUniform3uivEiiPKj	0x2bfbd
	_ZN7android7gltrace21GLTrace_glUniform4uivEiiPKj	0x2c0ab
	_ZN7android7gltrace23GLTrace_glClearBufferivEjiPKi	0x2c199
	_ZN7android7gltrace24GLTrace_glClearBufferuivEjiPKj	0x2c289
	_ZN7android7gltrace23GLTrace_glClearBufferfvEjiPKf	0x2c379
	_ZN7android7gltrace23GLTrace_glClearBufferfiEjifi	0x2c469
	_ZN7android7gltrace20GLTrace_glGetStringiEjj	0x2c577
	_ZN7android7gltrace27GLTrace_glCopyBufferSubDataEjjlll	0x2c673
	_ZN7android7gltrace27GLTrace_glGetUniformIndicesEjiPKPKcPj	0x2c7b9
	_ZN7android7gltrace29GLTrace_glGetActiveUniformsivEjiPKjjPi	0x2c8cb
	_ZN7android7gltrace30GLTrace_glGetUniformBlockIndexEjPKc	0x2c9ff
	_ZN7android7gltrace33GLTrace_glGetActiveUniformBlockivEjjjPi	0x2caff
	_ZN7android7gltrace35GLTrace_glGetActiveUniformBlockNameEjjiPiPc	0x2cc0f
	_ZN7android7gltrace29GLTrace_glUniformBlockBindingEjjj	0x2cd41
	_ZN7android7gltrace29GLTrace_glDrawArraysInstancedEjiii	0x2ce2b
	_ZN7android7gltrace31GLTrace_glDrawElementsInstancedEjijPKvi	0x2cf37
	_ZN7android7gltrace19GLTrace_glFenceSyncEjj	0x2d07f
	_ZN7android7gltrace16GLTrace_glIsSyncEP8__GLsync	0x2d17b
	_ZN7android7gltrace20GLTrace_glDeleteSyncEP8__GLsync	0x2d25d
	_ZN7android7gltrace23GLTrace_glGetInteger64vEjPx	0x2d309
	_ZN7android7gltrace19GLTrace_glGetSyncivEP8__GLsyncjiPiS3_	0x2d3d7
	_ZN7android7gltrace25GLTrace_glGetInteger64i_vEjjPx	0x2d50f
	_ZN7android7gltrace32GLTrace_glGetBufferParameteri64vEjjPx	0x2d5ff
	_ZN7android7gltrace21GLTrace_glGenSamplersEiPj	0x2d6ef
	_ZN7android7gltrace24GLTrace_glDeleteSamplersEiPKj	0x2d7c1
	_ZN7android7gltrace19GLTrace_glIsSamplerEj	0x2d893
	_ZN7android7gltrace21GLTrace_glBindSamplerEjj	0x2d971
	_ZN7android7gltrace27GLTrace_glSamplerParameteriEjji	0x2da41
	_ZN7android7gltrace28GLTrace_glSamplerParameterivEjjPKi	0x2db2d
	_ZN7android7gltrace27GLTrace_glSamplerParameterfEjjf	0x2dc1d
	_ZN7android7gltrace28GLTrace_glSamplerParameterfvEjjPKf	0x2dd0b
	_ZN7android7gltrace31GLTrace_glGetSamplerParameterivEjjPi	0x2ddfb
	_ZN7android7gltrace31GLTrace_glGetSamplerParameterfvEjjPf	0x2deeb
	_ZN7android7gltrace29GLTrace_glVertexAttribDivisorEjj	0x2dfdb
	_ZN7android7gltrace31GLTrace_glBindTransformFeedbackEjj	0x2e0ab
	_ZN7android7gltrace34GLTrace_glDeleteTransformFeedbacksEiPKj	0x2e177
	_ZN7android7gltrace31GLTrace_glGenTransformFeedbacksEiPj	0x2e249
	_ZN7android7gltrace29GLTrace_glIsTransformFeedbackEj	0x2e31b
	_ZN7android7gltrace32GLTrace_glPauseTransformFeedbackEv	0x2e3f9
	_ZN7android7gltrace33GLTrace_glResumeTransformFeedbackEv	0x2e47f
	_ZN7android7gltrace26GLTrace_glGetProgramBinaryEjiPiPjPv	0x2e505
	_ZN7android7gltrace23GLTrace_glProgramBinaryEjjPKvi	0x2e63b
	_ZN7android7gltrace27GLTrace_glProgramParameteriEjji	0x2e74b
	_ZN7android7gltrace31GLTrace_glInvalidateFramebufferEjiPKj	0x2e837
	_ZN7android7gltrace34GLTrace_glInvalidateSubFramebufferEjiPKjiiii	0x2e927
	_ZN7android7gltrace22GLTrace_glTexStorage2DEjijii	0x2ea97
	_ZN7android7gltrace22GLTrace_glTexStorage3DEjijiii	0x2ebdb
	_ZN7android7gltrace29GLTrace_glGetInternalformativEjjjiPi	0x2ed2b
	_ZN7android7gltrace36GLTrace_glEGLImageTargetTexture2DOESEjPv	0x2ee6d
	_ZN7android7gltrace46GLTrace_glEGLImageTargetRenderbufferStorageOESEjPv	0x2ef39
	_ZN7android7gltrace29GLTrace_glGetProgramBinaryOESEjiPiPjPv	0x2f005
	_ZN7android7gltrace26GLTrace_glProgramBinaryOESEjjPKvi	0x2f139
	_ZN7android7gltrace22GLTrace_glMapBufferOESEjj	0x2f249
	_ZN7android7gltrace24GLTrace_glUnmapBufferOESEj	0x2f347
	_ZN7android7gltrace30GLTrace_glGetBufferPointervOESEjjPPv	0x2f425
	_ZN7android7gltrace23GLTrace_glTexImage3DOESEjijiiiijjPKv	0x2f513
	_ZN7android7gltrace26GLTrace_glTexSubImage3DOESEjiiiiiiijjPKv	0x2f6e7
	_ZN7android7gltrace30GLTrace_glCopyTexSubImage3DOESEjiiiiiiii	0x2f8e1
	_ZN7android7gltrace33GLTrace_glCompressedTexImage3DOESEjijiiiiiPKv	0x2fa8b
	_ZN7android7gltrace36GLTrace_glCompressedTexSubImage3DOESEjiiiiiiijiPKv	0x2fc3f
	_ZN7android7gltrace33GLTrace_glFramebufferTexture3DOESEjjjjii	0x2fe33
	_ZN7android7gltrace28GLTrace_glBindVertexArrayOESEj	0x2ff8d
	_ZN7android7gltrace31GLTrace_glDeleteVertexArraysOESEiPKj	0x30033
	_ZN7android7gltrace28GLTrace_glGenVertexArraysOESEiPj	0x30103
	_ZN7android7gltrace26GLTrace_glIsVertexArrayOESEj	0x301d3
	_ZN7android7gltrace33GLTrace_glGetPerfMonitorGroupsAMDEPiiPj	0x302af
	_ZN7android7gltrace35GLTrace_glGetPerfMonitorCountersAMDEjPiS1_iPj	0x3039f
	_ZN7android7gltrace38GLTrace_glGetPerfMonitorGroupStringAMDEjiPiPc	0x304d3
	_ZN7android7gltrace40GLTrace_glGetPerfMonitorCounterStringAMDEjjiPiPc	0x305e3
	_ZN7android7gltrace38GLTrace_glGetPerfMonitorCounterInfoAMDEjjjPv	0x30713
	_ZN7android7gltrace28GLTrace_glGenPerfMonitorsAMDEiPj	0x30821
	_ZN7android7gltrace31GLTrace_glDeletePerfMonitorsAMDEiPj	0x308f1
	_ZN7android7gltrace38GLTrace_glSelectPerfMonitorCountersAMDEjhjiPj	0x309c1
	_ZN7android7gltrace29GLTrace_glBeginPerfMonitorAMDEj	0x30af9
	_ZN7android7gltrace27GLTrace_glEndPerfMonitorAMDEj	0x30b9f
	_ZN7android7gltrace38GLTrace_glGetPerfMonitorCounterDataAMDEjjiPjPi	0x30c47
	_ZN7android7gltrace30GLTrace_glBlitFramebufferANGLEEiiiiiiiijj	0x30d79
	_ZN7android7gltrace45GLTrace_glRenderbufferStorageMultisampleANGLEEjijii	0x30f45
	_ZN7android7gltrace45GLTrace_glRenderbufferStorageMultisampleAPPLEEjijii	0x31089
	_ZN7android7gltrace44GLTrace_glResolveMultisampleFramebufferAPPLEEv	0x311cd
	_ZN7android7gltrace24GLTrace_glLabelObjectEXTEjjiPKc	0x31253
	_ZN7android7gltrace27GLTrace_glGetObjectLabelEXTEjjiPiPc	0x31363
	_ZN7android7gltrace30GLTrace_glInsertEventMarkerEXTEiPKc	0x31497
	_ZN7android7gltrace28GLTrace_glPushGroupMarkerEXTEiPKc	0x31569
	_ZN7android7gltrace27GLTrace_glPopGroupMarkerEXTEv	0x3163b
	_ZN7android7gltrace31GLTrace_glDiscardFramebufferEXTEjiPKj	0x316c1
	_ZN7android7gltrace43GLTrace_glRenderbufferStorageMultisampleEXTEjijii	0x317af
	_ZN7android7gltrace44GLTrace_glFramebufferTexture2DMultisampleEXTEjjjjii	0x318f3
	_ZN7android7gltrace28GLTrace_glMultiDrawArraysEXTEjPiS1_i	0x31a4f
	_ZN7android7gltrace30GLTrace_glMultiDrawElementsEXTEjPKijPPKvi	0x31b61
	_ZN7android7gltrace23GLTrace_glGenQueriesEXTEiPj	0x31ca7
	_ZN7android7gltrace26GLTrace_glDeleteQueriesEXTEiPKj	0x31d79
	_ZN7android7gltrace20GLTrace_glIsQueryEXTEj	0x31e4b
	_ZN7android7gltrace23GLTrace_glBeginQueryEXTEjj	0x31f29
	_ZN7android7gltrace21GLTrace_glEndQueryEXTEj	0x31ff5
	_ZN7android7gltrace23GLTrace_glGetQueryivEXTEjjPi	0x3209f
	_ZN7android7gltrace30GLTrace_glGetQueryObjectuivEXTEjjPj	0x3218f
	_ZN7android7gltrace35GLTrace_glGetGraphicsResetStatusEXTEv	0x3227f
	_ZN7android7gltrace24GLTrace_glReadnPixelsEXTEiiiijjiPv	0x32333
	_ZN7android7gltrace26GLTrace_glGetnUniformfvEXTEjiiPf	0x324c9
	_ZN7android7gltrace26GLTrace_glGetnUniformivEXTEjiiPi	0x325d7
	_ZN7android7gltrace29GLTrace_glUseProgramStagesEXTEjjj	0x326e5
	_ZN7android7gltrace32GLTrace_glActiveShaderProgramEXTEjj	0x327cf
	_ZN7android7gltrace33GLTrace_glCreateShaderProgramvEXTEjiPPKc	0x3289f
	_ZN7android7gltrace32GLTrace_glBindProgramPipelineEXTEj	0x329bb
	_ZN7android7gltrace35GLTrace_glDeleteProgramPipelinesEXTEiPKj	0x32a63
	_ZN7android7gltrace32GLTrace_glGenProgramPipelinesEXTEiPj	0x32b35
	_ZN7android7gltrace30GLTrace_glIsProgramPipelineEXTEj	0x32c07
	_ZN7android7gltrace30GLTrace_glProgramParameteriEXTEjji	0x32ce5
	_ZN7android7gltrace33GLTrace_glGetProgramPipelineivEXTEjjPi	0x32dd1
	_ZN7android7gltrace29GLTrace_glProgramUniform1iEXTEjii	0x32ec1
	_ZN7android7gltrace29GLTrace_glProgramUniform2iEXTEjiii	0x32fab
	_ZN7android7gltrace29GLTrace_glProgramUniform3iEXTEjiiii	0x330b5
	_ZN7android7gltrace29GLTrace_glProgramUniform4iEXTEjiiiii	0x331df
	_ZN7android7gltrace29GLTrace_glProgramUniform1fEXTEjif	0x33329
	_ZN7android7gltrace29GLTrace_glProgramUniform2fEXTEjiff	0x33415
	_ZN7android7gltrace29GLTrace_glProgramUniform3fEXTEjifff	0x33521
	_ZN7android7gltrace29GLTrace_glProgramUniform4fEXTEjiffff	0x33667
	_ZN7android7gltrace30GLTrace_glProgramUniform1ivEXTEjiiPKi	0x337b3
	_ZN7android7gltrace30GLTrace_glProgramUniform2ivEXTEjiiPKi	0x338c1
	_ZN7android7gltrace30GLTrace_glProgramUniform3ivEXTEjiiPKi	0x339cf
	_ZN7android7gltrace30GLTrace_glProgramUniform4ivEXTEjiiPKi	0x33add
	_ZN7android7gltrace30GLTrace_glProgramUniform1fvEXTEjiiPKf	0x33beb
	_ZN7android7gltrace30GLTrace_glProgramUniform2fvEXTEjiiPKf	0x33cf9
	_ZN7android7gltrace30GLTrace_glProgramUniform3fvEXTEjiiPKf	0x33e07
	_ZN7android7gltrace30GLTrace_glProgramUniform4fvEXTEjiiPKf	0x33f15
	_ZN7android7gltrace36GLTrace_glProgramUniformMatrix2fvEXTEjiihPKf	0x34023
	_ZN7android7gltrace36GLTrace_glProgramUniformMatrix3fvEXTEjiihPKf	0x3415b
	_ZN7android7gltrace36GLTrace_glProgramUniformMatrix4fvEXTEjiihPKf	0x34293
	_ZN7android7gltrace36GLTrace_glValidateProgramPipelineEXTEj	0x343cb
	_ZN7android7gltrace38GLTrace_glGetProgramPipelineInfoLogEXTEjiPiPc	0x34475
	_ZN7android7gltrace25GLTrace_glTexStorage1DEXTEjiji	0x34587
	_ZN7android7gltrace25GLTrace_glTexStorage2DEXTEjijii	0x346a1
	_ZN7android7gltrace25GLTrace_glTexStorage3DEXTEjijiii	0x347e5
	_ZN7android7gltrace29GLTrace_glTextureStorage1DEXTEjjiji	0x34935
	_ZN7android7gltrace29GLTrace_glTextureStorage2DEXTEjjijii	0x34a79
	_ZN7android7gltrace29GLTrace_glTextureStorage3DEXTEjjijiii	0x34bc9
	_ZN7android7gltrace43GLTrace_glRenderbufferStorageMultisampleIMGEjijii	0x34d39
	_ZN7android7gltrace44GLTrace_glFramebufferTexture2DMultisampleIMGEjjjjii	0x34e7d
	_ZN7android7gltrace24GLTrace_glCoverageMaskNVEh	0x34fd7
	_ZN7android7gltrace29GLTrace_glCoverageOperationNVEj	0x35083
	_ZN7android7gltrace23GLTrace_glDrawBuffersNVEiPKj	0x3512b
	_ZN7android7gltrace24GLTrace_glDeleteFencesNVEiPKj	0x351fd
	_ZN7android7gltrace21GLTrace_glGenFencesNVEiPj	0x352cd
	_ZN7android7gltrace19GLTrace_glIsFenceNVEj	0x3539d
	_ZN7android7gltrace21GLTrace_glTestFenceNVEj	0x35479
	_ZN7android7gltrace22GLTrace_glGetFenceivNVEjjPi	0x35557
	_ZN7android7gltrace23GLTrace_glFinishFenceNVEj	0x35645
	_ZN7android7gltrace20GLTrace_glSetFenceNVEjj	0x356ed
	_ZN7android7gltrace22GLTrace_glReadBufferNVEj	0x357b9
	_ZN7android7gltrace23GLTrace_glAlphaFuncQCOMEjf	0x35863
	_ZN7android7gltrace31GLTrace_glGetDriverControlsQCOMEPiiPj	0x3592f
	_ZN7android7gltrace36GLTrace_glGetDriverControlStringQCOMEjiPiPc	0x35a1f
	_ZN7android7gltrace33GLTrace_glEnableDriverControlQCOMEj	0x35b2f
	_ZN7android7gltrace34GLTrace_glDisableDriverControlQCOMEj	0x35bd7
	_ZN7android7gltrace28GLTrace_glExtGetTexturesQCOMEPjiPi	0x35c7f
	_ZN7android7gltrace27GLTrace_glExtGetBuffersQCOMEPjiPi	0x35d6f
	_ZN7android7gltrace33GLTrace_glExtGetRenderbuffersQCOMEPjiPi	0x35e5f
	_ZN7android7gltrace32GLTrace_glExtGetFramebuffersQCOMEPjiPi	0x35f4f
	_ZN7android7gltrace39GLTrace_glExtGetTexLevelParameterivQCOMEjjijPi	0x3603f
	_ZN7android7gltrace40GLTrace_glExtTexObjectStateOverrideiQCOMEjji	0x3617f
	_ZN7android7gltrace31GLTrace_glExtGetTexSubImageQCOMEjiiiiiiijjPv	0x36269
	_ZN7android7gltrace34GLTrace_glExtGetBufferPointervQCOMEjPPv	0x36461
	_ZN7android7gltrace27GLTrace_glExtGetShadersQCOMEPjiPi	0x3652d
	_ZN7android7gltrace28GLTrace_glExtGetProgramsQCOMEPjiPi	0x3661d
	_ZN7android7gltrace32GLTrace_glExtIsProgramBinaryQCOMEj	0x3670d
	_ZN7android7gltrace39GLTrace_glExtGetProgramBinarySourceQCOMEjjPcPi	0x367e9
	_ZN7android7gltrace25GLTrace_glStartTilingQCOMEjjjjj	0x368fb
	_ZN7android7gltrace23GLTrace_glEndTilingQCOMEj	0x36a25
	_ZN7android7gltrace19GLTrace_glAlphaFuncEjf	0x36acd
	_ZN7android7gltrace20GLTrace_glClipPlanefEjPKf	0x36b9b
	_ZN7android7gltrace17GLTrace_glColor4fEffff	0x36c67
	_ZN7android7gltrace14GLTrace_glFogfEjf	0x36d6f
	_ZN7android7gltrace15GLTrace_glFogfvEjPKf	0x36e39
	_ZN7android7gltrace18GLTrace_glFrustumfEffffff	0x36f05
	_ZN7android7gltrace23GLTrace_glGetClipPlanefEjPf	0x3704d
	_ZN7android7gltrace20GLTrace_glGetLightfvEjjPf	0x37119
	_ZN7android7gltrace23GLTrace_glGetMaterialfvEjjPf	0x37207
	_ZN7android7gltrace21GLTrace_glGetTexEnvfvEjjPf	0x372f5
	_ZN7android7gltrace21GLTrace_glLightModelfEjf	0x373e3
	_ZN7android7gltrace22GLTrace_glLightModelfvEjPKf	0x374ad
	_ZN7android7gltrace16GLTrace_glLightfEjjf	0x37579
	_ZN7android7gltrace17GLTrace_glLightfvEjjPKf	0x37663
	_ZN7android7gltrace21GLTrace_glLoadMatrixfEPKf	0x37751
	_ZN7android7gltrace19GLTrace_glMaterialfEjjf	0x377fb
	_ZN7android7gltrace20GLTrace_glMaterialfvEjjPKf	0x378e5
	_ZN7android7gltrace21GLTrace_glMultMatrixfEPKf	0x379d3
	_ZN7android7gltrace25GLTrace_glMultiTexCoord4fEjffff	0x37a7d
	_ZN7android7gltrace18GLTrace_glNormal3fEfff	0x37bab
	_ZN7android7gltrace16GLTrace_glOrthofEffffff	0x37c95
	_ZN7android7gltrace25GLTrace_glPointParameterfEjf	0x37ddf
	_ZN7android7gltrace26GLTrace_glPointParameterfvEjPKf	0x37eab
	_ZN7android7gltrace19GLTrace_glPointSizeEf	0x37f79
	_ZN7android7gltrace17GLTrace_glRotatefEffff	0x38023
	_ZN7android7gltrace16GLTrace_glScalefEfff	0x3812d
	_ZN7android7gltrace17GLTrace_glTexEnvfEjjf	0x38217
	_ZN7android7gltrace18GLTrace_glTexEnvfvEjjPKf	0x38303
	_ZN7android7gltrace20GLTrace_glTranslatefEfff	0x383f3
	_ZN7android7gltrace20GLTrace_glAlphaFuncxEji	0x384dd
	_ZN7android7gltrace21GLTrace_glClearColorxEiiii	0x385a7
	_ZN7android7gltrace21GLTrace_glClearDepthxEi	0x386af
	_ZN7android7gltrace29GLTrace_glClientActiveTextureEj	0x38757
	_ZN7android7gltrace20GLTrace_glClipPlanexEjPKi	0x387ff
	_ZN7android7gltrace18GLTrace_glColor4ubEhhhh	0x388cb
	_ZN7android7gltrace17GLTrace_glColor4xEiiii	0x389dd
	_ZN7android7gltrace22GLTrace_glColorPointerEijiPKv	0x38ae5
	_ZN7android7gltrace21GLTrace_glDepthRangexEii	0x38bf3
	_ZN7android7gltrace28GLTrace_glDisableClientStateEj	0x38cc1
	_ZN7android7gltrace27GLTrace_glEnableClientStateEj	0x38d69
	_ZN7android7gltrace14GLTrace_glFogxEji	0x38e11
	_ZN7android7gltrace15GLTrace_glFogxvEjPKi	0x38edb
	_ZN7android7gltrace18GLTrace_glFrustumxEiiiiii	0x38fa7
	_ZN7android7gltrace23GLTrace_glGetClipPlanexEjPi	0x390ef
	_ZN7android7gltrace19GLTrace_glGetFixedvEjPi	0x391bb
	_ZN7android7gltrace20GLTrace_glGetLightxvEjjPi	0x39287
	_ZN7android7gltrace23GLTrace_glGetMaterialxvEjjPi	0x39375
	_ZN7android7gltrace21GLTrace_glGetPointervEjPPv	0x39463
	_ZN7android7gltrace21GLTrace_glGetTexEnvivEjjPi	0x3952f
	_ZN7android7gltrace21GLTrace_glGetTexEnvxvEjjPi	0x3961d
	_ZN7android7gltrace27GLTrace_glGetTexParameterxvEjjPi	0x3970b
	_ZN7android7gltrace21GLTrace_glLightModelxEji	0x397f9
	_ZN7android7gltrace22GLTrace_glLightModelxvEjPKi	0x398c3
	_ZN7android7gltrace16GLTrace_glLightxEjji	0x3998f
	_ZN7android7gltrace17GLTrace_glLightxvEjjPKi	0x39a79
	_ZN7android7gltrace20GLTrace_glLineWidthxEi	0x39b67
	_ZN7android7gltrace22GLTrace_glLoadIdentityEv	0x39c0f
	_ZN7android7gltrace21GLTrace_glLoadMatrixxEPKi	0x39c93
	_ZN7android7gltrace17GLTrace_glLogicOpEj	0x39d3d
	_ZN7android7gltrace19GLTrace_glMaterialxEjji	0x39de5
	_ZN7android7gltrace20GLTrace_glMaterialxvEjjPKi	0x39ecf
	_ZN7android7gltrace20GLTrace_glMatrixModeEj	0x39fbd
	_ZN7android7gltrace21GLTrace_glMultMatrixxEPKi	0x3a065
	_ZN7android7gltrace25GLTrace_glMultiTexCoord4xEjiiii	0x3a111
	_ZN7android7gltrace18GLTrace_glNormal3xEiii	0x3a23b
	_ZN7android7gltrace23GLTrace_glNormalPointerEjiPKv	0x3a325
	_ZN7android7gltrace16GLTrace_glOrthoxEiiiiii	0x3a415
	_ZN7android7gltrace25GLTrace_glPointParameterxEji	0x3a55f
	_ZN7android7gltrace26GLTrace_glPointParameterxvEjPKi	0x3a62b
	_ZN7android7gltrace20GLTrace_glPointSizexEi	0x3a6f9
	_ZN7android7gltrace24GLTrace_glPolygonOffsetxEii	0x3a7a3
	_ZN7android7gltrace19GLTrace_glPopMatrixEv	0x3a873
	_ZN7android7gltrace20GLTrace_glPushMatrixEv	0x3a8f9
	_ZN7android7gltrace17GLTrace_glRotatexEiiii	0x3a97f
	_ZN7android7gltrace25GLTrace_glSampleCoveragexEih	0x3aa89
	_ZN7android7gltrace16GLTrace_glScalexEiii	0x3ab5b
	_ZN7android7gltrace20GLTrace_glShadeModelEj	0x3ac45
	_ZN7android7gltrace25GLTrace_glTexCoordPointerEijiPKv	0x3acef
	_ZN7android7gltrace17GLTrace_glTexEnviEjji	0x3adff
	_ZN7android7gltrace17GLTrace_glTexEnvxEjji	0x3aeeb
	_ZN7android7gltrace18GLTrace_glTexEnvivEjjPKi	0x3afd7
	_ZN7android7gltrace18GLTrace_glTexEnvxvEjjPKi	0x3b0c7
	_ZN7android7gltrace23GLTrace_glTexParameterxEjji	0x3b1b7
	_ZN7android7gltrace24GLTrace_glTexParameterxvEjjPKi	0x3b2a3
	_ZN7android7gltrace20GLTrace_glTranslatexEiii	0x3b393
	_ZN7android7gltrace23GLTrace_glVertexPointerEijiPKv	0x3b47d
	_ZN7android7gltrace29GLTrace_glPointSizePointerOESEjiPKv	0x3b58d
	_ZN7android7gltrace34GLTrace_glBlendEquationSeparateOESEjj	0x3b67d
	_ZN7android7gltrace30GLTrace_glBlendFuncSeparateOESEjjjj	0x3b74b
	_ZN7android7gltrace26GLTrace_glBlendEquationOESEj	0x3b853
	_ZN7android7gltrace21GLTrace_glDrawTexsOESEsssss	0x3b8f9
	_ZN7android7gltrace21GLTrace_glDrawTexiOESEiiiii	0x3ba27
	_ZN7android7gltrace21GLTrace_glDrawTexxOESEiiiii	0x3bb4f
	_ZN7android7gltrace22GLTrace_glDrawTexsvOESEPKs	0x3bc77
	_ZN7android7gltrace22GLTrace_glDrawTexivOESEPKi	0x3bd21
	_ZN7android7gltrace22GLTrace_glDrawTexxvOESEPKi	0x3bdcb
	_ZN7android7gltrace21GLTrace_glDrawTexfOESEfffff	0x3be75
	_ZN7android7gltrace22GLTrace_glDrawTexfvOESEPKf	0x3bf9d
	_ZN7android7gltrace23GLTrace_glAlphaFuncxOESEji	0x3c047
	_ZN7android7gltrace24GLTrace_glClearColorxOESEiiii	0x3c115
	_ZN7android7gltrace24GLTrace_glClearDepthxOESEi	0x3c21d
	_ZN7android7gltrace23GLTrace_glClipPlanexOESEjPKi	0x3c2c5
	_ZN7android7gltrace20GLTrace_glColor4xOESEiiii	0x3c391
	_ZN7android7gltrace24GLTrace_glDepthRangexOESEii	0x3c499
	_ZN7android7gltrace17GLTrace_glFogxOESEji	0x3c567
	_ZN7android7gltrace18GLTrace_glFogxvOESEjPKi	0x3c631
	_ZN7android7gltrace21GLTrace_glFrustumxOESEiiiiii	0x3c6fd
	_ZN7android7gltrace26GLTrace_glGetClipPlanexOESEjPi	0x3c845
	_ZN7android7gltrace22GLTrace_glGetFixedvOESEjPi	0x3c911
	_ZN7android7gltrace23GLTrace_glGetLightxvOESEjjPi	0x3c9dd
	_ZN7android7gltrace26GLTrace_glGetMaterialxvOESEjjPi	0x3cacb
	_ZN7android7gltrace24GLTrace_glGetTexEnvxvOESEjjPi	0x3cbb9
	_ZN7android7gltrace30GLTrace_glGetTexParameterxvOESEjjPi	0x3cca7
	_ZN7android7gltrace24GLTrace_glLightModelxOESEji	0x3cd95
	_ZN7android7gltrace25GLTrace_glLightModelxvOESEjPKi	0x3ce5f
	_ZN7android7gltrace19GLTrace_glLightxOESEjji	0x3cf2b
	_ZN7android7gltrace20GLTrace_glLightxvOESEjjPKi	0x3d015
	_ZN7android7gltrace23GLTrace_glLineWidthxOESEi	0x3d103
	_ZN7android7gltrace24GLTrace_glLoadMatrixxOESEPKi	0x3d1ab
	_ZN7android7gltrace22GLTrace_glMaterialxOESEjji	0x3d255
	_ZN7android7gltrace23GLTrace_glMaterialxvOESEjjPKi	0x3d33f
	_ZN7android7gltrace24GLTrace_glMultMatrixxOESEPKi	0x3d42d
	_ZN7android7gltrace28GLTrace_glMultiTexCoord4xOESEjiiii	0x3d4d9
	_ZN7android7gltrace21GLTrace_glNormal3xOESEiii	0x3d603
	_ZN7android7gltrace19GLTrace_glOrthoxOESEiiiiii	0x3d6ed
	_ZN7android7gltrace28GLTrace_glPointParameterxOESEji	0x3d837
	_ZN7android7gltrace29GLTrace_glPointParameterxvOESEjPKi	0x3d903
	_ZN7android7gltrace23GLTrace_glPointSizexOESEi	0x3d9d1
	_ZN7android7gltrace27GLTrace_glPolygonOffsetxOESEii	0x3da7b
	_ZN7android7gltrace20GLTrace_glRotatexOESEiiii	0x3db4b
	_ZN7android7gltrace28GLTrace_glSampleCoveragexOESEih	0x3dc55
	_ZN7android7gltrace19GLTrace_glScalexOESEiii	0x3dd27
	_ZN7android7gltrace20GLTrace_glTexEnvxOESEjji	0x3de11
	_ZN7android7gltrace21GLTrace_glTexEnvxvOESEjjPKi	0x3defd
	_ZN7android7gltrace26GLTrace_glTexParameterxOESEjji	0x3dfed
	_ZN7android7gltrace27GLTrace_glTexParameterxvOESEjjPKi	0x3e0d9
	_ZN7android7gltrace23GLTrace_glTranslatexOESEiii	0x3e1c9
	_ZN7android7gltrace27GLTrace_glIsRenderbufferOESEj	0x3e2b3
	_ZN7android7gltrace29GLTrace_glBindRenderbufferOESEjj	0x3e38f
	_ZN7android7gltrace32GLTrace_glDeleteRenderbuffersOESEiPKj	0x3e459
	_ZN7android7gltrace29GLTrace_glGenRenderbuffersOESEiPj	0x3e529
	_ZN7android7gltrace32GLTrace_glRenderbufferStorageOESEjjii	0x3e5f9
	_ZN7android7gltrace39GLTrace_glGetRenderbufferParameterivOESEjjPi	0x3e705
	_ZN7android7gltrace26GLTrace_glIsFramebufferOESEj	0x3e7f3
	_ZN7android7gltrace28GLTrace_glBindFramebufferOESEjj	0x3e8cf
	_ZN7android7gltrace31GLTrace_glDeleteFramebuffersOESEiPKj	0x3e999
	_ZN7android7gltrace28GLTrace_glGenFramebuffersOESEiPj	0x3ea69
	_ZN7android7gltrace35GLTrace_glCheckFramebufferStatusOESEj	0x3eb39
	_ZN7android7gltrace36GLTrace_glFramebufferRenderbufferOESEjjjj	0x3ec0d
	_ZN7android7gltrace33GLTrace_glFramebufferTexture2DOESEjjjji	0x3ed17
	_ZN7android7gltrace48GLTrace_glGetFramebufferAttachmentParameterivOESEjjjPi	0x3ee5b
	_ZN7android7gltrace27GLTrace_glGenerateMipmapOESEj	0x3ef69
	_ZN7android7gltrace33GLTrace_glCurrentPaletteMatrixOESEj	0x3f011
	_ZN7android7gltrace43GLTrace_glLoadPaletteFromModelViewMatrixOESEv	0x3f0b9
	_ZN7android7gltrace31GLTrace_glMatrixIndexPointerOESEijiPKv	0x3f13d
	_ZN7android7gltrace26GLTrace_glWeightPointerOESEijiPKv	0x3f24b
	_ZN7android7gltrace25GLTrace_glQueryMatrixxOESEPiS1_	0x3f35b
	_ZN7android7gltrace24GLTrace_glDepthRangefOESEff	0x3f45f
	_ZN7android7gltrace21GLTrace_glFrustumfOESEffffff	0x3f52d
	_ZN7android7gltrace19GLTrace_glOrthofOESEffffff	0x3f675
	_ZN7android7gltrace23GLTrace_glClipPlanefOESEjPKf	0x3f7bf
	_ZN7android7gltrace26GLTrace_glGetClipPlanefOESEjPf	0x3f88b
	_ZN7android7gltrace24GLTrace_glClearDepthfOESEf	0x3f957
	_ZN7android7gltrace20GLTrace_glTexGenfOESEjjf	0x3f9ff
	_ZN7android7gltrace21GLTrace_glTexGenfvOESEjjPKf	0x3faeb
	_ZN7android7gltrace20GLTrace_glTexGeniOESEjji	0x3fbdb
	_ZN7android7gltrace21GLTrace_glTexGenivOESEjjPKi	0x3fcc7
	_ZN7android7gltrace20GLTrace_glTexGenxOESEjji	0x3fdb7
	_ZN7android7gltrace21GLTrace_glTexGenxvOESEjjPKi	0x3fea3
	_ZN7android7gltrace24GLTrace_glGetTexGenfvOESEjjPf	0x3ff93
	_ZN7android7gltrace24GLTrace_glGetTexGenivOESEjjPi	0x40081
	_ZN7android7gltrace24GLTrace_glGetTexGenxvOESEjjPi	0x4016f
	_ZN7android7gltrace23GLTrace_glClipPlanefIMGEjPKf	0x4025d
	_ZN7android7gltrace23GLTrace_glClipPlanexIMGEjPKi	0x40329
	_ZN7android7gltrace18GLTrace_glWaitSyncEP8__GLsyncjy	0x40449
	_ZN7android7gltrace24GLTrace_glClientWaitSyncEP8__GLsyncjy	0x40551
	_ZNK7android12SortedVectorINS_16key_value_pair_tIjPNS_7gltrace18ElementArrayBufferEEEE12do_constructEPvj	0x40679
	_ZNK7android12SortedVectorINS_16key_value_pair_tIjPNS_7gltrace18ElementArrayBufferEEEE10do_destroyEPvj	0x40679
	_ZNK7android12SortedVectorINS_16key_value_pair_tIjPNS_7gltrace18ElementArrayBufferEEEE8do_splatEPvPKvj	0x4067b
	_ZNK7android12SortedVectorINS_16key_value_pair_tIjPNS_7gltrace18ElementArrayBufferEEEE15do_move_forwardEPvPKvj	0x40693
	_ZNK7android12SortedVectorINS_16key_value_pair_tIjPNS_7gltrace18ElementArrayBufferEEEE16do_move_backwardEPvPKvj	0x40693
	_ZNK7android12SortedVectorINS_16key_value_pair_tIjPNS_7gltrace18ElementArrayBufferEEEE7do_copyEPvPKvj	0x4069d
	_ZN7android7gltrace12createTLSKeyEv	0x406e5
	_ZN7android7gltrace14releaseContextEv	0x40775
	_ZNK7android12SortedVectorINS_16key_value_pair_tIjPNS_7gltrace18ElementArrayBufferEEEE10do_compareEPKvS8_	0x4073d
	_ZN7android7gltrace17setGLTraceContextEPNS0_14GLTraceContextE	0x40765
	_ZN7android7gltrace31setupTraceContextThreadSpecificEPNS0_14GLTraceContextE	0x40799
	_ZN7android7gltrace12GLTraceState9getStreamEv	0x407bd
	_ZN7android7gltrace12GLTraceState12safeSetValueEPbbP16pthread_rwlock_t	0x407c1
	_ZN7android7gltrace12GLTraceState12safeGetValueEPbP16pthread_rwlock_t	0x407db
	_ZN7android7gltrace12GLTraceState21setCollectFbOnEglSwapEb	0x407f3
	_ZN7android7gltrace12GLTraceState20setCollectFbOnGlDrawEb	0x40811
	_ZN7android7gltrace12GLTraceState33setCollectTextureDataOnGlTexImageEb	0x4082f
	_ZN7android7gltrace12GLTraceState24shouldCollectFbOnEglSwapEv	0x4084d
	_ZN7android7gltrace12GLTraceState23shouldCollectFbOnGlDrawEv	0x40869
	_ZN7android7gltrace12GLTraceState36shouldCollectTextureDataOnGlTexImageEv	0x40885
	_ZN7android7gltrace14GLTraceContext5getIdEv	0x408a1
	_ZN7android7gltrace14GLTraceContext10getVersionEv	0x407bd
	_ZN7android7gltrace14GLTraceContext19getGlobalTraceStateEv	0x408a5
	_ZN7android7gltrace14GLTraceContext14resizeFBMemoryEj	0x408a9
	_ZN7android7gltrace14GLTraceContext15getCompressedFBEPPvPjS4_S4_NS0_9FBBindingE	0x408d7
	lzf_compress	0x47711
	_ZN7android7gltrace20BufferedOutputStream4sendEPNS0_9GLMessageE	0x443af
	_ZN7android7gltrace20BufferedOutputStream5flushEv	0x4435d
	_ZN7android7gltrace14GLTraceContext9getBufferEjPPvPl	0x409c9
	_ZN7android7gltrace18ElementArrayBufferC2EPvl	0x409e9
	_ZN7android7gltrace18ElementArrayBufferC1EPvl	0x409e9
	_ZN7android7gltrace18ElementArrayBufferD2Ev	0x40a09
	_ZN7android7gltrace18ElementArrayBufferD1Ev	0x40a09
	_ZN7android7gltrace14GLTraceContext12deleteBufferEj	0x40a21
	_ZN7android7gltrace14GLTraceContext10bindBufferEjPvl	0x40a4f
	_ZN7android7gltrace18ElementArrayBuffer15updateSubBufferElPKvl	0x40a95
	_ZN7android7gltrace14GLTraceContext19updateBufferSubDataEjlPvl	0x40ab1
	_ZN7android7gltrace18ElementArrayBuffer9getBufferEv	0x408a1
	_ZN7android7gltrace18ElementArrayBuffer7getSizeEv	0x407bd
	_ZN7android7gltrace12GLTraceStateC2EPNS0_9TCPStreamE	0x40b03
	_ZN7android7gltrace12GLTraceStateC1EPNS0_9TCPStreamE	0x40b03
	_ZNSt4priv8_Rb_treeIPvSt4lessIS1_ESt4pairIKS1_PN7android7gltrace14GLTraceContextEENS_10_Select1stISA_EENS_11_MapTraitsTISA_EESaISA_EE8_M_eraseEPNS_18_Rb_tree_node_baseE	0x40b33
	_ZN7android7gltrace12GLTraceStateD2Ev	0x40b6f
	_ZN7android7gltrace9TCPStream11closeStreamEv	0x442c5
	_ZN7android7gltrace12GLTraceStateD1Ev	0x40b6f
	_ZN7android7gltrace14GLTraceContextC2EiiPNS0_12GLTraceStateEPNS0_20BufferedOutputStreamE	0x40bb1
	_ZN7android7gltrace14GLTraceContextC1EiiPNS0_12GLTraceStateEPNS0_20BufferedOutputStreamE	0x40bb1
	_ZNSt4priv10_Rb_globalIbE12_M_decrementEPNS_18_Rb_tree_node_baseE	0x40bff
	_ZNSt4priv10_Rb_globalIbE12_Rotate_leftEPNS_18_Rb_tree_node_baseERS3_	0x40c31
	_ZNSt4priv10_Rb_globalIbE13_Rotate_rightEPNS_18_Rb_tree_node_baseERS3_	0x40c5d
	_ZNSt4priv10_Rb_globalIbE10_RebalanceEPNS_18_Rb_tree_node_baseERS3_	0x40c89
	_ZNSt4priv8_Rb_treeIPvSt4lessIS1_ESt4pairIKS1_PN7android7gltrace14GLTraceContextEENS_10_Select1stISA_EENS_11_MapTraitsTISA_EESaISA_EE9_M_insertEPNS_18_Rb_tree_node_baseERKSA_SI_SI_	0x40d2b
	_ZNSt4priv8_Rb_treeIPvSt4lessIS1_ESt4pairIKS1_PN7android7gltrace14GLTraceContextEENS_10_Select1stISA_EENS_11_MapTraitsTISA_EESaISA_EE13insert_uniqueERKSA_	0x40d95
	_ZNSt4priv8_Rb_treeIPvSt4lessIS1_ESt4pairIKS1_PN7android7gltrace14GLTraceContextEENS_10_Select1stISA_EENS_11_MapTraitsTISA_EESaISA_EE13insert_uniqueENS_17_Rb_tree_iteratorISA_SE_EERKSA_	0x40e07
	_ZN7android7gltrace12GLTraceState15getTraceContextEPv	0x40f93
	_ZN7android7gltrace12GLTraceState18createTraceContextEiPv	0x40fa7
	_ZN7android7gltrace20BufferedOutputStreamC1EPNS0_9TCPStreamEj	0x443d1
	_ZN7android7gltrace22GLTrace_eglSwapBuffersEPvS1_	0x41009
	_ZN7android7gltrace19fixup_addFBContentsEPNS0_14GLTraceContextEPNS0_9GLMessageENS0_9FBBindingE	0x41c05
	_ZN7android7gltrace24GLTrace_eglCreateContextEii	0x410fb
	_ZN7android7gltrace22GLTrace_eglMakeCurrentEi	0x41195
	_ZN7android7gltrace9TCPStream7receiveEPvj	0x4430d
	_ZN7android13GLTrace_startEv	0x412cd
	_ZN7android7gltrace22acceptClientConnectionEPc	0x4413d
	_ZN7android7gltrace9TCPStreamC1Ei	0x442a5
	_ZN7android12GLTrace_stopEv	0x413a5
	_ZN7android24GLTrace_eglCreateContextEiPv	0x413f9
	_ZN7android22GLTrace_eglMakeCurrentEjPNS_10gl_hooks_tEPv	0x41445
	_ZN7android24GLTrace_eglReleaseThreadEv	0x414a9
	_ZN7android22GLTrace_eglSwapBuffersEPvS0_	0x414ad
	_ZN7android18GLTrace_getGLHooksEv	0x414b1
	_ZN7android7gltrace10getGLHooksEv	0x42609
	_ZN7android7gltrace16getBytesPerTexelEjj	0x414d9
	_ZN7android7gltrace21fixup_GenericIntArrayEiiPNS0_9GLMessageEPv	0x4156d
	_ZN7android7gltrace22fixup_GenericEnumArrayEiiPNS0_9GLMessageEPv	0x415a7
	_ZN7android7gltrace29fixup_glUniformGenericIntegerEiiPNS0_9GLMessageEPPv	0x415c9
	_ZN7android7gltrace18fixup_glGenGenericEPNS0_9GLMessageEPPv	0x415cf
	_ZN7android7gltrace18GLMessage_DataTypeC1ERKS1_	0x440cd
	_ZN7android7gltrace18GLMessage_DataTypeD1Ev	0x43b45
	_ZN7android7gltrace21fixup_glDeleteGenericEPNS0_9GLMessageEPPv	0x415cf
	_ZN7android7gltrace19fixup_glLinkProgramEPNS0_9GLMessageE	0x415f9
	_ZN7android7gltrace25getShaderVariableLocationEPNS0_14GLTraceContextEPNS0_9GLMessageEPc	0x416a1
	_ZN7android7gltrace12glGetIntegerEPNS0_14GLTraceContextEj	0x416d1
	_ZN7android7gltrace17glGetVertexAttribEPNS0_14GLTraceContextEjj	0x416e3
	_ZN7android7gltrace19isUsingArrayBuffersEPNS0_14GLTraceContextE	0x416f7
	_ZN7android7gltrace26isUsingElementArrayBuffersEPNS0_14GLTraceContextE	0x41709
	_ZN7android7gltrace16vertexAttribSizeEji	0x4171d
	_ZN7android7gltrace20findMinAndMaxIndicesEPvijPjS2_	0x41739
	_ZN7android7gltrace17fixup_glGetFloatvEPNS0_9GLMessageEPPv	0x417cb
	_ZN7android7gltrace23fixup_GenericFloatArrayEiiPNS0_9GLMessageEPv	0x417fd
	_ZN7android7gltrace22fixup_glUniformGenericEiiPNS0_9GLMessageEPv	0x41841
	_ZN7android7gltrace28fixup_glUniformMatrixGenericEiPNS0_9GLMessageEPPv	0x41845
	_ZN7android7gltrace19fixup_glGetBooleanvEPNS0_9GLMessageEPPv	0x418bd
	_ZN6google8protobuf8internal20RepeatedPtrFieldBase5ClearINS0_16RepeatedPtrFieldISsE11TypeHandlerEEEvv	0x41919
	_ZN6google8protobuf8internal21StringTypeHandlerBase3NewEv	0x4577b
	_ZNSs9_M_appendEPKcS0_	0x4197d
	_ZNSt4priv12_String_baseIcSaIcEE17_M_allocate_blockEj	0x41a65
	_ZNSs9_M_assignEPKcS0_	0x41ac9
	_ZN7android7gltrace20fixup_glShaderSourceEPNS0_9GLMessageEPPv	0x41b19
	_ZN7android7gltrace21GLMessage_FrameBufferC1Ev	0x42ee9
	_ZN7android7gltrace17fixup_glGetStringEPNS0_9GLMessageEPPv	0x41c7d
	_ZN7android7gltrace16fixup_CStringPtrEiPNS0_9GLMessageEPv	0x41cc1
	_ZN7android7gltrace32fixup_glGetActiveAttribOrUniformEPNS0_14GLTraceContextEPNS0_9GLMessageEPPv	0x41ce1
	_ZN7android7gltrace15addGlBufferDataEPNS0_9GLMessageEiPvl	0x41d5f
	_ZN7android7gltrace21fixup_glBufferSubDataEPNS0_14GLTraceContextEPNS0_9GLMessageEPPv	0x41d89
	_ZN7android7gltrace18fixup_glBufferDataEPNS0_14GLTraceContextEPNS0_9GLMessageEPPv	0x41dd9
	_ZN7android7gltrace16fixup_glTexImageEiiPNS0_9GLMessageEPv	0x41e23
	_ZN7android7gltrace21fixup_glTexSubImage2DEPNS0_9GLMessageEPPv	0x41ee1
	_ZN7android7gltrace18fixup_glTexImage2DEPNS0_9GLMessageEPPv	0x41eef
	_ZN7android7gltrace31trace_glVertexAttribPointerDataEPNS0_14GLTraceContextEjijhiPKvjjx	0x41efd
	_ZN7android7gltrace29trace_VertexAttribPointerDataEPNS0_14GLTraceContextEjjx	0x420dd
	_ZN7android7gltrace46trace_VertexAttribPointerDataForGlDrawElementsEPNS0_14GLTraceContextEPNS0_9GLMessageEPv	0x42191
	_ZN7android7gltrace20fixup_glDrawElementsEPNS0_14GLTraceContextEPNS0_9GLMessageEPPv	0x42213
	_ZN7android7gltrace44trace_VertexAttribPointerDataForGlDrawArraysEPNS0_14GLTraceContextEPNS0_9GLMessageE	0x4229d
	_ZN7android7gltrace18fixup_glDrawArraysEPNS0_14GLTraceContextEPNS0_9GLMessageE	0x422d1
	_ZN7android7gltrace37protobuf_ShutdownFile_gltrace_2eprotoEv	0x42615
	_ZNK7android7gltrace18GLMessage_DataType13IsInitializedEv	0x42651
	_ZNK7android7gltrace21GLMessage_FrameBuffer13IsInitializedEv	0x42663
	_ZNK7android7gltrace21GLMessage_FrameBuffer24SerializeWithCachedSizesEPN6google8protobuf2io17CodedOutputStreamE	0x42683
	_ZN6google8protobuf8internal14WireFormatLite10WriteInt32EiiPNS0_2io17CodedOutputStreamE	0x45953
	_ZN6google8protobuf8internal14WireFormatLite10WriteBytesEiRKSsPNS0_2io17CodedOutputStreamE	0x45a59
	_ZNK7android7gltrace18GLMessage_DataType24SerializeWithCachedSizesEPN6google8protobuf2io17CodedOutputStreamE	0x426c5
	_ZN6google8protobuf8internal14WireFormatLite9WriteEnumEiiPNS0_2io17CodedOutputStreamE	0x45953
	_ZN6google8protobuf8internal14WireFormatLite9WriteBoolEibPNS0_2io17CodedOutputStreamE	0x4598d
	_ZN6google8protobuf8internal14WireFormatLite10WriteFloatEifPNS0_2io17CodedOutputStreamE	0x459f5
	_ZN6google8protobuf8internal14WireFormatLite10WriteInt64EixPNS0_2io17CodedOutputStreamE	0x4596d
	_ZN6google8protobuf2io16CodedInputStream20ReadVarint32FallbackEPj	0x46227
	_ZN6google8protobuf2io17CodedOutputStream20VarintSize32FallbackEj	0x46a4d
	_ZNK7android7gltrace9GLMessage13IsInitializedEv	0x42819
	_ZNK7android7gltrace9GLMessage24SerializeWithCachedSizesEPN6google8protobuf2io17CodedOutputStreamE	0x42877
	_ZN6google8protobuf8internal14WireFormatLite12WriteMessageEiRKNS0_11MessageLiteEPNS0_2io17CodedOutputStreamE	0x45ab1
	_ZN6google8protobuf2io16CodedInputStream20ReadVarint64FallbackEPy	0x460ed
	_ZNK7android7gltrace21GLMessage_FrameBuffer8ByteSizeEv	0x4299b
	_ZNK7android7gltrace18GLMessage_DataType8ByteSizeEv	0x429e7
	_ZN6google8protobuf2io17CodedOutputStream12VarintSize64Ey	0x46a75
	_ZNK7android7gltrace9GLMessage8ByteSizeEv	0x42aa1
	_ZN7android7gltrace26GLMessage_Function_IsValidEi	0x42b5f
	_ZN7android7gltrace31GLMessage_DataType_Type_IsValidEi	0x42b93
	_ZN7android7gltrace18GLMessage_DataType21InitAsDefaultInstanceEv	0x40679
	_ZN7android7gltrace18GLMessage_DataType10SharedCtorEv	0x42b9f
	_ZN7android7gltrace18GLMessage_DataType10SharedDtorEv	0x40679
	_ZNK7android7gltrace18GLMessage_DataType13SetCachedSizeEi	0x42bb1
	_ZN7android7gltrace18GLMessage_DataType4SwapEPS1_	0x42bb5
	_ZN6google8protobuf8internal20RepeatedPtrFieldBase4SwapEPS2_	0x456e1
	_ZN7android7gltrace21GLMessage_FrameBuffer21InitAsDefaultInstanceEv	0x40679
	_ZN7android7gltrace21GLMessage_FrameBuffer10SharedCtorEv	0x42d9b
	_ZN7android7gltrace21GLMessage_FrameBuffer10SharedDtorEv	0x40679
	_ZNK7android7gltrace21GLMessage_FrameBuffer13SetCachedSizeEi	0x42bb1
	_ZN7android7gltrace21GLMessage_FrameBuffer4SwapEPS1_	0x42dab
	_ZN7android7gltrace9GLMessage10SharedCtorEv	0x42de3
	_ZN7android7gltrace9GLMessageC2Ev	0x42e09
	_ZNK7android7gltrace9GLMessage3NewEv	0x42e31
	_ZN7android7gltrace9GLMessage10SharedDtorEv	0x42e45
	_ZNK7android7gltrace9GLMessage13SetCachedSizeEi	0x42bb1
	_ZN7android7gltrace9GLMessage4SwapEPS1_	0x42e6d
	_ZN7android7gltrace21GLMessage_FrameBufferC2Ev	0x42ee9
	_ZNK7android7gltrace21GLMessage_FrameBuffer3NewEv	0x42f2b
	_ZN7android7gltrace18GLMessage_DataTypeC2Ev	0x42f3d
	_ZNK7android7gltrace18GLMessage_DataType3NewEv	0x42fa1
	_ZN7android7gltrace32protobuf_AddDesc_gltrace_2eprotoEv	0x42fb5
	_ZN6google8protobuf8internal13VerifyVersionEiiPKc	0x44bf9
	_ZN7android7gltrace9GLMessage21InitAsDefaultInstanceEv	0x43099
	_ZN6google8protobuf8internal10OnShutdownEPFvvE	0x44a91
	_ZN7android7gltrace9GLMessage16default_instanceEv	0x43039
	_ZN7android7gltrace21GLMessage_FrameBuffer16default_instanceEv	0x43059
	_ZN7android7gltrace18GLMessage_DataType16default_instanceEv	0x43079
	_ZNSsC2EPKcRKSaIcE	0x430ab
	_ZNSsC1EPKcRKSaIcE	0x430ab
	_ZNK7android7gltrace9GLMessage11GetTypeNameEv	0x430c9
	_ZNK7android7gltrace21GLMessage_FrameBuffer11GetTypeNameEv	0x430e1
	_ZNK7android7gltrace18GLMessage_DataType11GetTypeNameEv	0x430f9
	_ZN6google8protobuf13RepeatedFieldIiE7ReserveEi	0x43111
	_ZN6google8protobuf13RepeatedFieldIfE7ReserveEi	0x43111
	_ZN7android7gltrace21GLMessage_FrameBuffer5ClearEv	0x4314b
	_ZN7android7gltrace18GLMessage_DataType5ClearEv	0x43173
	_ZN7android7gltrace9GLMessage5ClearEv	0x431b3
	_ZN7android7gltrace21GLMessage_FrameBuffer27MergePartialFromCodedStreamEPN6google8protobuf2io16CodedInputStreamE	0x4321f
	_ZN6google8protobuf8internal14WireFormatLite9ReadBytesEPNS0_2io16CodedInputStreamEPSs	0x45cad
	_ZN6google8protobuf8internal14WireFormatLite9SkipFieldEPNS0_2io16CodedInputStreamEj	0x45823
	_ZN6google8protobuf2io16CodedInputStream15ReadTagFallbackEv	0x4633d
	_ZN6google8protobuf13RepeatedFieldIbE7ReserveEi	0x4330b
	_ZN6google8protobuf13RepeatedFieldIxE7ReserveEi	0x43343
	_ZN7android7gltrace18GLMessage_DataType27MergePartialFromCodedStreamEPN6google8protobuf2io16CodedInputStreamE	0x4337d
	_ZN6google8protobuf2io16CodedInputStream9PushLimitEi	0x45dd7
	_ZN6google8protobuf2io16CodedInputStream15BytesUntilLimitEv	0x45e2d
	_ZN6google8protobuf2io16CodedInputStream8PopLimitEi	0x45e1d
	_ZN6google8protobuf2io16CodedInputStream26ReadLittleEndian32FallbackEPj	0x464d9
	_ZN6google8protobuf2io16CodedInputStream4SkipEi	0x45ee5
	_ZN7android7gltrace9GLMessage27MergePartialFromCodedStreamEPN6google8protobuf2io16CodedInputStreamE	0x438a7
	_ZN6google8protobuf8internal20RepeatedPtrFieldBase7DestroyINS0_16RepeatedPtrFieldISsE11TypeHandlerEEEvv	0x43ae3
	_ZN6google8protobuf8internal21StringTypeHandlerBase6DeleteEPSs	0x45765
	_ZN7android7gltrace21GLMessage_FrameBufferD2Ev	0x43b11
	_ZN6google8protobuf11MessageLiteD2Ev	0x44d5d
	_ZN7android7gltrace21GLMessage_FrameBufferD1Ev	0x43b11
	_ZN7android7gltrace21GLMessage_FrameBufferD0Ev	0x43b31
	_ZN7android7gltrace18GLMessage_DataTypeD2Ev	0x43b45
	_ZN7android7gltrace18GLMessage_DataTypeD0Ev	0x43bb5
	_ZN6google8protobuf8internal20RepeatedPtrFieldBase7DestroyINS0_16RepeatedPtrFieldIN7android7gltrace18GLMessage_DataTypeEE11TypeHandlerEEEvv	0x43bc7
	_ZN7android7gltrace9GLMessageD2Ev	0x43bf9
	_ZN7android7gltrace9GLMessageD0Ev	0x43c21
	_ZN7android7gltrace21GLMessage_FrameBuffer9MergeFromERKS1_	0x43cbd
	_ZN6google8protobuf8internal10LogMessageC1ENS0_8LogLevelEPKci	0x44729
	_ZN6google8protobuf8internal10LogMessagelsEPKc	0x44945
	_ZN6google8protobuf8internal11LogFinisheraSERNS1_10LogMessageE	0x44a19
	_ZN6google8protobuf8internal10LogMessageD1Ev	0x44605
	_ZN7android7gltrace21GLMessage_FrameBuffer8CopyFromERKS1_	0x43d55
	_ZN7android7gltrace21GLMessage_FrameBuffer21CheckTypeAndMergeFromERKN6google8protobuf11MessageLiteE	0x43d73
	_ZN7android7gltrace21GLMessage_FrameBufferC2ERKS1_	0x43d79
	_ZN7android7gltrace21GLMessage_FrameBufferC1ERKS1_	0x43d79
	_ZN7android7gltrace18GLMessage_DataType9MergeFromERKS1_	0x43da5
	_ZN7android7gltrace9GLMessage9MergeFromERKS1_	0x43f15
	_ZN7android7gltrace9GLMessage8CopyFromERKS1_	0x44051
	_ZN7android7gltrace9GLMessage21CheckTypeAndMergeFromERKN6google8protobuf11MessageLiteE	0x4406f
	_ZN7android7gltrace9GLMessageC2ERKS1_	0x44075
	_ZN7android7gltrace9GLMessageC1ERKS1_	0x44075
	_ZN7android7gltrace18GLMessage_DataType8CopyFromERKS1_	0x440a9
	_ZN7android7gltrace18GLMessage_DataType21CheckTypeAndMergeFromERKN6google8protobuf11MessageLiteE	0x440c7
	_ZN7android7gltrace18GLMessage_DataTypeC2ERKS1_	0x440cd
	_ZNK6google8protobuf11MessageLite25InitializationErrorStringEv	0x45179
	_ZNK6google8protobuf11MessageLite31SerializeWithCachedSizesToArrayEPh	0x44e5d
	_ZN7android7gltrace9TCPStreamC2Ei	0x442a5
	_ZN7android7gltrace9TCPStreamD2Ev	0x442b7
	_ZN7android7gltrace9TCPStreamD1Ev	0x442b7
	_ZN7android7gltrace9TCPStream4sendEPvj	0x442d9
	_ZN7android7gltrace20BufferedOutputStream14enqueueMessageEPNS0_9GLMessageE	0x44387
	_ZNK6google8protobuf11MessageLite14AppendToStringEPSs	0x4534d
	_ZN7android7gltrace20BufferedOutputStreamC2EPNS0_9TCPStreamEj	0x443d1
	_ZN6google8protobuf8internal14NullLogHandlerENS0_8LogLevelEPKciRKSs	0x44499
	_ZN6google8protobuf7ClosureD2Ev	0x4449d
	_ZN6google8protobuf7ClosureD1Ev	0x4449d
	_ZN6google8protobuf8internal16FunctionClosure0D2Ev	0x4449d
	_ZN6google8protobuf8internal16FunctionClosure0D1Ev	0x4449d
	_ZN6google8protobuf7ClosureD0Ev	0x444ad
	_ZN6google8protobuf8internal16FunctionClosure0D0Ev	0x444ad
	_ZN6google8protobuf8internal17DefaultLogHandlerENS0_8LogLevelEPKciRKSs	0x444c5
	_ZN6google8protobuf8internal24InitLogSilencerCountOnceEv	0x44541
	_ZN6google8protobuf8internal20InitLogSilencerCountEv	0x44b4d
	_ZN6google8protobuf13SetLogHandlerEPFvNS0_8LogLevelEPKciRKSsE	0x44555
	_ZN6google8protobuf9DoNothingEv	0x40679
	_ZN6google8protobuf8internal5MutexC2Ev	0x44579
	_ZN6google8protobuf8internal5MutexC1Ev	0x44579
	_ZN6google8protobuf8internal21InitShutdownFunctionsEv	0x44591
	_ZN6google8protobuf8internal5MutexD2Ev	0x445c9
	_ZN6google8protobuf8internal5MutexD1Ev	0x445c9
	_ZN6google8protobuf8internal22DeleteLogSilencerCountEv	0x445dd
	_ZN6google8protobuf8internal5Mutex10AssertHeldEv	0x40679
	_ZN6google8protobuf8internal10LogMessageD2Ev	0x44605
	_ZN6google8protobuf23ShutdownProtobufLibraryEv	0x4462d
	_ZN6google8protobuf8internal13VersionStringEi	0x446a1
	_ZN6google8protobuf8internal10LogMessageC2ENS0_8LogLevelEPKci	0x44729
	_ZN6google8protobuf8internal10LogMessagelsEd	0x44765
	_ZN6google8protobuf8internal10LogMessagelsEm	0x447b5
	_ZN6google8protobuf8internal10LogMessagelsEl	0x44805
	_ZN6google8protobuf8internal10LogMessagelsEj	0x44855
	_ZN6google8protobuf8internal10LogMessagelsEi	0x448a5
	_ZN6google8protobuf8internal10LogMessagelsEc	0x448f5
	_ZN6google8protobuf8internal5Mutex6UnlockEv	0x44955
	_ZN6google8protobuf8internal10LogMessage6FinishEv	0x449c5
	_ZN6google8protobuf8internal5Mutex4LockEv	0x44a21
	_ZN6google8protobuf11LogSilencerD2Ev	0x44b79
	_ZN6google8protobuf11LogSilencerD1Ev	0x44b79
	_ZN6google8protobuf11LogSilencerC2Ev	0x44ba9
	_ZN6google8protobuf11LogSilencerC1Ev	0x44ba9
	_ZN6google8protobuf8internal10LogMessagelsERKSs	0x44bd9
	_ZN6google8protobuf11MessageLiteD1Ev	0x44d5d
	_ZN6google8protobuf11MessageLiteD0Ev	0x44e45
	_ZN6google8protobuf2io17ArrayOutputStreamC1EPvii	0x47349
	_ZN6google8protobuf2io17CodedOutputStreamC1EPNS1_20ZeroCopyOutputStreamE	0x46a33
	_ZN6google8protobuf2io17CodedOutputStreamD1Ev	0x4653d
	_ZN6google8protobuf2io17ArrayOutputStreamD1Ev	0x471ed
	_ZN6google8protobuf2io16CodedInputStream7RefreshEv	0x45f59
	_ZN6google8protobuf2io16CodedInputStream28BackUpInputToCurrentPositionEv	0x45d69
	_ZN6google8protobuf11MessageLite27ParsePartialFromCodedStreamEPNS0_2io16CodedInputStreamE	0x44f73
	_ZN6google8protobuf11MessageLite30ParsePartialFromZeroCopyStreamEPNS0_2io19ZeroCopyInputStreamE	0x44f8b
	_ZN6google8protobuf11MessageLite37ParsePartialFromBoundedZeroCopyStreamEPNS0_2io19ZeroCopyInputStreamEi	0x44fb5
	_ZN6google8protobuf11MessageLite22ParsePartialFromStringERKSs	0x44ff9
	_ZN6google8protobuf11MessageLite21ParsePartialFromArrayEPKvi	0x45035
	_ZNK6google8protobuf11MessageLite29SerializePartialToCodedStreamEPNS0_2io17CodedOutputStreamE	0x45069
	_ZNK6google8protobuf11MessageLite22SerializeToCodedStreamEPNS0_2io17CodedOutputStreamE	0x450ef
	_ZNK6google8protobuf11MessageLite25SerializeToZeroCopyStreamEPNS0_2io20ZeroCopyOutputStreamE	0x450f3
	_ZNK6google8protobuf11MessageLite32SerializePartialToZeroCopyStreamEPNS0_2io20ZeroCopyOutputStreamE	0x450f3
	_ZNK6google8protobuf11MessageLite23SerializePartialToArrayEPvi	0x45115
	_ZNK6google8protobuf11MessageLite16SerializeToArrayEPvi	0x45155
	_ZNK6google8protobuf11MessageLite21AppendPartialToStringEPSs	0x451ed
	_ZNK6google8protobuf11MessageLite24SerializePartialAsStringEv	0x45315
	_ZNK6google8protobuf11MessageLite24SerializePartialToStringEPSs	0x45335
	_ZNK6google8protobuf11MessageLite17SerializeAsStringEv	0x45315
	_ZNK6google8protobuf11MessageLite17SerializeToStringEPSs	0x45335
	_ZN6google8protobuf11MessageLite15ParseFromStringERKSs	0x453f1
	_ZN6google8protobuf11MessageLite14ParseFromArrayEPKvi	0x45495
	_ZN6google8protobuf11MessageLite20ParseFromCodedStreamEPNS0_2io16CodedInputStreamE	0x45531
	_ZN6google8protobuf11MessageLite23ParseFromZeroCopyStreamEPNS0_2io19ZeroCopyInputStreamE	0x455b9
	_ZN6google8protobuf11MessageLite30ParseFromBoundedZeroCopyStreamEPNS0_2io19ZeroCopyInputStreamEi	0x455e3
	_ZN6google8protobuf11MessageLite20MergeFromCodedStreamEPNS0_2io16CodedInputStreamE	0x45629
	_ZN6google8protobuf8internal12FieldSkipper15SkipUnknownEnumEii	0x40679
	_ZN6google8protobuf2io17CodedOutputStream13WriteVarint64Ey	0x46709
	_ZN6google8protobuf2io17CodedOutputStream13WriteVarint32Ej	0x46899
	_ZN6google8protobuf8internal14WireFormatLite11SkipMessageEPNS0_2io16CodedInputStreamE	0x457df
	_ZN6google8protobuf8internal12FieldSkipper11SkipMessageEPNS0_2io16CodedInputStreamE	0x4581d
	_ZN6google8protobuf2io16CodedInputStream26ReadLittleEndian64FallbackEPy	0x46455
	_ZN6google8protobuf8internal12FieldSkipper9SkipFieldEPNS0_2io16CodedInputStreamEj	0x458b9
	_ZN6google8protobuf8internal14WireFormatLite22ReadPackedEnumNoInlineEPNS0_2io16CodedInputStreamEPFbiEPNS0_13RepeatedFieldIiEE	0x458c1
	_ZN6google8protobuf8internal14WireFormatLite11WriteUInt32EijPNS0_2io17CodedOutputStreamE	0x4598d
	_ZN6google8protobuf8internal14WireFormatLite11WriteUInt64EiyPNS0_2io17CodedOutputStreamE	0x4596d
	_ZN6google8protobuf8internal14WireFormatLite11WriteSInt32EiiPNS0_2io17CodedOutputStreamE	0x459a7
	_ZN6google8protobuf8internal14WireFormatLite11WriteSInt64EixPNS0_2io17CodedOutputStreamE	0x459c5
	_ZN6google8protobuf8internal14WireFormatLite12WriteFixed32EijPNS0_2io17CodedOutputStreamE	0x459f5
	_ZN6google8protobuf2io17CodedOutputStream19WriteLittleEndian32Ej	0x469ad
	_ZN6google8protobuf8internal14WireFormatLite12WriteFixed64EiyPNS0_2io17CodedOutputStreamE	0x45a13
	_ZN6google8protobuf2io17CodedOutputStream19WriteLittleEndian64Ey	0x46941
	_ZN6google8protobuf8internal14WireFormatLite13WriteSFixed32EiiPNS0_2io17CodedOutputStreamE	0x459f5
	_ZN6google8protobuf8internal14WireFormatLite13WriteSFixed64EixPNS0_2io17CodedOutputStreamE	0x45a13
	_ZN6google8protobuf8internal14WireFormatLite11WriteDoubleEidPNS0_2io17CodedOutputStreamE	0x45a37
	_ZN6google8protobuf8internal14WireFormatLite11WriteStringEiRKSsPNS0_2io17CodedOutputStreamE	0x45a59
	_ZN6google8protobuf2io17CodedOutputStream8WriteRawEPKvi	0x466cf
	_ZN6google8protobuf8internal14WireFormatLite10WriteGroupEiRKNS0_11MessageLiteEPNS0_2io17CodedOutputStreamE	0x45a87
	_ZN6google8protobuf8internal14WireFormatLite22WriteGroupMaybeToArrayEiRKNS0_11MessageLiteEPNS0_2io17CodedOutputStreamE	0x45adf
	_ZN6google8protobuf8internal14WireFormatLite24WriteMessageMaybeToArrayEiRKNS0_11MessageLiteEPNS0_2io17CodedOutputStreamE	0x45b2d
	_ZNSs10_M_reserveEj	0x45b79
	_ZN6google8protobuf2io16CodedInputStream18ReadStringFallbackEPSsi	0x46aed
	_ZN6google8protobuf8internal14WireFormatLite10ReadStringEPNS0_2io16CodedInputStreamEPSs	0x45d01
	_ZN6google8protobuf2io16CodedInputStream18SetTotalBytesLimitEii	0x45e53
	_ZN6google8protobuf2io16CodedInputStream25PrintTotalBytesLimitErrorEv	0x45e79
	_ZN6google8protobuf2io16CodedInputStream16ReadVarint64SlowEPy	0x4608d
	_ZN6google8protobuf2io16CodedInputStream16ReadVarint32SlowEPj	0x46213
	_ZN6google8protobuf2io16CodedInputStream11ReadTagSlowEv	0x462df
	_ZN6google8protobuf2io16CodedInputStream7ReadRawEPvi	0x46417
	_ZN6google8protobuf2io16CodedInputStream22GetDirectBufferPointerEPPKvPi	0x46517
	_ZN6google8protobuf2io17CodedOutputStreamD2Ev	0x4653d
	_ZN6google8protobuf2io17CodedOutputStream15WriteRawToArrayEPKviPh	0x46553
	_ZN6google8protobuf2io17CodedOutputStream28WriteVarint32FallbackToArrayEjPh	0x46569
	_ZN6google8protobuf2io17CodedOutputStream20WriteVarint64ToArrayEyPh	0x465cb
	_ZN6google8protobuf2io17CodedOutputStream7RefreshEv	0x466a1
	_ZN6google8protobuf2io17CodedOutputStream22GetDirectBufferPointerEPPvPi	0x469e9
	_ZN6google8protobuf2io17CodedOutputStream4SkipEi	0x46a07
	_ZN6google8protobuf2io17CodedOutputStreamC2EPNS1_20ZeroCopyOutputStreamE	0x46a33
	_ZNSs6appendEjc	0x46b3d
	_ZN6google8protobuf2io16CodedInputStream10ReadStringEPSsi	0x46c05
	_ZN6google8protobuf2io16ArrayInputStream4NextEPPKvPi	0x46c71
	_ZNK6google8protobuf2io16ArrayInputStream9ByteCountEv	0x46ca5
	_ZN6google8protobuf2io17ArrayOutputStream4NextEPPvPi	0x46c71
	_ZNK6google8protobuf2io17ArrayOutputStream9ByteCountEv	0x46ca5
	_ZNK6google8protobuf2io18StringOutputStream9ByteCountEv	0x46cab
	_ZN6google8protobuf2io18CopyingInputStreamD2Ev	0x46cb9
	_ZN6google8protobuf2io18CopyingInputStreamD1Ev	0x46cb9
	_ZN6google8protobuf2io18CopyingInputStream4SkipEi	0x46cc9
	_ZNK6google8protobuf2io25CopyingInputStreamAdaptor9ByteCountEv	0x46d35
	_ZN6google8protobuf2io19CopyingOutputStreamD2Ev	0x46d49
	_ZN6google8protobuf2io19CopyingOutputStreamD1Ev	0x46d49
	_ZNK6google8protobuf2io26CopyingOutputStreamAdaptor9ByteCountEv	0x46d59
	_ZN6google8protobuf2io26CopyingOutputStreamAdaptor6BackUpEi	0x46d6d
	_ZN6google8protobuf2io17ArrayOutputStream6BackUpEi	0x46e5d
	_ZN6google8protobuf2io16ArrayInputStream4SkipEi	0x46f3d
	_ZN6google8protobuf2io16ArrayInputStream6BackUpEi	0x46fb9
	_ZN6google8protobuf2io25CopyingInputStreamAdaptor6BackUpEi	0x47099
	_ZN6google8protobuf2io19CopyingOutputStreamD0Ev	0x47191
	_ZN6google8protobuf2io18CopyingInputStreamD0Ev	0x471a9
	_ZN6google8protobuf2io18StringOutputStreamD2Ev	0x471c1
	_ZN6google8protobuf2io20ZeroCopyOutputStreamD2Ev	0x476d1
	_ZN6google8protobuf2io18StringOutputStreamD1Ev	0x471c1
	_ZN6google8protobuf2io18StringOutputStreamD0Ev	0x471d9
	_ZN6google8protobuf2io17ArrayOutputStreamD2Ev	0x471ed
	_ZN6google8protobuf2io17ArrayOutputStreamD0Ev	0x47205
	_ZN6google8protobuf2io16ArrayInputStreamD2Ev	0x47219
	_ZN6google8protobuf2io19ZeroCopyInputStreamD2Ev	0x476c1
	_ZN6google8protobuf2io16ArrayInputStreamD1Ev	0x47219
	_ZN6google8protobuf2io16ArrayInputStreamD0Ev	0x47231
	_ZN6google8protobuf2io25CopyingInputStreamAdaptor4SkipEi	0x47245
	_ZN6google8protobuf2io25CopyingInputStreamAdaptorD2Ev	0x472e1
	_ZN6google8protobuf2io25CopyingInputStreamAdaptorD1Ev	0x472e1
	_ZN6google8protobuf2io25CopyingInputStreamAdaptorD0Ev	0x47311
	_ZN6google8protobuf2io16ArrayInputStreamC2EPKvii	0x47325
	_ZN6google8protobuf2io16ArrayInputStreamC1EPKvii	0x47325
	_ZN6google8protobuf2io17ArrayOutputStreamC2EPvii	0x47349
	_ZN6google8protobuf2io18StringOutputStreamC2EPSs	0x4736d
	_ZN6google8protobuf2io18StringOutputStreamC1EPSs	0x4736d
	_ZN6google8protobuf2io25CopyingInputStreamAdaptorC2EPNS1_18CopyingInputStreamEi	0x4737d
	_ZN6google8protobuf2io25CopyingInputStreamAdaptorC1EPNS1_18CopyingInputStreamEi	0x4737d
	_ZN6google8protobuf2io26CopyingOutputStreamAdaptorC2EPNS1_19CopyingOutputStreamEi	0x473ad
	_ZN6google8protobuf2io26CopyingOutputStreamAdaptorC1EPNS1_19CopyingOutputStreamEi	0x473ad
	_ZN6google8protobuf2io26CopyingOutputStreamAdaptor10FreeBufferEv	0x473f3
	_ZN6google8protobuf2io26CopyingOutputStreamAdaptor11WriteBufferEv	0x473fd
	_ZN6google8protobuf2io26CopyingOutputStreamAdaptor5FlushEv	0x4743d
	_ZN6google8protobuf2io26CopyingOutputStreamAdaptorD2Ev	0x47441
	_ZN6google8protobuf2io26CopyingOutputStreamAdaptorD1Ev	0x47441
	_ZN6google8protobuf2io26CopyingOutputStreamAdaptorD0Ev	0x47475
	_ZN6google8protobuf2io25CopyingInputStreamAdaptor10FreeBufferEv	0x47489
	_ZN6google8protobuf2io25CopyingInputStreamAdaptor22AllocateBufferIfNeededEv	0x474f5
	_ZN6google8protobuf2io25CopyingInputStreamAdaptor4NextEPPKvPi	0x47513
	_ZN6google8protobuf2io26CopyingOutputStreamAdaptor22AllocateBufferIfNeededEv	0x474f5
	_ZN6google8protobuf2io26CopyingOutputStreamAdaptor4NextEPPvPi	0x47587
	_ZN6google8protobuf2io18StringOutputStream6BackUpEi	0x475c1
	_ZN6google8protobuf2io18StringOutputStream4NextEPPvPi	0x47669
	_ZN6google8protobuf2io19ZeroCopyInputStreamD1Ev	0x476c1
	_ZN6google8protobuf2io20ZeroCopyOutputStreamD1Ev	0x476d1
	_ZN6google8protobuf2io20ZeroCopyOutputStreamD0Ev	0x476e1
	_ZN6google8protobuf2io19ZeroCopyInputStreamD0Ev	0x476f9
Module(name="libGLESv2.so", base_address=0x4037a000, size=32768, path="/system/lib/libGLESv2.so")
	func_name	RVA
	glActiveTexture	0x4010
	glAttachShader	0x4024
	glBindAttribLocation	0x4038
	glBindBuffer	0x404c
	glBindFramebuffer	0x4060
	glBindRenderbuffer	0x4074
	glBindTexture	0x4088
	glBlendColor	0x409c
	glBlendEquation	0x40b0
	glBlendEquationSeparate	0x40c4
	glBlendFunc	0x40d8
	glBlendFuncSeparate	0x40ec
	glBufferData	0x4100
	glBufferSubData	0x4114
	glCheckFramebufferStatus	0x4128
	glClear	0x4140
	glClearColor	0x4154
	glClearDepthf	0x4168
	glClearStencil	0x417c
	glColorMask	0x4190
	glCompileShader	0x41a4
	glCompressedTexImage2D	0x41b8
	glCompressedTexSubImage2D	0x41cc
	glCopyTexImage2D	0x41e0
	glCopyTexSubImage2D	0x41f4
	glCreateProgram	0x4208
	glCreateShader	0x4220
	glCullFace	0x4238
	glDeleteBuffers	0x424c
	glDeleteFramebuffers	0x4260
	glDeleteProgram	0x4274
	glDeleteRenderbuffers	0x4288
	glDeleteShader	0x429c
	glDeleteTextures	0x42b0
	glDepthFunc	0x42c4
	glDepthMask	0x42d8
	glDepthRangef	0x42ec
	glDetachShader	0x4300
	glDisable	0x4314
	glDisableVertexAttribArray	0x4328
	glDrawArrays	0x433c
	glDrawElements	0x4350
	glEnable	0x4364
	glEnableVertexAttribArray	0x4378
	glFinish	0x438c
	glFlush	0x43a0
	glFramebufferRenderbuffer	0x43b4
	glFramebufferTexture2D	0x43c8
	glFrontFace	0x43dc
	glGenBuffers	0x43f0
	glGenerateMipmap	0x4404
	glGenFramebuffers	0x4418
	glGenRenderbuffers	0x442c
	glGenTextures	0x4440
	glGetActiveAttrib	0x4454
	glGetActiveUniform	0x4468
	glGetAttachedShaders	0x447c
	glGetAttribLocation	0x4490
	glGetBooleanv	0x44a8
	glGetBufferParameteriv	0x44bc
	glGetError	0x44d0
	glGetFloatv	0x44e8
	glGetFramebufferAttachmentParameteriv	0x44fc
	glGetIntegerv	0x4510
	glGetProgramiv	0x4524
	glGetProgramInfoLog	0x4538
	glGetRenderbufferParameteriv	0x454c
	glGetShaderiv	0x4560
	glGetShaderInfoLog	0x4574
	glGetShaderPrecisionFormat	0x4588
	glGetShaderSource	0x459c
	glGetTexParameterfv	0x45b0
	glGetTexParameteriv	0x45c4
	glGetUniformfv	0x45d8
	glGetUniformiv	0x45ec
	glGetUniformLocation	0x4600
	glGetVertexAttribfv	0x4618
	glGetVertexAttribiv	0x462c
	glGetVertexAttribPointerv	0x4640
	glHint	0x4654
	glIsBuffer	0x4668
	glIsEnabled	0x4680
	glIsFramebuffer	0x4698
	glIsProgram	0x46b0
	glIsRenderbuffer	0x46c8
	glIsShader	0x46e0
	glIsTexture	0x46f8
	glLineWidth	0x4710
	glLinkProgram	0x4724
	glPixelStorei	0x4738
	glPolygonOffset	0x474c
	glReadPixels	0x4760
	glReleaseShaderCompiler	0x4774
	glRenderbufferStorage	0x4788
	glSampleCoverage	0x479c
	glScissor	0x47b0
	glShaderBinary	0x47c4
	glShaderSource	0x47d8
	glStencilFunc	0x47ec
	glStencilFuncSeparate	0x4800
	glStencilMask	0x4814
	glStencilMaskSeparate	0x4828
	glStencilOp	0x483c
	glStencilOpSeparate	0x4850
	glTexImage2D	0x4864
	glTexParameterf	0x4878
	glTexParameterfv	0x488c
	glTexParameteri	0x48a0
	glTexParameteriv	0x48b4
	glTexSubImage2D	0x48c8
	glUniform1f	0x48dc
	glUniform1fv	0x48f0
	glUniform1i	0x4904
	glUniform1iv	0x4918
	glUniform2f	0x492c
	glUniform2fv	0x4940
	glUniform2i	0x4954
	glUniform2iv	0x4968
	glUniform3f	0x497c
	glUniform3fv	0x4990
	glUniform3i	0x49a4
	glUniform3iv	0x49b8
	glUniform4f	0x49cc
	glUniform4fv	0x49e0
	glUniform4i	0x49f4
	glUniform4iv	0x4a08
	glUniformMatrix2fv	0x4a1c
	glUniformMatrix3fv	0x4a30
	glUniformMatrix4fv	0x4a44
	glUseProgram	0x4a58
	glValidateProgram	0x4a6c
	glVertexAttrib1f	0x4a80
	glVertexAttrib1fv	0x4a94
	glVertexAttrib2f	0x4aa8
	glVertexAttrib2fv	0x4abc
	glVertexAttrib3f	0x4ad0
	glVertexAttrib3fv	0x4ae4
	glVertexAttrib4f	0x4af8
	glVertexAttrib4fv	0x4b0c
	glVertexAttribPointer	0x4b20
	glViewport	0x4b34
	glReadBuffer	0x4b48
	glDrawRangeElements	0x4b5c
	glTexImage3D	0x4b70
	glTexSubImage3D	0x4b84
	glCopyTexSubImage3D	0x4b98
	glCompressedTexImage3D	0x4bac
	glCompressedTexSubImage3D	0x4bc0
	glGenQueries	0x4bd4
	glDeleteQueries	0x4be8
	glIsQuery	0x4bfc
	glBeginQuery	0x4c14
	glEndQuery	0x4c28
	glGetQueryiv	0x4c3c
	glGetQueryObjectuiv	0x4c50
	glUnmapBuffer	0x4c64
	glGetBufferPointerv	0x4c7c
	glDrawBuffers	0x4c90
	glUniformMatrix2x3fv	0x4ca4
	glUniformMatrix3x2fv	0x4cb8
	glUniformMatrix2x4fv	0x4ccc
	glUniformMatrix4x2fv	0x4ce0
	glUniformMatrix3x4fv	0x4cf4
	glUniformMatrix4x3fv	0x4d08
	glBlitFramebuffer	0x4d1c
	glRenderbufferStorageMultisample	0x4d30
	glFramebufferTextureLayer	0x4d44
	glMapBufferRange	0x4d58
	glFlushMappedBufferRange	0x4d70
	glBindVertexArray	0x4d84
	glDeleteVertexArrays	0x4d98
	glGenVertexArrays	0x4dac
	glIsVertexArray	0x4dc0
	glGetIntegeri_v	0x4dd8
	glBeginTransformFeedback	0x4dec
	glEndTransformFeedback	0x4e00
	glBindBufferRange	0x4e14
	glBindBufferBase	0x4e28
	glTransformFeedbackVaryings	0x4e3c
	glGetTransformFeedbackVarying	0x4e50
	glVertexAttribIPointer	0x4e64
	glGetVertexAttribIiv	0x4e78
	glGetVertexAttribIuiv	0x4e8c
	glVertexAttribI4i	0x4ea0
	glVertexAttribI4ui	0x4eb4
	glVertexAttribI4iv	0x4ec8
	glVertexAttribI4uiv	0x4edc
	glGetUniformuiv	0x4ef0
	glGetFragDataLocation	0x4f04
	glUniform1ui	0x4f1c
	glUniform2ui	0x4f30
	glUniform3ui	0x4f44
	glUniform4ui	0x4f58
	glUniform1uiv	0x4f6c
	glUniform2uiv	0x4f80
	glUniform3uiv	0x4f94
	glUniform4uiv	0x4fa8
	glClearBufferiv	0x4fbc
	glClearBufferuiv	0x4fd0
	glClearBufferfv	0x4fe4
	glClearBufferfi	0x4ff8
	glGetStringi	0x500c
	glCopyBufferSubData	0x5024
	glGetUniformIndices	0x5038
	glGetActiveUniformsiv	0x504c
	glGetUniformBlockIndex	0x5060
	glGetActiveUniformBlockiv	0x5078
	glGetActiveUniformBlockName	0x508c
	glUniformBlockBinding	0x50a0
	glDrawArraysInstanced	0x50b4
	glDrawElementsInstanced	0x50c8
	glFenceSync	0x50dc
	glIsSync	0x50f4
	glDeleteSync	0x510c
	glClientWaitSync	0x5120
	glWaitSync	0x5138
	glGetInteger64v	0x514c
	glGetSynciv	0x5160
	glGetInteger64i_v	0x5174
	glGetBufferParameteri64v	0x5188
	glGenSamplers	0x519c
	glDeleteSamplers	0x51b0
	glIsSampler	0x51c4
	glBindSampler	0x51dc
	glSamplerParameteri	0x51f0
	glSamplerParameteriv	0x5204
	glSamplerParameterf	0x5218
	glSamplerParameterfv	0x522c
	glGetSamplerParameteriv	0x5240
	glGetSamplerParameterfv	0x5254
	glVertexAttribDivisor	0x5268
	glBindTransformFeedback	0x527c
	glDeleteTransformFeedbacks	0x5290
	glGenTransformFeedbacks	0x52a4
	glIsTransformFeedback	0x52b8
	glPauseTransformFeedback	0x52d0
	glResumeTransformFeedback	0x52e4
	glGetProgramBinary	0x52f8
	glProgramBinary	0x530c
	glProgramParameteri	0x5320
	glInvalidateFramebuffer	0x5334
	glInvalidateSubFramebuffer	0x5348
	glTexStorage2D	0x535c
	glTexStorage3D	0x5370
	glGetInternalformativ	0x5384
	glEGLImageTargetTexture2DOES	0x5398
	glEGLImageTargetRenderbufferStorageOES	0x53ac
	glGetProgramBinaryOES	0x53c0
	glProgramBinaryOES	0x53d4
	glMapBufferOES	0x53e8
	glUnmapBufferOES	0x5400
	glGetBufferPointervOES	0x5418
	glTexImage3DOES	0x542c
	glTexSubImage3DOES	0x5440
	glCopyTexSubImage3DOES	0x5454
	glCompressedTexImage3DOES	0x5468
	glCompressedTexSubImage3DOES	0x547c
	glFramebufferTexture3DOES	0x5490
	glBindVertexArrayOES	0x54a4
	glDeleteVertexArraysOES	0x54b8
	glGenVertexArraysOES	0x54cc
	glIsVertexArrayOES	0x54e0
	glGetPerfMonitorGroupsAMD	0x54f8
	glGetPerfMonitorCountersAMD	0x550c
	glGetPerfMonitorGroupStringAMD	0x5520
	glGetPerfMonitorCounterStringAMD	0x5534
	glGetPerfMonitorCounterInfoAMD	0x5548
	glGenPerfMonitorsAMD	0x555c
	glDeletePerfMonitorsAMD	0x5570
	glSelectPerfMonitorCountersAMD	0x5584
	glBeginPerfMonitorAMD	0x5598
	glEndPerfMonitorAMD	0x55ac
	glGetPerfMonitorCounterDataAMD	0x55c0
	glBlitFramebufferANGLE	0x55d4
	glRenderbufferStorageMultisampleANGLE	0x55e8
	glRenderbufferStorageMultisampleAPPLE	0x55fc
	glResolveMultisampleFramebufferAPPLE	0x5610
	glLabelObjectEXT	0x5624
	glGetObjectLabelEXT	0x5638
	glInsertEventMarkerEXT	0x564c
	glPushGroupMarkerEXT	0x5660
	glPopGroupMarkerEXT	0x5674
	glDiscardFramebufferEXT	0x5688
	glRenderbufferStorageMultisampleEXT	0x569c
	glFramebufferTexture2DMultisampleEXT	0x56b0
	glMultiDrawArraysEXT	0x56c4
	glMultiDrawElementsEXT	0x56d8
	glGenQueriesEXT	0x56ec
	glDeleteQueriesEXT	0x5700
	glIsQueryEXT	0x5714
	glBeginQueryEXT	0x572c
	glEndQueryEXT	0x5740
	glGetQueryivEXT	0x5754
	glGetQueryObjectuivEXT	0x5768
	glGetGraphicsResetStatusEXT	0x577c
	glReadnPixelsEXT	0x5794
	glGetnUniformfvEXT	0x57a8
	glGetnUniformivEXT	0x57bc
	glUseProgramStagesEXT	0x57d0
	glActiveShaderProgramEXT	0x57e4
	glCreateShaderProgramvEXT	0x57f8
	glBindProgramPipelineEXT	0x5810
	glDeleteProgramPipelinesEXT	0x5824
	glGenProgramPipelinesEXT	0x5838
	glIsProgramPipelineEXT	0x584c
	glProgramParameteriEXT	0x5864
	glGetProgramPipelineivEXT	0x5878
	glProgramUniform1iEXT	0x588c
	glProgramUniform2iEXT	0x58a0
	glProgramUniform3iEXT	0x58b4
	glProgramUniform4iEXT	0x58c8
	glProgramUniform1fEXT	0x58dc
	glProgramUniform2fEXT	0x58f0
	glProgramUniform3fEXT	0x5904
	glProgramUniform4fEXT	0x5918
	glProgramUniform1ivEXT	0x592c
	glProgramUniform2ivEXT	0x5940
	glProgramUniform3ivEXT	0x5954
	glProgramUniform4ivEXT	0x5968
	glProgramUniform1fvEXT	0x597c
	glProgramUniform2fvEXT	0x5990
	glProgramUniform3fvEXT	0x59a4
	glProgramUniform4fvEXT	0x59b8
	glProgramUniformMatrix2fvEXT	0x59cc
	glProgramUniformMatrix3fvEXT	0x59e0
	glProgramUniformMatrix4fvEXT	0x59f4
	glValidateProgramPipelineEXT	0x5a08
	glGetProgramPipelineInfoLogEXT	0x5a1c
	glTexStorage1DEXT	0x5a30
	glTexStorage2DEXT	0x5a44
	glTexStorage3DEXT	0x5a58
	glTextureStorage1DEXT	0x5a6c
	glTextureStorage2DEXT	0x5a80
	glTextureStorage3DEXT	0x5a94
	glRenderbufferStorageMultisampleIMG	0x5aa8
	glFramebufferTexture2DMultisampleIMG	0x5abc
	glCoverageMaskNV	0x5ad0
	glCoverageOperationNV	0x5ae4
	glDrawBuffersNV	0x5af8
	glDeleteFencesNV	0x5b0c
	glGenFencesNV	0x5b20
	glIsFenceNV	0x5b34
	glTestFenceNV	0x5b4c
	glGetFenceivNV	0x5b64
	glFinishFenceNV	0x5b78
	glSetFenceNV	0x5b8c
	glReadBufferNV	0x5ba0
	glAlphaFuncQCOM	0x5bb4
	glGetDriverControlsQCOM	0x5bc8
	glGetDriverControlStringQCOM	0x5bdc
	glEnableDriverControlQCOM	0x5bf0
	glDisableDriverControlQCOM	0x5c04
	glExtGetTexturesQCOM	0x5c18
	glExtGetBuffersQCOM	0x5c2c
	glExtGetRenderbuffersQCOM	0x5c40
	glExtGetFramebuffersQCOM	0x5c54
	glExtGetTexLevelParameterivQCOM	0x5c68
	glExtTexObjectStateOverrideiQCOM	0x5c7c
	glExtGetTexSubImageQCOM	0x5c90
	glExtGetBufferPointervQCOM	0x5ca4
	glExtGetShadersQCOM	0x5cb8
	glExtGetProgramsQCOM	0x5ccc
	glExtIsProgramBinaryQCOM	0x5ce0
	glExtGetProgramBinarySourceQCOM	0x5cf8
	glStartTilingQCOM	0x5d0c
	glEndTilingQCOM	0x5d20
	glGetString	0x5d34
Module(name="libinput.so", base_address=0x40382000, size=94208, path="/system/lib/libinput.so")
	func_name	RVA
	_ZNK7android6VectorIPNS_11MotionEventEE12do_constructEPvj	0xa4a9
	_ZNK7android6VectorIPNS_11MotionEventEE10do_destroyEPvj	0xa4a9
	_ZNK7android6VectorIPNS_8KeyEventEE12do_constructEPvj	0xa4a9
	_ZNK7android6VectorIPNS_8KeyEventEE10do_destroyEPvj	0xa4a9
	_ZNK7android6VectorINS_13PointerCoordsEE12do_constructEPvj	0xa4a9
	_ZNK7android6VectorINS_13PointerCoordsEE10do_destroyEPvj	0xa4a9
	_ZNK7android6VectorIxE12do_constructEPvj	0xa4a9
	_ZNK7android6VectorIxE10do_destroyEPvj	0xa4a9
	_ZNK7android6VectorINS_17PointerPropertiesEE12do_constructEPvj	0xa4a9
	_ZNK7android6VectorINS_17PointerPropertiesEE10do_destroyEPvj	0xa4a9
	_ZNK7android6VectorIPNS_11MotionEventEE8do_splatEPvPKvj	0xa4ab
	_ZNK7android6VectorIPNS_8KeyEventEE8do_splatEPvPKvj	0xa4ab
	_ZNK7android6VectorINS_13PointerCoordsEE7do_copyEPvPKvj	0xa4bd
	_ZNK7android6VectorINS_13PointerCoordsEE8do_splatEPvPKvj	0xa4f1
	_ZNK7android6VectorINS_13PointerCoordsEE15do_move_forwardEPvPKvj	0xa51f
	_ZNK7android6VectorINS_13PointerCoordsEE16do_move_backwardEPvPKvj	0xa4bd
	_ZNK7android6VectorIxE8do_splatEPvPKvj	0xa55b
	_ZNK7android6VectorINS_17PointerPropertiesEE7do_copyEPvPKvj	0xa571
	_ZNK7android6VectorINS_17PointerPropertiesEE8do_splatEPvPKvj	0xa58d
	_ZNK7android6VectorINS_17PointerPropertiesEE15do_move_forwardEPvPKvj	0xa5a5
	_ZNK7android6VectorINS_17PointerPropertiesEE16do_move_backwardEPvPKvj	0xa571
	_ZNK7android6VectorIPNS_11MotionEventEE15do_move_forwardEPvPKvj	0xa5c7
	_ZNK7android6VectorIPNS_11MotionEventEE16do_move_backwardEPvPKvj	0xa5c7
	_ZNK7android6VectorIPNS_8KeyEventEE15do_move_forwardEPvPKvj	0xa5c7
	_ZNK7android6VectorIPNS_8KeyEventEE16do_move_backwardEPvPKvj	0xa5c7
	_ZNK7android6VectorIxE15do_move_forwardEPvPKvj	0xa5d1
	_ZNK7android6VectorIxE16do_move_backwardEPvPKvj	0xa5d1
	_ZNK7android6VectorIPNS_11MotionEventEE7do_copyEPvPKvj	0xa5db
	_ZNK7android6VectorIPNS_8KeyEventEE7do_copyEPvPKvj	0xa5db
	_ZNK7android6VectorIxE7do_copyEPvPKvj	0xa5e5
	_ZN7android23PooledInputEventFactoryD2Ev	0xa6a9
	_ZN7android23PooledInputEventFactoryD1Ev	0xa6a9
	_ZN7android23PooledInputEventFactoryD0Ev	0xa715
	__popcountdi2	0x10fd4
	_ZN7android23PooledInputEventFactory14createKeyEventEv	0xa889
	_ZN7android23PooledInputEventFactory17createMotionEventEv	0xa8c9
	_ZN7android10InputEvent10initializeEii	0xa955
	_ZN7android10InputEvent10initializeERKS0_	0xa95b
	_ZN7android8KeyEvent16hasDefaultActionEi	0xa965
	_ZNK7android8KeyEvent16hasDefaultActionEv	0xa99f
	_ZN7android8KeyEvent11isSystemKeyEi	0xa9a5
	_ZNK7android8KeyEvent11isSystemKeyEv	0xa9e9
	_ZN7android8KeyEvent10initializeEiiiiiiiixx	0xa9ef
	_ZN7android8KeyEvent10initializeERKS0_	0xaa1b
	_ZNK7android13PointerCoords12getAxisValueEi	0xaa4d
	_ZN7android13PointerCoords14readFromParcelEPNS_6ParcelE	0xaa69
	_ZNK7android13PointerCoords13writeToParcelEPNS_6ParcelE	0xaaa3
	_ZN7android13PointerCoords11tooManyAxesEi	0xaad9
	_ZN7android13PointerCoords12setAxisValueEif	0xaaf9
	_ZN7android13PointerCoords5scaleEf	0xabed
	_ZNK7android13PointerCoordseqERKS0_	0xac47
	_ZN7android13PointerCoords8copyFromERKS0_	0xac8b
	_ZNK7android17PointerPropertieseqERKS0_	0xacb9
	_ZN7android17PointerProperties8copyFromERKS0_	0xacd3
	_ZN7android11MotionEvent8copyFromEPKS0_b	0xacdd
	_ZN7android11MotionEvent9addSampleExPKNS_13PointerCoordsE	0xad8f
	_ZN7android11MotionEvent10initializeEiiiiiiiffffxxjPKNS_17PointerPropertiesEPKNS_13PointerCoordsE	0xadb1
	_ZNK7android11MotionEvent19getRawPointerCoordsEj	0xae3b
	_ZNK7android11MotionEvent15getRawAxisValueEij	0xae4d
	_ZNK7android11MotionEvent12getAxisValueEij	0xae61
	_ZNK7android11MotionEvent29getHistoricalRawPointerCoordsEjj	0xae93
	_ZNK7android11MotionEvent25getHistoricalRawAxisValueEijj	0xaea1
	_ZNK7android11MotionEvent22getHistoricalAxisValueEijj	0xaeb7
	_ZNK7android11MotionEvent16findPointerIndexEi	0xaeed
	_ZN7android11MotionEvent14offsetLocationEff	0xaf0f
	_ZN7android11MotionEvent5scaleEf	0xaf31
	_ZN7android11MotionEvent9transformEPKf	0xaf91
	_ZN7android11MotionEvent14readFromParcelEPNS_6ParcelE	0xb149
	_ZNK7android11MotionEvent13writeToParcelEPNS_6ParcelE	0xb281
	_ZN7android11MotionEvent12isTouchEventEii	0xb367
	_ZN7android23PooledInputEventFactoryC2Ej	0xb379
	_ZN7android23PooledInputEventFactoryC1Ej	0xb379
	_ZN7android23PooledInputEventFactory7recycleEPNS_10InputEventE	0xb3c9
	_ZNK7android6VectorINS_15InputDeviceInfo11MotionRangeEE12do_constructEPvj	0xa4a9
	_ZNK7android6VectorINS_15InputDeviceInfo11MotionRangeEE10do_destroyEPvj	0xa4a9
	_ZNK7android6VectorINS_15InputDeviceInfo11MotionRangeEE7do_copyEPvPKvj	0xb417
	_ZNK7android6VectorINS_15InputDeviceInfo11MotionRangeEE8do_splatEPvPKvj	0xb445
	_ZNK7android6VectorINS_15InputDeviceInfo11MotionRangeEE15do_move_forwardEPvPKvj	0xb46b
	_ZNK7android6VectorINS_15InputDeviceInfo11MotionRangeEE16do_move_backwardEPvPKvj	0xb417
	_ZN7android41getInputDeviceConfigurationFilePathByNameERKNS_7String8ENS_32InputDeviceConfigurationFileTypeE	0xb5b9
	_ZN7android53getInputDeviceConfigurationFilePathByDeviceIdentifierERKNS_21InputDeviceIdentifierENS_32InputDeviceConfigurationFileTypeE	0xb651
	_ZN7android15InputDeviceInfoC2ERKS0_	0xb70d
	_ZN7android15InputDeviceInfoC1ERKS0_	0xb70d
	_ZN7android15InputDeviceInfoD2Ev	0xb7c1
	_ZN7android15InputDeviceInfoD1Ev	0xb7c1
	_ZN7android15InputDeviceInfo10initializeEiiiRKNS_21InputDeviceIdentifierERKNS_7String8Eb	0xb7ed
	_ZN7android15InputDeviceInfoC2Ev	0xb861
	_ZN7android15InputDeviceInfoC1Ev	0xb861
	_ZNK7android15InputDeviceInfo14getMotionRangeEij	0xb8d1
	_ZN7android15InputDeviceInfo9addSourceEj	0xb8fd
	_ZN7android15InputDeviceInfo14addMotionRangeEijfffff	0xb905
	_ZN7android15InputDeviceInfo14addMotionRangeERKNS0_11MotionRangeE	0xb93b
	_ZN7android6KeyMapC2Ev	0xb9cd
	_ZN7android6KeyMapC1Ev	0xb9cd
	_ZN7android6KeyMapD2Ev	0xb9e7
	_ZN7android6KeyMapD1Ev	0xb9e7
	_ZN7android6KeyMap7getPathERKNS_21InputDeviceIdentifierERKNS_7String8ENS_32InputDeviceConfigurationFileTypeE	0xba13
	_ZN7android6KeyMap19loadKeyCharacterMapERKNS_21InputDeviceIdentifierERKNS_7String8E	0xba3f
	_ZN7android15KeyCharacterMap4loadERKNS_7String8ENS0_6FormatEPNS_2spIS0_EE	0xd83d
	_ZN7android6KeyMap13loadKeyLayoutERKNS_21InputDeviceIdentifierERKNS_7String8E	0xba8b
	_ZN7android12KeyLayoutMap4loadERKNS_7String8EPNS_2spIS0_EE	0xe319
	_ZN7android6KeyMap11probeKeyMapERKNS_21InputDeviceIdentifierERKNS_7String8E	0xbad1
	_ZN7android6KeyMap4loadERKNS_21InputDeviceIdentifierEPKNS_11PropertyMapE	0xbb05
	_ZN7android25isEligibleBuiltInKeyboardERKNS_21InputDeviceIdentifierEPKNS_11PropertyMapEPKNS_6KeyMapE	0xbc61
	_ZNK7android15KeyCharacterMap15getKeyboardTypeEv	0xbf49
	_ZN7android17getKeyCodeByLabelEPKc	0xbcd5
	_ZN7android17getKeyFlagByLabelEPKc	0xbce1
	_ZN7android14getAxisByLabelEPKc	0xbced
	_ZN7android12getAxisLabelEi	0xbcf9
	_ZN7android15updateMetaStateEibi	0xbd1d
	_ZN7android9isMetaKeyEi	0xbdb3
	_ZNK7android6VectorINS_15KeyCharacterMap6Parser8PropertyEE10do_destroyEPvj	0xa4a9
	_ZNK7android12SortedVectorINS_16key_value_pair_tIiiEEE12do_constructEPvj	0xa4a9
	_ZNK7android12SortedVectorINS_16key_value_pair_tIiiEEE10do_destroyEPvj	0xa4a9
	_ZNK7android12SortedVectorINS_16key_value_pair_tIiPNS_15KeyCharacterMap3KeyEEEE12do_constructEPvj	0xa4a9
	_ZNK7android12SortedVectorINS_16key_value_pair_tIiPNS_15KeyCharacterMap3KeyEEEE10do_destroyEPvj	0xa4a9
	_ZNK7android6VectorINS_15KeyCharacterMap6Parser8PropertyEE12do_constructEPvj	0xbdd5
	_ZNK7android6VectorINS_15KeyCharacterMap6Parser8PropertyEE7do_copyEPvPKvj	0xa571
	_ZNK7android6VectorINS_15KeyCharacterMap6Parser8PropertyEE8do_splatEPvPKvj	0xa58d
	_ZNK7android6VectorINS_15KeyCharacterMap6Parser8PropertyEE15do_move_forwardEPvPKvj	0xa5a5
	_ZNK7android6VectorINS_15KeyCharacterMap6Parser8PropertyEE16do_move_backwardEPvPKvj	0xa571
	_ZNK7android12SortedVectorINS_16key_value_pair_tIiiEEE8do_splatEPvPKvj	0xa58d
	_ZNK7android12SortedVectorINS_16key_value_pair_tIiPNS_15KeyCharacterMap3KeyEEEE8do_splatEPvPKvj	0xbde9
	_ZN7android2spINS_15KeyCharacterMapEED2Ev	0xbe01
	_ZN7android2spINS_15KeyCharacterMapEED1Ev	0xbe01
	_ZNK7android12SortedVectorINS_16key_value_pair_tIiiEEE15do_move_forwardEPvPKvj	0xa5d1
	_ZNK7android12SortedVectorINS_16key_value_pair_tIiiEEE16do_move_backwardEPvPKvj	0xa5d1
	_ZNK7android12SortedVectorINS_16key_value_pair_tIiPNS_15KeyCharacterMap3KeyEEEE15do_move_forwardEPvPKvj	0xa5d1
	_ZNK7android12SortedVectorINS_16key_value_pair_tIiPNS_15KeyCharacterMap3KeyEEEE16do_move_backwardEPvPKvj	0xa5d1
	_ZNK7android12SortedVectorINS_16key_value_pair_tIiiEEE7do_copyEPvPKvj	0xa5e5
	_ZNK7android12SortedVectorINS_16key_value_pair_tIiPNS_15KeyCharacterMap3KeyEEEE7do_copyEPvPKvj	0xa5e5
	_ZNK7android12SortedVectorINS_16key_value_pair_tIiPNS_15KeyCharacterMap3KeyEEEE10do_compareEPKvS8_	0xbed5
	_ZNK7android12SortedVectorINS_16key_value_pair_tIiiEEE10do_compareEPKvS5_	0xbed5
	_ZNK7android15KeyCharacterMap6mapKeyEiiPi	0xbf4d
	_ZNK7android15KeyCharacterMap6getKeyEiPPKNS0_3KeyE	0xbf9d
	_ZNK7android15KeyCharacterMap8getMatchEiPKtji	0xbfc9
	_ZNK7android15KeyCharacterMap9getNumberEi	0xc013
	_ZNK7android15KeyCharacterMap15getDisplayLabelEi	0xc023
	_ZN7android15KeyCharacterMap16matchesMetaStateEii	0xc035
	_ZNK7android15KeyCharacterMap14getKeyBehaviorEiiPPKNS0_3KeyEPPKNS0_8BehaviorE	0xc099
	_ZNK7android15KeyCharacterMap17getFallbackActionEiiPNS0_14FallbackActionE	0xc0cb
	_ZNK7android15KeyCharacterMap12getCharacterEii	0xc0fb
	_ZNK7android15KeyCharacterMap7findKeyEtPiS1_	0xc111
	_ZN7android15KeyCharacterMap6addKeyERNS_6VectorINS_8KeyEventEEEiiibx	0xc159
	_ZN7android15KeyCharacterMap25addSingleEphemeralMetaKeyERNS_6VectorINS_8KeyEventEEEiibxiiPi	0xc1a7
	_ZN7android15KeyCharacterMap25addDoubleEphemeralMetaKeyERNS_6VectorINS_8KeyEventEEEiibxiiiiiPi	0xc1eb
	_ZN7android15KeyCharacterMap16addLockedMetaKeyERNS_6VectorINS_8KeyEventEEEiixiiPi	0xc277
	_ZN7android15KeyCharacterMap11addMetaKeysERNS_6VectorINS_8KeyEventEEEiibxPi	0xc2dd
	_ZNK7android15KeyCharacterMap9getEventsEiPKtjRNS_6VectorINS_8KeyEventEEE	0xc545
	_ZNK7android15KeyCharacterMap13writeToParcelEPNS_6ParcelE	0xc5df
	_ZN7android15KeyCharacterMap3KeyC2Ev	0xc65b
	_ZN7android15KeyCharacterMap3KeyC1Ev	0xc65b
	_ZN7android15KeyCharacterMap3KeyD2Ev	0xc665
	_ZN7android15KeyCharacterMap3KeyD1Ev	0xc665
	_ZN7android15KeyCharacterMapD2Ev	0xc67d
	_ZN7android15KeyCharacterMapD1Ev	0xc67d
	_ZN7android15KeyCharacterMapD0Ev	0xc6d9
	_ZN7android15KeyCharacterMap8BehaviorC2Ev	0xc6eb
	_ZN7android15KeyCharacterMap8BehaviorC1Ev	0xc6eb
	_ZN7android15KeyCharacterMap8BehaviorC2ERKS1_	0xc6f7
	_ZN7android15KeyCharacterMap8BehaviorC1ERKS1_	0xc6f7
	_ZN7android15KeyCharacterMap3KeyC2ERKS1_	0xc721
	_ZN7android15KeyCharacterMap3KeyC1ERKS1_	0xc721
	_ZN7android15KeyCharacterMap6ParserC2EPS0_PNS_9TokenizerENS0_6FormatE	0xc747
	_ZN7android15KeyCharacterMap6ParserC1EPS0_PNS_9TokenizerENS0_6FormatE	0xc747
	_ZN7android15KeyCharacterMap6ParserD2Ev	0xa4a9
	_ZN7android15KeyCharacterMap6ParserD1Ev	0xa4a9
	_ZN7android15KeyCharacterMap6Parser9parseTypeEv	0xc755
	_ZN7android15KeyCharacterMap6Parser11parseMapKeyEv	0xc855
	_ZN7android15KeyCharacterMap6Parser8parseMapEv	0xc9bd
	_ZN7android15KeyCharacterMap6Parser8parseKeyEv	0xca31
	_ZN7android15KeyCharacterMap6Parser9finishKeyEPNS0_3KeyE	0xcb3d
	_ZN7android15KeyCharacterMap6Parser13parseModifierERKNS_7String8EPi	0xcba5
	_ZN7android15KeyCharacterMap6Parser21parseCharacterLiteralEPt	0xcc7d
	_ZN7android15KeyCharacterMap6Parser16parseKeyPropertyEv	0xcd7d
	_ZN7android15KeyCharacterMap6Parser5parseEv	0xd1b1
	_ZN7android2spINS_15KeyCharacterMapEEC2ERKS2_	0xd3c9
	_ZN7android2spINS_15KeyCharacterMapEEC1ERKS2_	0xd3c9
	_ZN7android15KeyCharacterMap5emptyEv	0xd3dd
	_ZN7android2spINS_15KeyCharacterMapEEC2EPS1_	0xd3f1
	_ZN7android2spINS_15KeyCharacterMapEEC1EPS1_	0xd3f1
	_ZN7android2spINS_15KeyCharacterMapEE5clearEv	0xd425
	_ZN7android15KeyCharacterMapC2ERKS0_	0xd45d
	_ZN7android15KeyCharacterMapC1ERKS0_	0xd45d
	_ZN7android15KeyCharacterMap7combineERKNS_2spIS0_EES4_	0xd4d5
	_ZN7android15KeyCharacterMapC2Ev	0xd625
	_ZN7android15KeyCharacterMapC1Ev	0xd625
	_ZN7android15KeyCharacterMap14readFromParcelEPNS_6ParcelE	0xd659
	_ZN7android15KeyCharacterMap4loadEPNS_9TokenizerENS0_6FormatEPNS_2spIS0_EE	0xd76d
	_ZN7android15KeyCharacterMap12loadContentsERKNS_7String8EPKcNS0_6FormatEPNS_2spIS0_EE	0xd7e5
	_ZNK7android12SortedVectorINS_16key_value_pair_tIiNS_8AxisInfoEEEE10do_destroyEPvj	0xa4a9
	_ZNK7android12SortedVectorINS_16key_value_pair_tIiNS_12KeyLayoutMap3KeyEEEE12do_constructEPvj	0xa4a9
	_ZNK7android12SortedVectorINS_16key_value_pair_tIiNS_12KeyLayoutMap3KeyEEEE10do_destroyEPvj	0xa4a9
	_ZNK7android12SortedVectorINS_16key_value_pair_tIiNS_12KeyLayoutMap3KeyEEEE7do_copyEPvPKvj	0xd8d9
	_ZNK7android12SortedVectorINS_16key_value_pair_tIiNS_12KeyLayoutMap3KeyEEEE8do_splatEPvPKvj	0xd8fd
	_ZNK7android12SortedVectorINS_16key_value_pair_tIiNS_12KeyLayoutMap3KeyEEEE15do_move_forwardEPvPKvj	0xd91d
	_ZNK7android12SortedVectorINS_16key_value_pair_tIiNS_12KeyLayoutMap3KeyEEEE16do_move_backwardEPvPKvj	0xd8d9
	_ZNK7android12SortedVectorINS_16key_value_pair_tIiNS_8AxisInfoEEEE16do_move_backwardEPvPKvj	0xd9bf
	_ZNK7android12SortedVectorINS_16key_value_pair_tIiNS_8AxisInfoEEEE15do_move_forwardEPvPKvj	0xd9f5
	_ZNK7android12SortedVectorINS_16key_value_pair_tIiNS_8AxisInfoEEEE8do_splatEPvPKvj	0xda37
	_ZNK7android12SortedVectorINS_16key_value_pair_tIiNS_8AxisInfoEEEE7do_copyEPvPKvj	0xd9bf
	_ZNK7android12SortedVectorINS_16key_value_pair_tIiNS_8AxisInfoEEEE12do_constructEPvj	0xda61
	_ZNK7android12SortedVectorINS_16key_value_pair_tIiNS_12KeyLayoutMap3KeyEEEE10do_compareEPKvS7_	0xbed5
	_ZNK7android12SortedVectorINS_16key_value_pair_tIiNS_8AxisInfoEEEE10do_compareEPKvS6_	0xbed5
	_ZN7android12KeyLayoutMapD2Ev	0xda8d
	_ZN7android12KeyLayoutMapD1Ev	0xda8d
	_ZN7android12KeyLayoutMapD0Ev	0xdabd
	_ZNK7android12KeyLayoutMap6getKeyEii	0xdacf
	_ZNK7android12KeyLayoutMap6mapKeyEiiPiPj	0xdb15
	_ZNK7android12KeyLayoutMap19findScanCodesForKeyEiPNS_6VectorIiEE	0xdb37
	_ZN7android12KeyLayoutMap6ParserC2EPS0_PNS_9TokenizerE	0xdb69
	_ZN7android12KeyLayoutMap6ParserC1EPS0_PNS_9TokenizerE	0xdb69
	_ZN7android12KeyLayoutMap6ParserD2Ev	0xa4a9
	_ZN7android12KeyLayoutMap6ParserD1Ev	0xa4a9
	_ZN7android12KeyLayoutMap6Parser8parseKeyEv	0xdb71
	_ZN7android12KeyLayoutMap6Parser9parseAxisEv	0xdda1
	_ZN7android12KeyLayoutMap6Parser5parseEv	0xe121
	_ZNK7android12KeyLayoutMap7mapAxisEiPNS_8AxisInfoE	0xe269
	_ZN7android12KeyLayoutMapC2Ev	0xe2e9
	_ZN7android12KeyLayoutMapC1Ev	0xe2e9
	_ZNK7android6VectorINS_20VirtualKeyDefinitionEE12do_constructEPvj	0xa4a9
	_ZNK7android6VectorINS_20VirtualKeyDefinitionEE10do_destroyEPvj	0xa4a9
	_ZNK7android6VectorINS_20VirtualKeyDefinitionEE7do_copyEPvPKvj	0xe3d9
	_ZNK7android6VectorINS_20VirtualKeyDefinitionEE8do_splatEPvPKvj	0xe403
	_ZNK7android6VectorINS_20VirtualKeyDefinitionEE15do_move_forwardEPvPKvj	0xe425
	_ZNK7android6VectorINS_20VirtualKeyDefinitionEE16do_move_backwardEPvPKvj	0xe3d9
	_ZN7android13VirtualKeyMapC2Ev	0xe495
	_ZN7android13VirtualKeyMapC1Ev	0xe495
	_ZN7android13VirtualKeyMapD2Ev	0xe4b9
	_ZN7android13VirtualKeyMapD1Ev	0xe4b9
	_ZN7android13VirtualKeyMap6ParserC2EPS0_PNS_9TokenizerE	0xdb69
	_ZN7android13VirtualKeyMap6ParserC1EPS0_PNS_9TokenizerE	0xdb69
	_ZN7android13VirtualKeyMap6ParserD2Ev	0xa4a9
	_ZN7android13VirtualKeyMap6ParserD1Ev	0xa4a9
	_ZN7android13VirtualKeyMap6Parser38consumeFieldDelimiterAndSkipWhitespaceEv	0xe4c5
	_ZN7android13VirtualKeyMap6Parser17parseNextIntFieldEPi	0xe501
	_ZN7android13VirtualKeyMap6Parser5parseEv	0xe569
	_ZN7android13VirtualKeyMap4loadERKNS_7String8EPPS0_	0xe6d1
	_ZNK7android6VectorINS_13InputConsumer8SeqChainEE12do_constructEPvj	0xa4a9
	_ZNK7android6VectorINS_13InputConsumer8SeqChainEE10do_destroyEPvj	0xa4a9
	_ZNK7android6VectorINS_13InputConsumer10TouchStateEE10do_destroyEPvj	0xa4a9
	_ZNK7android6VectorINS_13InputConsumer8SeqChainEE7do_copyEPvPKvj	0xa571
	_ZNK7android6VectorINS_13InputConsumer8SeqChainEE8do_splatEPvPKvj	0xa58d
	_ZNK7android6VectorINS_13InputConsumer8SeqChainEE15do_move_forwardEPvPKvj	0xa5a5
	_ZNK7android6VectorINS_13InputConsumer8SeqChainEE16do_move_backwardEPvPKvj	0xa571
	_ZNK7android6VectorINS_13InputConsumer10TouchStateEE7do_copyEPvPKvj	0xe765
	_ZNK7android6VectorINS_13InputConsumer10TouchStateEE8do_splatEPvPKvj	0xe789
	_ZNK7android6VectorINS_13InputConsumer10TouchStateEE15do_move_forwardEPvPKvj	0xe7ab
	_ZNK7android6VectorINS_13InputConsumer10TouchStateEE16do_move_backwardEPvPKvj	0xe765
	_ZNK7android6VectorINS_12InputMessageEE12do_constructEPvj	0xa4a9
	_ZNK7android6VectorINS_12InputMessageEE10do_destroyEPvj	0xa4a9
	_ZNK7android6VectorINS_12InputMessageEE7do_copyEPvPKvj	0xe7d5
	_ZNK7android6VectorINS_12InputMessageEE8do_splatEPvPKvj	0xe7f9
	_ZNK7android6VectorINS_12InputMessageEE15do_move_forwardEPvPKvj	0xe81b
	_ZNK7android6VectorINS_12InputMessageEE16do_move_backwardEPvPKvj	0xe7d5
	_ZN7android12InputChannelD2Ev	0xe935
	_ZN7android12InputChannelD1Ev	0xe935
	_ZN7android12InputChannelD0Ev	0xe95d
	_ZNK7android6VectorINS_13InputConsumer5BatchEE10do_destroyEPvj	0xe96f
	_ZNK7android6VectorINS_13InputConsumer10TouchStateEE12do_constructEPvj	0xe987
	_ZNK7android12InputMessage4sizeEv	0xea23
	_ZNK7android12InputMessage7isValidEj	0xea45
	_ZN7android12InputChannelC2ERKNS_7String8Ei	0xea79
	_ZN7android12InputChannelC1ERKNS_7String8Ei	0xea79
	_ZN7android12InputChannel11sendMessageEPKNS_12InputMessageE	0xead9
	_ZN7android12InputChannel14receiveMessageEPNS_12InputMessageE	0xeb3f
	_ZNK7android12InputChannel3dupEv	0xeba3
	_ZN7android14InputPublisherC2ERKNS_2spINS_12InputChannelEEE	0xd3c9
	_ZN7android14InputPublisherC1ERKNS_2spINS_12InputChannelEEE	0xd3c9
	_ZN7android14InputPublisher15publishKeyEventEjiiiiiiiixx	0xebed
	_ZN7android14InputPublisher18publishMotionEventEjiiiiiiiffffxxjPKNS_17PointerPropertiesEPKNS_13PointerCoordsE	0xec69
	_ZN7android14InputPublisher21receiveFinishedSignalEPjPb	0xed85
	_ZN7android13InputConsumer24isTouchResamplingEnabledEv	0xeded
	_ZN7android13InputConsumerC2ERKNS_2spINS_12InputChannelEEE	0xee61
	_ZN7android13InputConsumerC1ERKNS_2spINS_12InputChannelEEE	0xee61
	_ZN7android13InputConsumer14rewriteMessageERKNS0_10TouchStateEPNS_12InputMessageE	0xeee1
	_ZN7android13InputConsumer18shouldResampleToolEi	0xef5b
	_ZN7android13InputConsumer27sendUnchainedFinishedSignalEjb	0xef65
	_ZN7android13InputConsumer18sendFinishedSignalEjb	0xef85
	_ZNK7android13InputConsumer16hasDeferredEventEv	0xf08d
	_ZNK7android13InputConsumer15hasPendingBatchEv	0xf093
	_ZNK7android13InputConsumer9findBatchEii	0xf09f
	_ZNK7android13InputConsumer14findTouchStateEii	0xf0d1
	_ZN7android13InputConsumer18resampleTouchStateExPNS_11MotionEventEPKNS_12InputMessageE	0xf109
	_ZN7android13InputConsumer16updateTouchStateEPNS_12InputMessageE	0xf3a9
	_ZN7android13InputConsumer18initializeKeyEventEPNS_8KeyEventEPKNS_12InputMessageE	0xf54d
	_ZN7android13InputConsumer21initializeMotionEventEPNS_11MotionEventEPKNS_12InputMessageE	0xf587
	_ZN7android13InputConsumer9addSampleEPNS_11MotionEventEPKNS_12InputMessageE	0xf643
	_ZN7android13InputConsumer14consumeSamplesEPNS_26InputEventFactoryInterfaceERNS0_5BatchEjPjPPNS_10InputEventE	0xf69b
	_ZN7android13InputConsumer12canAddSampleERKNS0_5BatchEPKNS_12InputMessageE	0xf713
	_ZN7android13InputConsumer21findSampleNoLaterThanERKNS0_5BatchEx	0xf757
	_ZN7android2spINS_12InputChannelEED2Ev	0xbe01
	_ZN7android2spINS_12InputChannelEED1Ev	0xbe01
	_ZN7android13InputConsumerD2Ev	0xf77f
	_ZN7android13InputConsumerD1Ev	0xf77f
	_ZN7android14InputPublisherD2Ev	0xf7a5
	_ZN7android14InputPublisherD1Ev	0xf7a5
	_ZN7android2spINS_12InputChannelEE5clearEv	0xd425
	_ZN7android2spINS_12InputChannelEEaSEPS1_	0xf7b1
	_ZN7android12InputChannel20openInputChannelPairERKNS_7String8ERNS_2spIS0_EES6_	0xf7d1
	_ZN7android13InputConsumer12consumeBatchEPNS_26InputEventFactoryInterfaceExPjPPNS_10InputEventE	0xf8e9
	_ZN7android13InputConsumer7consumeEPNS_26InputEventFactoryInterfaceEbxPjPPNS_10InputEventE	0xf9d1
	_ZNK7android6VectorINS_13InputConsumer5BatchEE16do_move_backwardEPvPKvj	0xfb5d
	_ZNK7android6VectorINS_13InputConsumer5BatchEE15do_move_forwardEPvPKvj	0xfb81
	_ZNK7android6VectorINS_13InputConsumer5BatchEE8do_splatEPvPKvj	0xfba9
	_ZNK7android6VectorINS_13InputConsumer5BatchEE7do_copyEPvPKvj	0xfbc5
	_ZNK7android6VectorINS_13InputConsumer5BatchEE12do_constructEPvj	0xfc0d
	_ZN7android15VelocityControl5resetEv	0xfc29
	_ZN7android15VelocityTracker5clearEv	0x10503
	_ZN7android15VelocityControl13setParametersERKNS_25VelocityControlParametersE	0xfc49
	_ZN7android15VelocityControlC2Ev	0xfc5d
	_ZN7android15VelocityTrackerC1EPKc	0x10f29
	_ZN7android15VelocityControlC1Ev	0xfc5d
	_ZN7android15VelocityControl4moveExPfS1_	0xfc91
	_ZN7android15VelocityTracker11addMovementExNS_8BitSet32EPKNS0_8PositionE	0x10559
	_ZNK7android15VelocityTracker11getVelocityEjPfS1_	0x10791
	_ZN7android35LeastSquaresVelocityTrackerStrategyD2Ev	0xfdd1
	_ZN7android35LeastSquaresVelocityTrackerStrategyD1Ev	0xfdd1
	_ZN7android35LeastSquaresVelocityTrackerStrategy5clearEv	0xfde9
	_ZN7android35LeastSquaresVelocityTrackerStrategy13clearPointersENS_8BitSet32E	0xfdf1
	_ZN7android34IntegratingVelocityTrackerStrategyD2Ev	0xfdd1
	_ZN7android34IntegratingVelocityTrackerStrategyD1Ev	0xfdd1
	_ZN7android34IntegratingVelocityTrackerStrategy5clearEv	0xfe03
	_ZN7android34IntegratingVelocityTrackerStrategy13clearPointersENS_8BitSet32E	0xfe09
	_ZN7android29LegacyVelocityTrackerStrategyD2Ev	0xfdd1
	_ZN7android29LegacyVelocityTrackerStrategyD1Ev	0xfdd1
	_ZN7android29LegacyVelocityTrackerStrategy5clearEv	0xfe13
	_ZN7android29LegacyVelocityTrackerStrategy13clearPointersENS_8BitSet32E	0xfe1b
	_ZN7android29LegacyVelocityTrackerStrategyD0Ev	0xfe2d
	_ZN7android34IntegratingVelocityTrackerStrategyD0Ev	0xfe2d
	_ZN7android35LeastSquaresVelocityTrackerStrategyD0Ev	0xfe2d
	_ZN7android29LegacyVelocityTrackerStrategy11addMovementExNS_8BitSet32EPKNS_15VelocityTracker8PositionE	0xfe4d
	_ZN7android35LeastSquaresVelocityTrackerStrategy11addMovementExNS_8BitSet32EPKNS_15VelocityTracker8PositionE	0xfe8f
	_ZNK7android29LegacyVelocityTrackerStrategy12getEstimatorEjPNS_15VelocityTracker9EstimatorE	0x102d1
	_ZN7android15VelocityTrackerD2Ev	0x104f1
	_ZN7android15VelocityTrackerD1Ev	0x104f1
	_ZN7android15VelocityTracker13clearPointersENS_8BitSet32E	0x10519
	_ZN7android15VelocityTracker11addMovementEPKNS_11MotionEventE	0x10609
	_ZNK7android15VelocityTracker12getEstimatorEjPNS0_9EstimatorE	0x10785
	_ZN7android35LeastSquaresVelocityTrackerStrategyC2EjNS0_9WeightingE	0x107d1
	_ZN7android35LeastSquaresVelocityTrackerStrategyC1EjNS0_9WeightingE	0x107d1
	_ZNK7android35LeastSquaresVelocityTrackerStrategy12chooseWeightEj	0x10801
	_ZNK7android35LeastSquaresVelocityTrackerStrategy12getEstimatorEjPNS_15VelocityTracker9EstimatorE	0x10971
	_ZN7android34IntegratingVelocityTrackerStrategyC2Ej	0x10b09
	_ZN7android34IntegratingVelocityTrackerStrategyC1Ej	0x10b09
	_ZNK7android34IntegratingVelocityTrackerStrategy9initStateERNS0_5StateExff	0x10b1d
	_ZNK7android34IntegratingVelocityTrackerStrategy11updateStateERNS0_5StateExff	0x10b51
	_ZN7android34IntegratingVelocityTrackerStrategy11addMovementExNS_8BitSet32EPKNS_15VelocityTracker8PositionE	0x10c79
	_ZNK7android34IntegratingVelocityTrackerStrategy17populateEstimatorERKNS0_5StateEPNS_15VelocityTracker9EstimatorE	0x10d15
	_ZNK7android34IntegratingVelocityTrackerStrategy12getEstimatorEjPNS_15VelocityTracker9EstimatorE	0x10d69
	_ZN7android29LegacyVelocityTrackerStrategyC2Ev	0x10d9d
	_ZN7android29LegacyVelocityTrackerStrategyC1Ev	0x10d9d
	_ZN7android15VelocityTracker14createStrategyEPKc	0x10dc9
	_ZN7android15VelocityTracker17configureStrategyEPKc	0x10f15
	_ZN7android15VelocityTrackerC2EPKc	0x10f29
Module(name="libcamera_client.so", base_address=0x40399000, size=221184, path="/system/lib/libcamera_client.so")
	func_name	RVA
	_ZN7android11BnInterfaceINS_13ICameraClientEE10onAsBinderEv	0x1f0fd
	_ZN7android11BnInterfaceINS_21ICameraRecordingProxyEE10onAsBinderEv	0x1f0fd
	_ZN7android6Camera14notifyCallbackEiii	0x1f101
	_ZN7android10CameraBaseINS_6CameraENS_12CameraTraitsIS1_EEE14notifyCallbackEiii	0x28159
	_ZThn24_N7android6Camera14notifyCallbackEiii	0x1f105
	_ZNK7android13ICameraClient22getInterfaceDescriptorEv	0x22a25
	_ZNK7android21ICameraRecordingProxy22getInterfaceDescriptorEv	0x24105
	_ZN7android21ICameraRecordingProxyD2Ev	0x22335
	_ZN7android13ICameraClientD2Ev	0x22335
	_ZN7android13ICameraClientC2Ev	0x22211
	_ZN7android6CameraC2Ei	0x1f449
	_ZN7android10CameraBaseINS_6CameraENS_12CameraTraitsIS1_EEEC2Ei	0x27f6b
	_ZN7android6CameraC1Ei	0x1f47d
	_ZN7android6Camera7connectEiRKNS_8String16Ei	0x1f4d1
	_ZN7android10CameraBaseINS_6CameraENS_12CameraTraitsIS1_EEE7connectEiRKNS_8String16Ei	0x28371
	_ZN7android21ICameraRecordingProxyC2Ev	0x22211
	_ZN7android2spINS_29ICameraRecordingProxyListenerEED2Ev	0x1f553
	_ZN7android2spINS_29ICameraRecordingProxyListenerEED1Ev	0x1f553
	_ZN7android6CameraD1Ev	0x1f56d
	_ZN7android10CameraBaseINS_6CameraENS_12CameraTraitsIS1_EEED2Ev	0x28125
	_ZThn24_N7android6CameraD1Ev	0x1f5c1
	_ZThn28_N7android6CameraD1Ev	0x1f5c9
	_ZN7android6CameraD0Ev	0x1f5d1
	_ZThn24_N7android6CameraD0Ev	0x1f5e3
	_ZThn28_N7android6CameraD0Ev	0x1f5eb
	_ZN7android6CameraD2Ev	0x1f5f3
	_ZN7android2spINS_6CameraEED2Ev	0x1f553
	_ZN7android2spINS_6CameraEED1Ev	0x1f553
	_ZN7android2spINS_13ICameraClientEED2Ev	0x1f553
	_ZN7android2spINS_13ICameraClientEED1Ev	0x1f553
	_ZN7android6Camera6createERKNS_2spINS_7ICameraEEE	0x1f6b9
	_ZN7android2spINS_7ICameraEEC2ERKS2_	0x1f7fd
	_ZN7android2spINS_7ICameraEEC1ERKS2_	0x1f7fd
	_ZN7android2spINS_7ICameraEED2Ev	0x1f553
	_ZN7android2spINS_7ICameraEED1Ev	0x1f553
	_ZN7android6Camera24setPreviewCallbackTargetERKNS_2spINS_22IGraphicBufferProducerEEE	0x1f819
	_ZN7android6Camera23setPreviewCallbackFlagsEi	0x1f845
	_ZN7android6Camera11sendCommandEiii	0x1f86b
	_ZN7android6Camera13setParametersERKNS_7String8E	0x1f89f
	_ZN7android6Camera11takePictureEi	0x1f8cb
	_ZN7android6Camera15cancelAutoFocusEv	0x1f8f7
	_ZN7android6Camera9autoFocusEv	0x1f91f
	_ZN7android6Camera16recordingEnabledEv	0x1f947
	_ZN7android6Camera14previewEnabledEv	0x1f969
	_ZN7android6Camera21releaseRecordingFrameERKNS_2spINS_7IMemoryEEE	0x1f98b
	_ZN7android6Camera14RecordingProxy21releaseRecordingFrameERKNS_2spINS_7IMemoryEEE	0x1f9ad
	_ZN7android6Camera11stopPreviewEv	0x1f9b3
	_ZN7android6Camera14startRecordingEv	0x1f9d1
	_ZN7android6Camera22storeMetaDataInBuffersEb	0x1f9f9
	_ZN7android6Camera12startPreviewEv	0x1fa25
	_ZN7android6Camera6unlockEv	0x1fa4d
	_ZN7android6Camera4lockEv	0x1fa75
	_ZN7android6Camera9reconnectEv	0x1fa9d
	_ZN7android6Camera16setPreviewTargetERKNS_2spINS_22IGraphicBufferProducerEEE	0x1faf5
	_ZN7android6Camera13stopRecordingEv	0x1fb3d
	_ZN7android6Camera14RecordingProxy13stopRecordingEv	0x1fb83
	_ZNK7android6Camera13getParametersEv	0x1fb89
	_ZN7android2spINS_14CameraListenerEEaSERKS2_	0x1fbc3
	_ZN7android6Camera11setListenerERKNS_2spINS_14CameraListenerEEE	0x1fbf1
	_ZN7android2spINS_29ICameraRecordingProxyListenerEEaSERKS2_	0x1fbc3
	_ZN7android6Camera25setRecordingProxyListenerERKNS_2spINS_29ICameraRecordingProxyListenerEEE	0x1fc15
	_ZN7android6Camera14RecordingProxy14startRecordingERKNS_2spINS_29ICameraRecordingProxyListenerEEE	0x1fc39
	_ZN7android2spINS_14CameraListenerEED2Ev	0x1f553
	_ZN7android2spINS_14CameraListenerEED1Ev	0x1f553
	_ZN7android6Camera12dataCallbackEiRKNS_2spINS_7IMemoryEEEP21camera_frame_metadata	0x1fc53
	_ZThn24_N7android6Camera12dataCallbackEiRKNS_2spINS_7IMemoryEEEP21camera_frame_metadata	0x1fc91
	_ZN7android6Camera21dataCallbackTimestampExiRKNS_2spINS_7IMemoryEEE	0x1fc99
	_ZThn24_N7android6Camera21dataCallbackTimestampExiRKNS_2spINS_7IMemoryEEE	0x1fd39
	_ZN7android2spINS_6CameraEEaSERKS2_	0x1fbc3
	_ZN7android6Camera14RecordingProxyC1ERKNS_2spIS0_EE	0x1fd41
	_ZN7android6Camera17getRecordingProxyEv	0x1fd89
	_ZN7android6Camera14RecordingProxyC2ERKNS_2spIS0_EE	0x1fdcd
	_ZTv0_n12_N7android6CameraD0Ev	0x1fdfd
	_ZTv0_n12_N7android6CameraD1Ev	0x1fe09
	_ZN7android13ICameraClientD1Ev	0x22a31
	_ZN7android13ICameraClientD0Ev	0x22a65
	_ZTv0_n12_N7android13ICameraClientD1Ev	0x22f4d
	_ZTv0_n12_N7android13ICameraClientD0Ev	0x22f41
	_ZN7android21ICameraRecordingProxyD1Ev	0x24111
	_ZN7android21ICameraRecordingProxyD0Ev	0x24145
	_ZTv0_n12_N7android21ICameraRecordingProxyD1Ev	0x24581
	_ZTv0_n12_N7android21ICameraRecordingProxyD0Ev	0x24575
	_ZN7android22BnCameraRecordingProxy10onTransactEjRKNS_6ParcelEPS1_j	0x24471
	_ZThn4_N7android22BnCameraRecordingProxy10onTransactEjRKNS_6ParcelEPS1_j	0x2452f
	_ZN7android10CameraBaseINS_6CameraENS_12CameraTraitsIS1_EEE10binderDiedERKNS_2wpINS_7IBinderEEE	0x27e2d
	_ZN7android10CameraBaseINS_6CameraENS_12CameraTraitsIS1_EEED1Ev	0x285d9
	_ZN7android10CameraBaseINS_6CameraENS_12CameraTraitsIS1_EEED0Ev	0x28635
	_ZN7android10CameraBaseINS_6CameraENS_12CameraTraitsIS1_EEE10disconnectEv	0x2803d
	_ZTv0_n12_N7android10CameraBaseINS_6CameraENS_12CameraTraitsIS1_EEED1Ev	0x28629
	_ZTv0_n12_N7android10CameraBaseINS_6CameraENS_12CameraTraitsIS1_EEED0Ev	0x28647
	_ZN7android14BnCameraClient10onTransactEjRKNS_6ParcelEPS1_j	0x22ddd
	_ZThn4_N7android14BnCameraClient10onTransactEjRKNS_6ParcelEPS1_j	0x22efb
	_ZN7android14CameraMetadataC2Ev	0x1fe15
	_ZN7android14CameraMetadataC1Ev	0x1fe15
	_ZN7android14CameraMetadataC2Ejj	0x1fe1d
	_ZN7android14CameraMetadataC1Ejj	0x1fe1d
	_ZN7android14CameraMetadataC2ERKS0_	0x1fe33
	_ZN7android14CameraMetadataC1ERKS0_	0x1fe33
	_ZN7android14CameraMetadata10getAndLockEv	0x1fe47
	_ZN7android14CameraMetadata6unlockEPK15camera_metadata	0x1fe51
	_ZN7android14CameraMetadata7releaseEv	0x1fead
	_ZN7android14CameraMetadata5clearEv	0x1fedd
	_ZN7android14CameraMetadataD2Ev	0x1ff15
	_ZN7android14CameraMetadataD1Ev	0x1ff15
	_ZN7android14CameraMetadataaSEPK15camera_metadata	0x1ff25
	_ZN7android14CameraMetadataaSERKS0_	0x1ff69
	_ZN7android14CameraMetadata7acquireEP15camera_metadata	0x1ff71
	_ZN7android14CameraMetadataC2EP15camera_metadata	0x1ffd5
	_ZN7android14CameraMetadataC1EP15camera_metadata	0x1ffd5
	_ZN7android14CameraMetadata7acquireERS0_	0x1ffe9
	_ZNK7android14CameraMetadata10entryCountEv	0x20025
	_ZNK7android14CameraMetadata7isEmptyEv	0x2002f
	_ZN7android14CameraMetadata4sortEv	0x20041
	_ZN7android14CameraMetadata9checkTypeEjh	0x20075
	_ZNK7android14CameraMetadata6existsEj	0x200f1
	_ZN7android14CameraMetadata4findEj	0x20109
	_ZNK7android14CameraMetadata4findEj	0x20149
	_ZN7android14CameraMetadata5eraseEj	0x20165
	_ZNK7android14CameraMetadata4dumpEiii	0x20239
	_ZN7android14CameraMetadata14resizeIfNeededEjj	0x20241
	_ZN7android14CameraMetadata10updateImplEjPKvj	0x202e9
	_ZN7android14CameraMetadata6updateEjRKNS_7String8E	0x203dd
	_ZN7android14CameraMetadata6updateEjPK24camera_metadata_rationalj	0x20431
	_ZN7android14CameraMetadata6updateEjPKdj	0x20485
	_ZN7android14CameraMetadata6updateEjPKxj	0x204d9
	_ZN7android14CameraMetadata6updateEjPKfj	0x2052d
	_ZN7android14CameraMetadata6updateEjPKhj	0x20581
	_ZN7android14CameraMetadata6updateEjPKij	0x205d1
	_ZN7android14CameraMetadata6appendEPK15camera_metadata	0x20625
	_ZN7android14CameraMetadata6appendERKS0_	0x20679
	_ZN7android14CameraMetadata14readFromParcelERKNS_6ParcelEPP15camera_metadata	0x20681
	_ZN7android14CameraMetadata13writeToParcelERNS_6ParcelEPK15camera_metadata	0x20749
	_ZN7android14CameraMetadata14readFromParcelEPNS_6ParcelE	0x207c9
	_ZNK7android14CameraMetadata13writeToParcelEPNS_6ParcelE	0x2085d
	_ZN7android14CameraMetadata4swapERS0_	0x20895
	_ZNK7android12SortedVectorINS_16key_value_pair_tINS_7String8ES2_EEE15do_move_forwardEPvPKvj	0x208e1
	_ZNK7android12SortedVectorINS_16key_value_pair_tINS_7String8ES2_EEE16do_move_backwardEPvPKvj	0x208e1
	_ZNK7android12SortedVectorINS_16key_value_pair_tINS_7String8ES2_EEE12do_constructEPvj	0x209f5
	_ZNK7android12SortedVectorINS_16key_value_pair_tINS_7String8ES2_EEE10do_compareEPKvS6_	0x20a17
	_ZN7android16CameraParametersD2Ev	0x20a37
	_ZN7android16CameraParametersD1Ev	0x20a37
	_ZNK7android16CameraParameters7flattenEv	0x20a4d
	_ZNK7android16CameraParameters4dumpEv	0x20ae1
	_ZNK7android16CameraParameters4dumpEiRKNS_6VectorINS_8String16EEE	0x20b61
	_ZN7android16CameraParameters3setEPKcS2_	0x20c41
	_ZN7android16CameraParameters16setPictureFormatEPKc	0x20cb9
	_ZN7android16CameraParameters14setPictureSizeEii	0x20cc9
	_ZN7android16CameraParameters16setPreviewFormatEPKc	0x20d19
	_ZN7android16CameraParameters12setVideoSizeEii	0x20d29
	_ZN7android16CameraParameters14setPreviewSizeEii	0x20d79
	_ZN7android16CameraParameters8setFloatEPKcf	0x20dc9
	_ZN7android16CameraParameters3setEPKci	0x20e1d
	_ZN7android16CameraParameters19setPreviewFrameRateEi	0x20e69
	_ZN7android16CameraParameters6removeEPKc	0x20e79
	_ZNK7android16CameraParameters3getEPKc	0x20ea7
	_ZNK7android16CameraParameters16getPictureFormatEv	0x20f09
	_ZNK7android16CameraParameters24getSupportedPictureSizesERNS_6VectorINS_4SizeEEE	0x20f15
	_ZNK7android16CameraParameters14getPictureSizeEPiS1_	0x20f31
	_ZNK7android16CameraParameters16getPreviewFormatEv	0x20f5d
	_ZNK7android16CameraParameters18getPreviewFpsRangeEPiS1_	0x20f69
	_ZNK7android16CameraParameters22getSupportedVideoSizesERNS_6VectorINS_4SizeEEE	0x20f95
	_ZNK7android16CameraParameters12getVideoSizeEPiS1_	0x20fb1
	_ZNK7android16CameraParameters24getSupportedPreviewSizesERNS_6VectorINS_4SizeEEE	0x20fdd
	_ZNK7android16CameraParameters31getPreferredPreviewSizeForVideoEPiS1_	0x20ff9
	_ZNK7android16CameraParameters14getPreviewSizeEPiS1_	0x21025
	_ZNK7android16CameraParameters8getFloatEPKc	0x21051
	_ZNK7android16CameraParameters6getIntEPKc	0x21073
	_ZNK7android16CameraParameters19getPreviewFrameRateEv	0x2108d
	_ZNK7android12SortedVectorINS_16key_value_pair_tINS_7String8ES2_EEE10do_destroyEPvj	0x21099
	_ZN7android16CameraParameters9unflattenERKNS_7String8E	0x210d9
	_ZN7android16CameraParametersC2Ev	0x2116d
	_ZN7android16CameraParametersC1Ev	0x2116d
	_ZNK7android12SortedVectorINS_16key_value_pair_tINS_7String8ES2_EEE8do_splatEPvPKvj	0x211a7
	_ZNK7android12SortedVectorINS_16key_value_pair_tINS_7String8ES2_EEE7do_copyEPvPKvj	0x211c3
	_ZNK7android6VectorINS_17CameraParameters218OrderedKeyedVectorINS_7String8ES3_E4PairEE12do_constructEPvj	0x209f5
	_ZN7android17CameraParameters2D2Ev	0x212e9
	_ZN7android17CameraParameters2D1Ev	0x212e9
	_ZNK7android17CameraParameters27flattenEv	0x212f5
	_ZNK7android17CameraParameters24dumpEv	0x21389
	_ZNK7android17CameraParameters24dumpEiRKNS_6VectorINS_8String16EEE	0x21409
	_ZN7android17CameraParameters2C2Ev	0x214f9
	_ZN7android17CameraParameters2C1Ev	0x214f9
	_ZNK7android6VectorINS_17CameraParameters218OrderedKeyedVectorINS_7String8ES3_E4PairEE10do_destroyEPvj	0x21099
	_ZN7android17CameraParameters29unflattenERKNS_7String8E	0x21537
	_ZNK7android17CameraParameters215compareSetOrderEPKcS2_Pi	0x215d1
	_ZNK7android17CameraParameters23getEPKc	0x216d9
	_ZNK7android17CameraParameters216getPictureFormatEv	0x21705
	_ZNK7android17CameraParameters224getSupportedPictureSizesERNS_6VectorINS_4SizeEEE	0x21719
	_ZNK7android17CameraParameters214getPictureSizeEPiS1_	0x2173d
	_ZNK7android17CameraParameters216getPreviewFormatEv	0x21771
	_ZNK7android17CameraParameters218getPreviewFpsRangeEPiS1_	0x21785
	_ZNK7android17CameraParameters222getSupportedVideoSizesERNS_6VectorINS_4SizeEEE	0x217b9
	_ZNK7android17CameraParameters212getVideoSizeEPiS1_	0x217dd
	_ZNK7android17CameraParameters224getSupportedPreviewSizesERNS_6VectorINS_4SizeEEE	0x21811
	_ZNK7android17CameraParameters231getPreferredPreviewSizeForVideoEPiS1_	0x21835
	_ZNK7android17CameraParameters214getPreviewSizeEPiS1_	0x21869
	_ZNK7android17CameraParameters28getFloatEPKc	0x2189d
	_ZNK7android17CameraParameters26getIntEPKc	0x218bf
	_ZNK7android17CameraParameters219getPreviewFrameRateEv	0x218d9
	_ZN7android17CameraParameters26removeEPKc	0x21903
	_ZN7android17CameraParameters23setEPKcS2_	0x2191d
	_ZN7android17CameraParameters216setPictureFormatEPKc	0x219a9
	_ZN7android17CameraParameters214setPictureSizeEii	0x219c1
	_ZN7android17CameraParameters216setPreviewFormatEPKc	0x21a11
	_ZN7android17CameraParameters218setPreviewFpsRangeEii	0x21a29
	_ZN7android17CameraParameters212setVideoSizeEii	0x21a61
	_ZN7android17CameraParameters214setPreviewSizeEii	0x21ab1
	_ZN7android17CameraParameters28setFloatEPKcf	0x21b01
	_ZN7android17CameraParameters23setEPKci	0x21b55
	_ZN7android17CameraParameters219setPreviewFrameRateEi	0x21ba1
	_ZNK7android6VectorINS_17CameraParameters218OrderedKeyedVectorINS_7String8ES3_E4PairEE7do_copyEPvPKvj	0x211c3
	_ZNK7android6VectorINS_17CameraParameters218OrderedKeyedVectorINS_7String8ES3_E4PairEE8do_splatEPvPKvj	0x211a7
	_ZNK7android6VectorINS_17CameraParameters218OrderedKeyedVectorINS_7String8ES3_E4PairEE15do_move_forwardEPvPKvj	0x21bb9
	_ZNK7android6VectorINS_17CameraParameters218OrderedKeyedVectorINS_7String8ES3_E4PairEE16do_move_backwardEPvPKvj	0x21bdf
	_ZNK7android7ICamera22getInterfaceDescriptorEv	0x21c05
	_ZN7android11BnInterfaceINS_7ICameraEE10onAsBinderEv	0x1f0fd
	_ZN7android7ICameraD1Ev	0x21c29
	_ZN7android7ICameraD0Ev	0x21c5d
	_ZN7android7ICameraC2Ev	0x22211
	_ZN7android7ICamera11asInterfaceERKNS_2spINS_7IBinderEEE	0x2222d
	_ZN7android7ICameraC1Ev	0x22305
	_ZN7android7ICameraD2Ev	0x22335
	_ZN7android2spINS_22IGraphicBufferProducerEED2Ev	0x1f553
	_ZN7android2spINS_22IGraphicBufferProducerEED1Ev	0x1f553
	_ZN7android2spINS_7IBinderEED2Ev	0x1f553
	_ZN7android2spINS_7IBinderEED1Ev	0x1f553
	_ZN7android8BnCamera10onTransactEjRKNS_6ParcelEPS1_j	0x226e5
	_ZN7android13ICameraClient11asInterfaceERKNS_2spINS_7IBinderEEE	0x22ad9
	_ZThn4_N7android8BnCamera10onTransactEjRKNS_6ParcelEPS1_j	0x229c7
	_ZTv0_n12_N7android7ICameraD0Ev	0x22a0d
	_ZTv0_n12_N7android7ICameraD1Ev	0x22a19
	_ZN7android13ICameraClientC1Ev	0x22bb1
	_ZN7android2spINS_7IMemoryEED2Ev	0x1f553
	_ZN7android2spINS_7IMemoryEED1Ev	0x1f553
	_ZNK7android14ICameraService22getInterfaceDescriptorEv	0x22f59
	_ZN7android11BnInterfaceINS_14ICameraServiceEE10onAsBinderEv	0x1f0fd
	_ZN7android14ICameraServiceD1Ev	0x22f79
	_ZN7android14ICameraServiceD0Ev	0x22fad
	_ZN7android14ICameraServiceC2Ev	0x22211
	_ZN7android14ICameraService11asInterfaceERKNS_2spINS_7IBinderEEE	0x231ed
	_ZN7android14ICameraServiceC1Ev	0x232c5
	_ZN7android14ICameraServiceD2Ev	0x22335
	_ZN7android2spINS_14IProCameraUserEED2Ev	0x1f553
	_ZN7android2spINS_14IProCameraUserEED1Ev	0x1f553
	_ZN7android14IProCameraUser11asInterfaceERKNS_2spINS_7IBinderEEE	0x24eb1
	_ZN7android2spINS_17ICameraDeviceUserEED2Ev	0x1f553
	_ZN7android2spINS_17ICameraDeviceUserEED1Ev	0x1f553
	_ZN7android17ICameraDeviceUser11asInterfaceERKNS_2spINS_7IBinderEEE	0x26035
	_ZN7android2spINS_22ICameraServiceListenerEED2Ev	0x1f553
	_ZN7android2spINS_22ICameraServiceListenerEED1Ev	0x1f553
	_ZN7android15BnCameraService10onTransactEjRKNS_6ParcelEPS1_j	0x23889
	_ZN7android19IProCameraCallbacks11asInterfaceERKNS_2spINS_7IBinderEEE	0x257cd
	_ZN7android22ICameraDeviceCallbacks11asInterfaceERKNS_2spINS_7IBinderEEE	0x26a99
	_ZN7android22ICameraServiceListener11asInterfaceERKNS_2spINS_7IBinderEEE	0x23d9d
	_ZThn4_N7android15BnCameraService10onTransactEjRKNS_6ParcelEPS1_j	0x23bc9
	_ZTv0_n12_N7android14ICameraServiceD0Ev	0x23c0d
	_ZTv0_n12_N7android14ICameraServiceD1Ev	0x23c19
	_ZNK7android22ICameraServiceListener22getInterfaceDescriptorEv	0x23c25
	_ZN7android11BnInterfaceINS_22ICameraServiceListenerEE10onAsBinderEv	0x1f0fd
	_ZN7android22ICameraServiceListenerD1Ev	0x23c45
	_ZN7android22ICameraServiceListenerD0Ev	0x23c79
	_ZN7android23BnCameraServiceListener10onTransactEjRKNS_6ParcelEPS1_j	0x23ce9
	_ZThn4_N7android23BnCameraServiceListener10onTransactEjRKNS_6ParcelEPS1_j	0x23d41
	_ZN7android22ICameraServiceListenerC2Ev	0x22211
	_ZN7android22ICameraServiceListenerC1Ev	0x23e75
	_ZN7android22ICameraServiceListenerD2Ev	0x22335
	_ZTv0_n12_N7android22ICameraServiceListenerD0Ev	0x240ed
	_ZTv0_n12_N7android22ICameraServiceListenerD1Ev	0x240f9
	_ZN7android21ICameraRecordingProxy11asInterfaceERKNS_2spINS_7IBinderEEE	0x2419d
	_ZN7android21ICameraRecordingProxyC1Ev	0x24275
	_ZN7android29ICameraRecordingProxyListener11asInterfaceERKNS_2spINS_7IBinderEEE	0x24649
	_ZNK7android29ICameraRecordingProxyListener22getInterfaceDescriptorEv	0x2458d
	_ZN7android11BnInterfaceINS_29ICameraRecordingProxyListenerEE10onAsBinderEv	0x1f0fd
	_ZN7android29ICameraRecordingProxyListenerD1Ev	0x245ad
	_ZN7android29ICameraRecordingProxyListenerD0Ev	0x245e1
	_ZN7android29ICameraRecordingProxyListenerC2Ev	0x22211
	_ZN7android29ICameraRecordingProxyListenerC1Ev	0x24721
	_ZN7android29ICameraRecordingProxyListenerD2Ev	0x22335
	_ZN7android30BnCameraRecordingProxyListener10onTransactEjRKNS_6ParcelEPS1_j	0x249cd
	_ZThn4_N7android30BnCameraRecordingProxyListener10onTransactEjRKNS_6ParcelEPS1_j	0x24a4d
	_ZTv0_n12_N7android29ICameraRecordingProxyListenerD0Ev	0x24a91
	_ZTv0_n12_N7android29ICameraRecordingProxyListenerD1Ev	0x24a9d
	_ZNK7android14IProCameraUser22getInterfaceDescriptorEv	0x24aa9
	_ZN7android11BnInterfaceINS_14IProCameraUserEE10onAsBinderEv	0x1f0fd
	_ZN7android14IProCameraUserD1Ev	0x24ac9
	_ZN7android14IProCameraUserD0Ev	0x24afd
	_ZN7android14IProCameraUserC2Ev	0x22211
	_ZN7android14IProCameraUserC1Ev	0x24f89
	_ZN7android14IProCameraUserD2Ev	0x22335
	_ZN7android15BnProCameraUser10onTransactEjRKNS_6ParcelEPS1_j	0x252bd
	_ZThn4_N7android15BnProCameraUser10onTransactEjRKNS_6ParcelEPS1_j	0x254fb
	_ZTv0_n12_N7android14IProCameraUserD0Ev	0x25541
	_ZTv0_n12_N7android14IProCameraUserD1Ev	0x2554d
	_ZNK7android19IProCameraCallbacks22getInterfaceDescriptorEv	0x25559
	_ZN7android11BnInterfaceINS_19IProCameraCallbacksEE10onAsBinderEv	0x1f0fd
	_ZN7android20BnProCameraCallbacks10onTransactEjRKNS_6ParcelEPS1_j	0x25579
	_ZThn4_N7android20BnProCameraCallbacks10onTransactEjRKNS_6ParcelEPS1_j	0x25623
	_ZN7android19IProCameraCallbacksD1Ev	0x2562d
	_ZN7android19IProCameraCallbacksD0Ev	0x25661
	_ZN7android19IProCameraCallbacksC2Ev	0x22211
	_ZN7android19IProCameraCallbacksC1Ev	0x258a5
	_ZN7android19IProCameraCallbacksD2Ev	0x22335
	_ZTv0_n12_N7android19IProCameraCallbacksD0Ev	0x25b1d
	_ZTv0_n12_N7android19IProCameraCallbacksD1Ev	0x25b29
	_ZNK7android17ICameraDeviceUser22getInterfaceDescriptorEv	0x25b35
	_ZN7android11BnInterfaceINS_17ICameraDeviceUserEE10onAsBinderEv	0x1f0fd
	_ZNK7android6VectorINS_2spINS_7SurfaceEEEE12do_constructEPvj	0x25b55
	_ZN7android17ICameraDeviceUserD1Ev	0x25c19
	_ZN7android17ICameraDeviceUserD0Ev	0x25c4d
	_ZNK7android14CaptureRequest13writeToParcelEPNS_6ParcelE	0x26f41
	_ZNK7android6VectorINS_2spINS_7SurfaceEEEE8do_splatEPvPKvj	0x25f81
	_ZNK7android6VectorINS_2spINS_7SurfaceEEEE10do_destroyEPvj	0x25fa1
	_ZNK7android6VectorINS_2spINS_7SurfaceEEEE7do_copyEPvPKvj	0x25fbd
	_ZN7android17ICameraDeviceUserC2Ev	0x22211
	_ZN7android17ICameraDeviceUserC1Ev	0x2610d
	_ZN7android17ICameraDeviceUserD2Ev	0x22335
	_ZN7android2spINS_14CaptureRequestEED2Ev	0x1f553
	_ZN7android2spINS_14CaptureRequestEED1Ev	0x1f553
	_ZN7android18BnCameraDeviceUser10onTransactEjRKNS_6ParcelEPS1_j	0x263f5
	_ZN7android14CaptureRequest14readFromParcelEPNS_6ParcelE	0x26e15
	_ZThn4_N7android18BnCameraDeviceUser10onTransactEjRKNS_6ParcelEPS1_j	0x266f1
	_ZNK7android6VectorINS_2spINS_7SurfaceEEEE16do_move_backwardEPvPKvj	0x2672d
	_ZNK7android6VectorINS_2spINS_7SurfaceEEEE15do_move_forwardEPvPKvj	0x2672d
	_ZTv0_n12_N7android17ICameraDeviceUserD0Ev	0x26775
	_ZTv0_n12_N7android17ICameraDeviceUserD1Ev	0x26781
	_ZNK7android22ICameraDeviceCallbacks22getInterfaceDescriptorEv	0x2678d
	_ZN7android11BnInterfaceINS_22ICameraDeviceCallbacksEE10onAsBinderEv	0x1f0fd
	_ZN7android23BnCameraDeviceCallbacks10onTransactEjRKNS_6ParcelEPS1_j	0x267ad
	_ZThn4_N7android23BnCameraDeviceCallbacks10onTransactEjRKNS_6ParcelEPS1_j	0x26899
	_ZN7android22ICameraDeviceCallbacksD1Ev	0x268a1
	_ZN7android22ICameraDeviceCallbacksD0Ev	0x268d5
	_ZN7android22ICameraDeviceCallbacksC2Ev	0x22211
	_ZN7android22ICameraDeviceCallbacksC1Ev	0x26b71
	_ZN7android22ICameraDeviceCallbacksD2Ev	0x22335
	_ZTv0_n12_N7android22ICameraDeviceCallbacksD0Ev	0x26de9
	_ZTv0_n12_N7android22ICameraDeviceCallbacksD1Ev	0x26df5
	_ZN7android2spINS_7SurfaceEED2Ev	0x26e01
	_ZN7android2spINS_7SurfaceEED1Ev	0x26e01
	_ZN7android9ProCamera14notifyCallbackEiii	0x1f101
	_ZN7android10CameraBaseINS_9ProCameraENS_12CameraTraitsIS1_EEE14notifyCallbackEiii	0x28159
	_ZThn24_N7android9ProCamera14notifyCallbackEiii	0x1f105
	_ZNK7android12SortedVectorINS_16key_value_pair_tIiNS_9ProCamera10StreamInfoEEEE12do_constructEPvj	0x270db
	_ZNK7android12SortedVectorINS_16key_value_pair_tIiNS_9ProCamera10StreamInfoEEEE10do_compareEPKvS7_	0x2710f
	_ZN7android9ProCamera7connectEi	0x27199
	_ZN7android10CameraBaseINS_9ProCameraENS_12CameraTraitsIS1_EEE7connectEiRKNS_8String16Ei	0x284a5
	_ZN7android9ProCameraD1Ev	0x271bd
	_ZN7android10CameraBaseINS_9ProCameraENS_12CameraTraitsIS1_EEED2Ev	0x28125
	_ZThn24_N7android9ProCameraD1Ev	0x27229
	_ZThn28_N7android9ProCameraD1Ev	0x27231
	_ZN7android9ProCameraD0Ev	0x27239
	_ZThn24_N7android9ProCameraD0Ev	0x2724b
	_ZThn28_N7android9ProCameraD0Ev	0x27253
	_ZN7android9ProCameraD2Ev	0x2725b
	_ZN7android9ProCamera20waitForFrameMetadataEv	0x272ad
	_ZN7android9ProCamera20consumeFrameMetadataEv	0x27321
	_ZN7android2spINS_11CpuConsumerEED2Ev	0x1f553
	_ZN7android2spINS_11CpuConsumerEED1Ev	0x1f553
	_ZN7android2spINS_9ProCamera16ProFrameListenerEED2Ev	0x1f553
	_ZN7android2spINS_9ProCamera16ProFrameListenerEED1Ev	0x1f553
	_ZN7android2spINS_17ProCameraListenerEED2Ev	0x1f553
	_ZN7android2spINS_17ProCameraListenerEED1Ev	0x1f553
	_ZN7android2spINS_17ProCameraListenerEEaSERKS2_	0x1fbc3
	_ZN7android9ProCamera16onResultReceivedEiP15camera_metadata	0x2736f
	_ZThn24_N7android9ProCamera16onResultReceivedEiP15camera_metadata	0x273f1
	_ZN7android9ProCamera19onLockStatusChangedENS_19IProCameraCallbacks10LockStatusE	0x273f9
	_ZThn24_N7android9ProCamera19onLockStatusChangedENS_19IProCameraCallbacks10LockStatusE	0x27469
	_ZN7android2spINS_14IProCameraUserEEC2ERKS2_	0x1f7fd
	_ZN7android2spINS_14IProCameraUserEEC1ERKS2_	0x1f7fd
	_ZNK7android9ProCamera20createDefaultRequestEiPP15camera_metadata	0x27471
	_ZN7android9ProCamera13getCameraInfoEi	0x274a1
	_ZN7android9ProCamera13cancelRequestEi	0x274f9
	_ZN7android9ProCamera13submitRequestEPK15camera_metadatab	0x27525
	_ZN7android9ProCamera16hasExclusiveLockEv	0x27555
	_ZN7android9ProCamera15exclusiveUnlockEv	0x2757b
	_ZN7android9ProCamera13exclusiveLockEv	0x1fa4d
	_ZN7android9ProCamera16exclusiveTryLockEv	0x1fa75
	_ZN7android9ProCamera12deleteStreamEi	0x275b1
	_ZN7android9ProCamera13getStreamInfoEi	0x27609
	_ZN7android9ProCamera15dropFrameBufferEii	0x2766d
	_ZN7android9ProCamera18waitForFrameBufferEi	0x276cd
	_ZN7android9ProCamera16onFrameAvailableEi	0x27755
	_ZNK7android12SortedVectorINS_16key_value_pair_tIiNS_9ProCamera10StreamInfoEEEE10do_destroyEPvj	0x277f9
	_ZN7android2spINS_11CpuConsumerEEaSERKS2_	0x1fbc3
	_ZN7android9ProCameraC1Ei	0x27835
	_ZN7android10CameraBaseINS_9ProCameraENS_12CameraTraitsIS1_EEEC2Ei	0x27f6b
	_ZN7android9ProCameraC2Ei	0x278a9
	_ZN7android9ProCamera12createStreamEiiiRKNS_2spINS_22IGraphicBufferProducerEEEPi	0x27951
	_ZN7android9ProCamera12createStreamEiiiRKNS_2spINS_7SurfaceEEEPi	0x279d7
	_ZN7android9ProCamera15createStreamCpuEiiiibPNS_2spINS_11CpuConsumerEEEPi	0x27a21
	_ZN7android9ProCamera15createStreamCpuEiiiiPNS_2spINS_11CpuConsumerEEEPi	0x27d55
	_ZNK7android12SortedVectorINS_16key_value_pair_tIiNS_9ProCamera10StreamInfoEEEE16do_move_backwardEPvPKvj	0x27d83
	_ZNK7android12SortedVectorINS_16key_value_pair_tIiNS_9ProCamera10StreamInfoEEEE15do_move_forwardEPvPKvj	0x27da7
	_ZNK7android12SortedVectorINS_16key_value_pair_tIiNS_9ProCamera10StreamInfoEEEE8do_splatEPvPKvj	0x27dcd
	_ZNK7android12SortedVectorINS_16key_value_pair_tIiNS_9ProCamera10StreamInfoEEEE7do_copyEPvPKvj	0x27de9
	_ZTv0_n12_N7android9ProCameraD0Ev	0x27e07
	_ZTv0_n12_N7android9ProCameraD1Ev	0x27e13
	_ZN7android10CameraBaseINS_9ProCameraENS_12CameraTraitsIS1_EEE10binderDiedERKNS_2wpINS_7IBinderEEE	0x27e2d
	_ZN7android10CameraBaseINS_9ProCameraENS_12CameraTraitsIS1_EEE10disconnectEv	0x2803d
	_ZN7android10CameraBaseINS_9ProCameraENS_12CameraTraitsIS1_EEED1Ev	0x280ad
	_ZN7android10CameraBaseINS_9ProCameraENS_12CameraTraitsIS1_EEED0Ev	0x28109
	_ZTv0_n12_N7android10CameraBaseINS_9ProCameraENS_12CameraTraitsIS1_EEED1Ev	0x280fd
	_ZTv0_n12_N7android10CameraBaseINS_9ProCameraENS_12CameraTraitsIS1_EEED0Ev	0x2811b
	_ZN7android2spINS_14ICameraServiceEED2Ev	0x1f553
	_ZN7android2spINS_14ICameraServiceEED1Ev	0x1f553
	_ZN7android10CameraBaseINS_9ProCameraENS_12CameraTraitsIS1_EEE6remoteEv	0x27f4b
	_ZN7android10CameraBaseINS_9ProCameraENS_12CameraTraitsIS1_EEE9getStatusEv	0x27f67
	_ZN7android10CameraBaseINS_9ProCameraENS_12CameraTraitsIS1_EEEC1Ei	0x27f9d
	_ZN7android10CameraBaseINS_6CameraENS_12CameraTraitsIS1_EEE6remoteEv	0x27f4b
	_ZN7android10CameraBaseINS_6CameraENS_12CameraTraitsIS1_EEE9getStatusEv	0x27f67
	_ZN7android10CameraBaseINS_6CameraENS_12CameraTraitsIS1_EEEC1Ei	0x27fed
	_ZN7android2spINS_7IBinder14DeathRecipientEED2Ev	0x1f553
	_ZN7android2spINS_7IBinder14DeathRecipientEED1Ev	0x1f553
	_ZN7android10CameraBaseINS_9ProCameraENS_12CameraTraitsIS1_EEE11setListenerERKNS_2spINS_17ProCameraListenerEEE	0x1fbf1
	_ZN7android2spINS_14ICameraServiceEEC2ERKS2_	0x1f7fd
	_ZN7android2spINS_14ICameraServiceEEC1ERKS2_	0x1f7fd
	_ZN7android2spINS_15IServiceManagerEED2Ev	0x1f553
	_ZN7android2spINS_15IServiceManagerEED1Ev	0x1f553
	_ZN7android2spINS_7IBinderEEaSERKS2_	0x1fbc3
	_ZN7android2spINS_14ICameraServiceEEaSERKS2_	0x1fbc3
	_ZN7android10CameraBaseINS_6CameraENS_12CameraTraitsIS1_EEE16getCameraServiceEv	0x28199
	_ZN7android10CameraBaseINS_6CameraENS_12CameraTraitsIS1_EEE21removeServiceListenerERKNS_2spINS_22ICameraServiceListenerEEE	0x282f5
	_ZN7android10CameraBaseINS_6CameraENS_12CameraTraitsIS1_EEE18addServiceListenerERKNS_2spINS_22ICameraServiceListenerEEE	0x28311
	_ZN7android10CameraBaseINS_6CameraENS_12CameraTraitsIS1_EEE13getCameraInfoEiPNS_10CameraInfoE	0x2832d
	_ZN7android10CameraBaseINS_6CameraENS_12CameraTraitsIS1_EEE18getNumberOfCamerasEv	0x2834d
	_ZN7android10CameraBaseINS_9ProCameraENS_12CameraTraitsIS1_EEE16getCameraServiceEv	0x28199
	_ZN7android10CameraBaseINS_9ProCameraENS_12CameraTraitsIS1_EEE21removeServiceListenerERKNS_2spINS_22ICameraServiceListenerEEE	0x282f5
	_ZN7android10CameraBaseINS_9ProCameraENS_12CameraTraitsIS1_EEE18addServiceListenerERKNS_2spINS_22ICameraServiceListenerEEE	0x28311
	_ZN7android10CameraBaseINS_9ProCameraENS_12CameraTraitsIS1_EEE13getCameraInfoEiPNS_10CameraInfoE	0x2832d
	_ZN7android10CameraBaseINS_9ProCameraENS_12CameraTraitsIS1_EEE18getNumberOfCamerasEv	0x2834d
	_ZN7android10CameraBaseINS_6CameraENS_12CameraTraitsIS1_EEE11setListenerERKNS_2spINS_14CameraListenerEEE	0x1fbf1
Module(name="libcamera_metadata.so", base_address=0x403cf000, size=28672, path="/system/lib/libcamera_metadata.so")
	func_name	RVA
	camera_metadata_enum_snprint	0x1469
	place_camera_metadata	0x2565
	allocate_camera_metadata	0x25ab
	free_camera_metadata	0x25cf
	calculate_camera_metadata_size	0x25d3
	get_camera_metadata_size	0x25db
	get_camera_metadata_compact_size	0x25e5
	get_camera_metadata_entry_count	0x25f7
	get_camera_metadata_entry_capacity	0x25fb
	get_camera_metadata_data_count	0x25ff
	get_camera_metadata_data_capacity	0x2603
	copy_camera_metadata	0x2607
	calculate_camera_metadata_entry_data_size	0x265d
	append_camera_metadata	0x2681
	clone_camera_metadata	0x2743
	sort_camera_metadata	0x276d
	get_camera_metadata_entry	0x27a1
	find_camera_metadata_entry	0x27f5
	find_camera_metadata_ro_entry	0x285d
	delete_camera_metadata_entry	0x2861
	update_camera_metadata_entry	0x2909
	set_camera_metadata_user_pointer	0x2a25
	get_camera_metadata_user_pointer	0x2a31
	get_camera_metadata_section_name	0x2a41
	get_camera_metadata_tag_name	0x2a75
	get_camera_metadata_tag_type	0x2ac1
	add_camera_metadata_entry	0x2b11
	validate_camera_metadata_structure	0x2c01
	allocate_copy_camera_metadata_checked	0x2ec9
	set_camera_metadata_vendor_tag_ops	0x2efd
	dump_indented_camera_metadata	0x2f0d
	dump_camera_metadata	0x324d
Module(name="libskia.so", base_address=0x403d6000, size=1929216, path="/system/lib/libskia.so")
	func_name	RVA
	arm_memset32	0x98514
	arm_memset16	0x984f0
	_ZNK4Sk649getClzAbsEv	0x98591
	_ZN4Sk649shiftLeftEj	0x985bd
	_ZNK4Sk6413getShiftRightEj	0x985f1
	_ZN4Sk6410shiftRightEj	0x98619
	_ZN4Sk6410roundRightEj	0x9867f
	_ZNK4Sk6413shiftToMake32Ev	0x98687
	_ZN4Sk646negateEv	0x986ab
	_ZN4Sk643absEv	0x986c1
	_ZNK4Sk647isFixedEv	0x986db
	_ZNK4Sk648getFractEv	0x986fb
	_ZN4Sk643subERKS_	0x9870f
	_ZN4Sk644rsubERKS_	0x9872d
	_ZN4Sk646setMulEii	0x9874b
	_ZN4Sk643divEiNS_10DivOptionsE	0x987a3
	_ZNK4Sk647getSqrtEv	0x98865
	_ZNK4Sk6411getLongLongEv	0x98895
	_ZNK4Sk6411getFixedDivERKS_	0x988a3
	_ZN12SkAnnotationD2Ev	0x989a1
	_ZN8SkStringD1Ev	0xd51d1
	_ZN12SkAnnotationD1Ev	0x989a1
	_ZN12SkAnnotationD0Ev	0x989d9
	_ZN12SkAnnotationC2EPKcP6SkData	0x989ed
	_ZN8SkStringC1EPKc	0xd5191
	_ZN6SkData8NewEmptyEv	0xae1c5
	_ZN12SkAnnotationC1EPKcP6SkData	0x989ed
	_ZN7SkPaint13setAnnotationEP12SkAnnotation	0xbe7b9
	_ZNK12SkAnnotation4findEPKc	0x98a49
	_ZNK8SkString6equalsEPKc	0xd520d
	_ZN12SkAnnotationC2ER23SkFlattenableReadBuffer	0x98a5d
	_ZN8SkStringC1Ev	0xd5175
	_Z15sk_malloc_throwj	0x11dc15
	_ZN6SkData13NewFromMallocEPKvj	0xae219
	_ZN12SkAnnotationC1ER23SkFlattenableReadBuffer	0x98a5d
	_ZNK12SkAnnotation13writeToBufferER24SkFlattenableWriteBuffer	0x98ab1
	_ZN16SkAnnotationKeys7URL_KeyEv	0x98ad5
	_ZN16SkAnnotationKeys21Define_Named_Dest_KeyEv	0x98ae1
	_ZN16SkAnnotationKeys19Link_Named_Dest_KeyEv	0x98aed
	_Z21SkAnnotateRectWithURLP8SkCanvasRK6SkRectP6SkData	0x98af9
	_ZN7SkPaintC1Ev	0xbe1ed
	_ZN7SkPaintD1Ev	0xbe2d9
	_Z26SkAnnotateNamedDestinationP8SkCanvasRK7SkPointP6SkData	0x98b31
	_ZN8SkCanvas9drawPointEffRK7SkPaint	0xa9c81
	_Z27SkAnnotateLinkToDestinationP8SkCanvasRK6SkRectP6SkData	0x98b69
	_ZN15SkAAClipBlitter17justAnOpaqueColorEPj	0x98baf
	_ZN9SkBlitterD2Ev	0xa44c9
	_Z6mergeTIjEvPKT_iPKhiPS0_	0x98c0f
	_Z8SkDebugfPKcz	0x11950d
	_Z8sk_throwv	0x11dbdd
	_Z6mergeTIhEvPKT_iPKhiPS0_	0x98cd9
	_Z6mergeTItEvPKT_iPKhiPS0_	0x98d3d
	_ZN15SkAAClipBlitterD2Ev	0x98dcd
	_Z7sk_freePv	0x11dbf5
	_ZN15SkAAClipBlitterD1Ev	0x98dcd
	_ZN15SkAAClipBlitterD0Ev	0x98dfd
	_ZN8SkAAClip4IterC2ERKS_	0x98ef5
	_ZN8SkAAClip4IterC1ERKS_	0x98ef5
	_ZN8SkAAClip4Iter4nextEv	0x98f3d
	_ZN8SkAAClip8freeRunsEv	0x98f7f
	_ZN8SkAAClipC2Ev	0x98f9b
	_ZN8SkAAClipC1Ev	0x98f9b
	_ZN8SkAAClipD2Ev	0x98fab
	_ZN8SkAAClipD1Ev	0x98fab
	_ZN8SkAAClipaSERKS_	0x98fb7
	_ZN8SkAAClipC2ERKS_	0x98fdb
	_ZN8SkAAClipC1ERKS_	0x98fdb
	_ZeqRK8SkAAClipS1_	0x98feb
	_ZN8SkAAClip4swapERS_	0x99039
	_ZN8SkAAClip3setERKS_	0x99061
	_ZN8SkAAClip8setEmptyEv	0x99073
	_ZN8SkAAClip13trimTopBottomEv	0x99087
	_ZN8SkAAClip13trimLeftRightEv	0x991a1
	_ZN8SkAAClip10trimBoundsEv	0x992dd
	_ZN8SkAAClip7setRectERK7SkIRect	0x99309
	_ZNK8SkAAClip7findRowEiPi	0x9938d
	_ZNK8SkAAClip5findXEPKhiPi	0x993c1
	_ZNK8SkAAClip13quickContainsEiiii	0x993db
	_ZN15SkAAClipBlitter8blitRectEiiii	0x9945f
	_ZN15SkAAClipBlitter5blitVEiiih	0x994ab
	_ZNK8SkAAClip9translateEiiPS_	0x9959d
	_ZNK8SkAAClip10copyToMaskEP6SkMask	0x995f5
	_ZNK6SkMask16computeImageSizeEv	0xb90b1
	_ZN6SkMask10AllocImageEj	0xb90d9
	_ZN15SkAAClipBlitter15ensureRunsAndAAEv	0x9968b
	_ZN15SkAAClipBlitter9blitAntiHEiiPKhPKs	0x996b1
	_ZN15SkAAClipBlitter5blitHEiii	0x99751
	_ZN15SkAAClipBlitter8blitMaskERK6SkMaskRK7SkIRect	0x997dd
	_Z15sk_malloc_flagsjj	0x11dbfd
	_ZNK6SkMask7getAddrEii	0xb90e9
	_Z16sk_realloc_throwPvj	0x11dbe3
	_ZN8SkAAClip9setRegionERK8SkRegion	0x99aed
	_ZN8SkRegion8IteratorC1ERKS_	0xcb8c1
	_ZN8SkRegion8Iterator4nextEv	0xcb8cd
	_ZN8SkAAClip2opERKS_S1_N8SkRegion2OpE	0x9a075
	_ZN7SkIRect4joinEiiii	0xca5af
	_ZN8SkAAClip2opERKS_N8SkRegion2OpE	0x9a42d
	_ZN8SkAAClip2opERK7SkIRectN8SkRegion2OpE	0x9a43f
	_ZN8SkAAClip7setPathERK6SkPathPK8SkRegionb	0x9a4fd
	_ZN6SkRect14setBoundsCheckEPK7SkPointi	0xca681
	_ZN8SkRegionC1Ev	0xcab2b
	_ZN8SkRegion7setRectERK7SkIRect	0xcac05
	_ZN6SkScan12AntiFillPathERK6SkPathRK8SkRegionP9SkBlitterb	0xd04d9
	_ZN6SkScan8FillPathERK6SkPathRK8SkRegionP9SkBlitter	0xd2ce9
	_ZN8SkRegionD1Ev	0xcab5d
	_ZN8SkAAClip7setRectERK6SkRectb	0x9a6f1
	_ZN6SkPathC1Ev	0xc0ee1
	_ZN6SkPath7addRectERK6SkRectNS_9DirectionE	0xc244f
	_ZN6SkPathD1Ev	0xc0f0f
	_ZN8SkAAClip2opERK6SkRectN8SkRegion2OpEb	0x9a739
	_ZN6SkRect9intersectERKS_S1_	0xca80b
	_ZNK9SkBlitter13isNullBlitterEv	0x98baf
	_ZN9SkBlitter12blitAntiRectEiiiihh	0xa4501
	_ZN36skia_advanced_typeface_metrics_utils43stripUninterestingTrailingAdvancesFromRangeIsEEvPN25SkAdvancedTypefaceMetrics13AdvanceMetricIT_EE	0x9a82d
	_ZN36skia_advanced_typeface_metrics_utils20zeroWildcardsInRangeIsEEvPN25SkAdvancedTypefaceMetrics13AdvanceMetricIT_EE	0x9a86d
	_ZN36skia_advanced_typeface_metrics_utils11finishRangeIsEEvPN25SkAdvancedTypefaceMetrics13AdvanceMetricIT_EEiNS4_10MetricTypeE	0x9a955
	_ZN36skia_advanced_typeface_metrics_utils10resetRangeIsEEvPN25SkAdvancedTypefaceMetrics13AdvanceMetricIT_EEi	0x9a99b
	_ZN36skia_advanced_typeface_metrics_utils11appendRangeIsEEPN25SkAdvancedTypefaceMetrics13AdvanceMetricIT_EEP13SkAutoTDeleteIS4_Ei	0x9a9b3
	_ZN36skia_advanced_typeface_metrics_utils14getAdvanceDataIsPvEEPN25SkAdvancedTypefaceMetrics13AdvanceMetricIT_EET0_iPKjjPFbS7_iPS4_E	0x9a9ed
	_ZN36skia_advanced_typeface_metrics_utils14getAdvanceDataIsP11FT_FaceRec_EEPN25SkAdvancedTypefaceMetrics13AdvanceMetricIT_EET0_iPKjjPFbS8_iPS5_E	0x9a9ed
	_ZN36skia_advanced_typeface_metrics_utils11finishRangeIN25SkAdvancedTypefaceMetrics14VerticalMetricEEEvPNS1_13AdvanceMetricIT_EEiNS5_10MetricTypeE	0x9ac11
	_ZN36skia_advanced_typeface_metrics_utils10resetRangeIN25SkAdvancedTypefaceMetrics14VerticalMetricEEEvPNS1_13AdvanceMetricIT_EEi	0x9ac41
	_ZN36skia_advanced_typeface_metrics_utils11appendRangeIN25SkAdvancedTypefaceMetrics14VerticalMetricEEEPNS1_13AdvanceMetricIT_EEP13SkAutoTDeleteIS5_Ei	0x9ac59
	_ZN11SkAlphaRuns5resetEi	0x9ac93
	_ZN12SkBBoxRecord10drawSpriteERK8SkBitmapiiPK7SkPaint	0x9aca9
	_ZN15SkPictureRecord10drawSpriteERK8SkBitmapiiPK7SkPaint	0xc875d
	_ZN12SkBBoxRecord5clearEj	0x9ad0d
	_ZNK8SkCanvas13getDeviceSizeEv	0xa93bb
	_ZN15SkPictureRecord5clearEj	0xc783f
	_ZN15SkPictureRecordD2Ev	0xc7f99
	_ZN12SkBBoxRecord15transformBoundsERK6SkRectPK7SkPaint	0x9addd
	_ZN6SkRect4sortEv	0xca609
	_ZNK7SkPaint19doComputeFastBoundsERK6SkRectPS0_NS_5StyleE	0xbf777
	_ZNK8SkCanvas13getClipBoundsEP6SkRect	0xa97af
	_ZNK8SkCanvas11quickRejectERK6SkRect	0xa984d
	_ZNK8SkCanvas14getTotalMatrixEv	0xa9a0f
	_ZNK8SkMatrix7mapRectEP6SkRectRKS0_	0xbbcc1
	_ZN12SkBBoxRecord11drawPictureER9SkPicture	0x9ae9d
	_ZN15SkPictureRecord11drawPictureER9SkPicture	0xc7d17
	_ZN12SkBBoxRecord12drawVerticesEN8SkCanvas10VertexModeEiPK7SkPointS4_PKjP10SkXfermodePKtiRK7SkPaint	0x9aef1
	_ZN15SkPictureRecord12drawVerticesEN8SkCanvas10VertexModeEiPK7SkPointS4_PKjP10SkXfermodePKtiRK7SkPaint	0xc8341
	_ZN12SkBBoxRecord12drawPosTextHEPKvjPKffRK7SkPaint	0x9af3d
	_ZNK7SkPaint12textToGlyphsEPKvjPt	0xc004f
	_ZN15SkPictureRecord16getFlatPaintDataERK7SkPaint	0xc831b
	_ZN15SkPictureRecord27ComputeFontMetricsTopBottomERK7SkPaintPf	0xc7aa1
	_ZN15SkPictureRecord16drawPosTextHImplEPKvjPKffRK7SkPaintPK10SkFlatData	0xc7ebb
	_ZN12SkBBoxRecord11drawPosTextEPKvjPK7SkPointRK7SkPaint	0x9b019
	_ZNK7SkPaint14getFontMetricsEPNS_11FontMetricsEf	0xc06d1
	_ZN15SkPictureRecord11drawPosTextEPKvjPK7SkPointRK7SkPaint	0xc8557
	_ZN12SkBBoxRecord14drawBitmapNineERK8SkBitmapRK7SkIRectRK6SkRectPK7SkPaint	0x9b0a9
	_ZN15SkPictureRecord14drawBitmapNineERK8SkBitmapRK7SkIRectRK6SkRectPK7SkPaint	0xc8797
	_ZN12SkBBoxRecord16drawBitmapMatrixERK8SkBitmapRK8SkMatrixPK7SkPaint	0x9b0d7
	_ZN15SkPictureRecord16drawBitmapMatrixERK8SkBitmapRK8SkMatrixPK7SkPaint	0xc8c4f
	_ZN12SkBBoxRecord20drawBitmapRectToRectERK8SkBitmapPK6SkRectRS4_PK7SkPaintN8SkCanvas19DrawBitmapRectFlagsE	0x9b143
	_ZN15SkPictureRecord20drawBitmapRectToRectERK8SkBitmapPK6SkRectRS4_PK7SkPaintN8SkCanvas19DrawBitmapRectFlagsE	0xc87d1
	_ZN12SkBBoxRecord10drawBitmapERK8SkBitmapffPK7SkPaint	0x9b179
	_ZN15SkPictureRecord10drawBitmapERK8SkBitmapffPK7SkPaint	0xc8821
	_ZN12SkBBoxRecord8drawTextEPKvjffRK7SkPaint	0x9b1d7
	_ZNK7SkPaint11measureTextEPKvjP6SkRectf	0xbfe55
	_ZN15SkPictureRecord8drawTextEPKvjffRK7SkPaint	0xc86d9
	_ZN12SkBBoxRecord9drawPaintERK7SkPaint	0x9b315
	_ZN15SkPictureRecord9drawPaintERK7SkPaint	0xc8539
	_ZN12SkBBoxRecord10drawPointsEN8SkCanvas9PointModeEjPK7SkPointRK7SkPaint	0x9b33d
	_ZN15SkPictureRecord10drawPointsEN8SkCanvas9PointModeEjPK7SkPointRK7SkPaint	0xc84f9
	_ZN12SkBBoxRecord8drawRectERK6SkRectRK7SkPaint	0x9b3c9
	_ZN15SkPictureRecord8drawRectERK6SkRectRK7SkPaint	0xc8441
	_ZN12SkBBoxRecord9drawRRectERK7SkRRectRK7SkPaint	0x9b3e7
	_ZN15SkPictureRecord9drawRRectERK7SkRRectRK7SkPaint	0xc8495
	_ZN12SkBBoxRecord8drawOvalERK6SkRectRK7SkPaint	0x9b405
	_ZN15SkPictureRecord8drawOvalERK6SkRectRK7SkPaint	0xc846b
	_ZN12SkBBoxRecord14drawTextOnPathEPKvjRK6SkPathPK8SkMatrixRK7SkPaint	0x9b423
	_ZN15SkPictureRecord14drawTextOnPathEPKvjRK6SkPathPK8SkMatrixRK7SkPaint	0xc8ccd
	_ZN12SkBBoxRecord8drawPathERK6SkPathRK7SkPaint	0x9b4ad
	_ZNK8SkCanvas19getClipDeviceBoundsEP7SkIRect	0xa977d
	_ZN15SkPictureRecord8drawPathERK6SkPathRK7SkPaint	0xc8417
	_ZN15SkPictureRecord4saveEN8SkCanvas9SaveFlagsE	0xc80d9
	_ZN15SkPictureRecord9saveLayerEPK6SkRectPK7SkPaintN8SkCanvas9SaveFlagsE	0xc885b
	_ZN15SkPictureRecord7restoreEv	0xc7959
	_ZNK15SkPictureRecord16isDrawingToLayerEv	0xc7473
	_ZN15SkPictureRecord9translateEff	0xc78fd
	_ZN15SkPictureRecord5scaleEff	0xc78c9
	_ZN15SkPictureRecord6rotateEf	0xc78a3
	_ZN15SkPictureRecord4skewEff	0xc786f
	_ZN15SkPictureRecord6concatERK8SkMatrix	0xc8ca7
	_ZN15SkPictureRecord9setMatrixERK8SkMatrix	0xc8c81
	_ZN15SkPictureRecord8clipRectERK6SkRectN8SkRegion2OpEb	0xc7d61
	_ZN15SkPictureRecord9clipRRectERK7SkRRectN8SkRegion2OpEb	0xc7e21
	_ZN15SkPictureRecord8clipPathERK6SkPathN8SkRegion2OpEb	0xc7bad
	_ZN15SkPictureRecord10clipRegionERK8SkRegionNS0_2OpE	0xc8e17
	_ZN15SkPictureRecord8drawDataEPKvj	0xc780d
	_ZN15SkPictureRecord17beginCommentGroupEPKc	0xc77d1
	_ZN15SkPictureRecord10addCommentEPKcS1_	0xc777b
	_ZN15SkPictureRecord15endCommentGroupEv	0xc7769
	_ZN8SkCanvas10setBounderEP9SkBounder	0xa8bbf
	_ZN8SkCanvas13setDrawFilterEP12SkDrawFilter	0xa8b9f
	_ZN8SkCanvas17canvasForDrawIterEv	0x9d1d9
	_ZN15SkPictureRecord9setDeviceEP12SkBaseDevice	0xc7493
	_ZN21SkBBoxHierarchyRecord12shouldRewindEPv	0x9b545
	_ZThn768_N21SkBBoxHierarchyRecord12shouldRewindEPv	0x9b555
	_ZN21SkBBoxHierarchyRecord9clipRRectERK7SkRRectN8SkRegion2OpEb	0x9b57d
	_ZN18SkPictureStateTree10appendClipEj	0xc91cf
	_ZN21SkBBoxHierarchyRecord8clipPathERK6SkPathN8SkRegion2OpEb	0x9b5a5
	_ZN21SkBBoxHierarchyRecord10clipRegionERK8SkRegionNS0_2OpE	0x9b5cd
	_ZN21SkBBoxHierarchyRecord8clipRectERK6SkRectN8SkRegion2OpEb	0x9b5ef
	_ZN21SkBBoxHierarchyRecord9setMatrixERK8SkMatrix	0x9b617
	_ZN18SkPictureStateTree15appendTransformERK8SkMatrix	0xc9179
	_ZN21SkBBoxHierarchyRecord6concatERK8SkMatrix	0x9b635
	_ZN21SkBBoxHierarchyRecord4skewEff	0x9b655
	_ZN21SkBBoxHierarchyRecord6rotateEf	0x9b675
	_ZN21SkBBoxHierarchyRecord5scaleEff	0x9b695
	_ZN21SkBBoxHierarchyRecord9translateEff	0x9b6b5
	_ZN21SkBBoxHierarchyRecord7restoreEv	0x9b6d5
	_ZN18SkPictureStateTree13appendRestoreEv	0xc9159
	_ZN21SkBBoxHierarchyRecord9saveLayerEPK6SkRectPK7SkPaintN8SkCanvas9SaveFlagsE	0x9b6eb
	_ZN18SkPictureStateTree15appendSaveLayerEj	0xc91d3
	_ZN21SkBBoxHierarchyRecord4saveEN8SkCanvas9SaveFlagsE	0x9b713
	_ZN18SkPictureStateTree10appendSaveEv	0xc912d
	_ZN21SkBBoxHierarchyRecord10handleBBoxERK6SkRect	0x9b72d
	_ZN18SkPictureStateTree10appendDrawEj	0xc9109
	_ZN21SkBBoxHierarchyRecordC2EjP15SkBBoxHierarchyP12SkBaseDevice	0x9b7f9
	_ZN15SkPictureRecordC2EjP12SkBaseDevice	0xc8ec5
	_ZN18SkPictureStateTreeC1Ev	0xc9099
	_ZN21SkBBoxHierarchyRecordC1EjP15SkBBoxHierarchyP12SkBaseDevice	0x9b7f9
	_ZN8SkBitmap9RLEPixelsD2Ev	0x9b929
	_ZN8SkBitmap9RLEPixelsD1Ev	0x9b929
	_ZN8SkBitmap9RLEPixelsD0Ev	0x9b945
	_ZN8SkBitmapC2Ev	0x9bad3
	_ZN8SkBitmapC1Ev	0x9bad3
	_ZN8SkBitmap4swapERS_	0x9bae3
	_ZN8SkBitmap20ComputeBytesPerPixelENS_6ConfigE	0x9bb6d
	_ZN8SkBitmap15ComputeRowBytesENS_6ConfigEi	0x9bb85
	_ZN8SkBitmap13ComputeSize64ENS_6ConfigEii	0x9bbcd
	_ZN8SkBitmap11ComputeSizeENS_6ConfigEii	0x9bbe9
	_ZN8SkBitmap17ComputeSafeSize64ENS_6ConfigEjjj	0x9bc07
	_ZN8SkBitmap15ComputeSafeSizeENS_6ConfigEjjj	0x9bc3b
	_ZNK8SkBitmap9getBoundsEP6SkRect	0x9bc61
	_ZNK8SkBitmap9getBoundsEP7SkIRect	0x9bc8d
	_ZN8SkBitmap12setAlphaTypeE11SkAlphaType	0x9bc9f
	_ZNK8SkBitmap19updatePixelsFromRefEv	0x9bcbd
	_ZNK8SkBitmap11asImageInfoEP11SkImageInfo	0x9bcff
	_ZNK8SkBitmap10lockPixelsEv	0x9bd43
	_ZN10SkPixelRef10lockPixelsEv	0xc962d
	_ZNK8SkBitmap12unlockPixelsEv	0x9bd67
	_ZN10SkPixelRef12unlockPixelsEv	0xc9663
	_ZN12SkColorTable12unlockColorsEv	0x9d1d9
	_ZNK8SkBitmap21lockPixelsAreWritableEv	0x9becf
	_ZNK10SkPixelRef21lockPixelsAreWritableEv	0xc9695
	_ZN8SkBitmap11allocPixelsEPNS_9AllocatorEP12SkColorTable	0x9bed9
	_ZN8SkBitmap10freeMipMapEv	0x9befd
	_ZN8SkBitmap10freePixelsEv	0x9bf1b
	_ZN8SkBitmap11setPixelRefEP10SkPixelRefj	0x9bf51
	_ZN8SkBitmap13HeapAllocator13allocPixelRefEPS_P12SkColorTable	0x9bf85
	_ZN16SkMallocPixelRef11NewAllocateERK11SkImageInfojP12SkColorTable	0xb8f31
	_ZN8SkBitmap9setPixelsEPvP12SkColorTable	0x9bfc3
	_ZN16SkMallocPixelRef9NewDirectERK11SkImageInfoPvjP12SkColorTable	0xb8fb1
	_ZN8SkBitmap5resetEv	0x9c009
	_ZN8SkBitmap9setConfigENS_6ConfigEiij11SkAlphaType	0x9c01f
	_ZN8SkBitmap9setConfigERK11SkImageInfoj	0x9c097
	_Z25SkImageInfoToBitmapConfigRK11SkImageInfo	0xfa729
	_ZN8SkBitmapaSERKS_	0x9c0b9
	_ZN8SkBitmapC2ERKS_	0x9c115
	_ZN8SkBitmapC1ERKS_	0x9c115
	_ZN8SkBitmapD2Ev	0x9c12f
	_ZN8SkBitmapD1Ev	0x9c12f
	_ZNK8SkBitmap15getGenerationIDEv	0x9c13b
	_ZNK10SkPixelRef15getGenerationIDEv	0xc969f
	_ZNK8SkBitmap19notifyPixelsChangedEv	0x9c145
	_ZN10SkPixelRef19notifyPixelsChangedEv	0xc97af
	_ZNK8SkBitmap10getTextureEv	0x9c14f
	_ZNK8SkBitmap11getSafeSizeEv	0x9c15d
	_ZNK8SkBitmap13getSafeSize64Ev	0x9c17b
	_ZNK8SkBitmap12copyPixelsToEPvjjb	0x9c195
	_ZNK8SkBitmap11isImmutableEv	0x9c25d
	_ZN8SkBitmap12setImmutableEv	0x9c271
	_ZN10SkPixelRef12setImmutableEv	0xc97c1
	_ZNK8SkBitmap10isVolatileEv	0x9c289
	_ZN8SkBitmap13setIsVolatileEb	0x9c293
	_ZNK8SkBitmap7getAddrEii	0x9c2a9
	_ZNK8SkBitmap8getColorEii	0x9c2df
	_ZN15SkUnPreMultiply14PMColorToColorEj	0xd8141
	_ZN8SkBitmap15ComputeIsOpaqueERKS_	0x9c391
	_ZNK8SkBitmap13internalEraseERK7SkIRectjjjj	0x9c499
	_ZNK8SkBitmap9eraseARGBEjjjj	0x9c5f9
	_ZNK8SkBitmap9eraseAreaERK7SkIRectj	0x9c635
	_Z26get_upper_left_from_offsetN8SkBitmap6ConfigEjjPiS1_	0x9c6c5
	_ZNK8SkBitmap13extractSubsetEPS_RK7SkIRect	0x9c70f
	_ZNK8SkBitmap9canCopyToENS_6ConfigE	0x9c86b
	_ZNK8SkBitmap6copyToEPS_NS_6ConfigEPNS_9AllocatorE	0x9c8a1
	_ZN10SkPixelRef10readPixelsEP8SkBitmapPK7SkIRect	0xc97c9
	_ZN12SkColorTableC1ERKS_	0xac38d
	_ZN10SkPixelRef10cloneGenIDERKS_	0xc96b7
	_ZN8SkCanvasC1ERK8SkBitmap	0xa9335
	_ZN7SkPaint9setDitherEb	0xbe4d3
	_ZN8SkCanvas10drawBitmapERK8SkBitmapffPK7SkPaint	0xab421
	_ZN8SkCanvasD1Ev	0xaa581
	_ZNK8SkBitmap10deepCopyToEPS_NS_6ConfigE	0x9cb61
	_ZN8SkBitmap11buildMipMapEb	0x9cc21
	_ZNK8SkBitmap9hasMipMapEv	0x9cde9
	_ZN8SkBitmap15ComputeMipLevelEii	0x9cdf3
	_ZN8SkBitmap15extractMipLevelEPS_ii	0x9ce25
	_ZNK8SkBitmap12extractAlphaEPS_PK7SkPaintPNS_9AllocatorEP8SkIPoint	0x9ce7d
	_ZN8SkMatrix5resetEv	0xba985
	_ZN6SkMask9FreeImageEPv	0xb90e3
	_ZNK8SkBitmap7flattenER24SkFlattenableWriteBuffer	0x9cff1
	_ZN8SkBitmap9unflattenER23SkFlattenableReadBuffer	0x9d065
	_ZN23SkFlattenableReadBuffer12readPixelRefEv	0xb4c91
	_ZN8SkBitmap9RLEPixelsC2Eii	0x9d19d
	_Z15sk_calloc_throwj	0x11dc21
	_ZN8SkBitmap9RLEPixelsC1Eii	0x9d19d
	_ZN14SkBitmapDevice14onAccessBitmapEv	0x9d1f7
	_ZN14SkBitmapDevice20canHandleImageFilterEP13SkImageFilter	0x98baf
	_ZN14SkBitmapDevice11filterImageEP13SkImageFilterRK8SkBitmapRK8SkMatrixPS2_P8SkIPoint	0x98baf
	_ZN14SkBitmapDevice16allowImageFilterEP13SkImageFilter	0x9d1fb
	_ZN14SkBitmapDevice10drawDeviceERK6SkDrawP12SkBaseDeviceiiRK7SkPaint	0x9d1ff
	_ZN12SkBaseDevice12accessBitmapEb	0xaeaa3
	_ZNK6SkDraw10drawSpriteERK8SkBitmapiiRK7SkPaint	0xb1b17
	_ZN14SkBitmapDevice10drawSpriteERK6SkDrawRK8SkBitmapiiRK7SkPaint	0x9d225
	_ZN14SkBitmapDevice12drawVerticesERK6SkDrawN8SkCanvas10VertexModeEiPK7SkPointS7_PKjP10SkXfermodePKtiRK7SkPaint	0x9d23d
	_ZNK6SkDraw12drawVerticesEN8SkCanvas10VertexModeEiPK7SkPointS4_PKjP10SkXfermodePKtiRK7SkPaint	0xb2179
	_ZN14SkBitmapDevice14drawTextOnPathERK6SkDrawPKvjRK6SkPathPK8SkMatrixRK7SkPaint	0x9d269
	_ZNK6SkDraw14drawTextOnPathEPKcjRK6SkPathPK8SkMatrixRK7SkPaint	0xb18f9
	_ZN14SkBitmapDevice11drawPosTextERK6SkDrawPKvjPKffiRK7SkPaint	0x9d285
	_ZNK6SkDraw11drawPosTextEPKcjPKffiRK7SkPaint	0xb1049
	_ZN14SkBitmapDevice8drawTextERK6SkDrawPKvjffRK7SkPaint	0x9d2a9
	_ZNK6SkDraw8drawTextEPKcjffRK7SkPaint	0xb0cc9
	_ZN14SkBitmapDevice10drawBitmapERK6SkDrawRK8SkBitmapRK8SkMatrixRK7SkPaint	0x9d2c9
	_ZNK6SkDraw10drawBitmapERK8SkBitmapRK8SkMatrixRK7SkPaint	0xb1eed
	_ZN14SkBitmapDevice8drawPathERK6SkDrawRK6SkPathRK7SkPaintPK8SkMatrixb	0x9d2d5
	_ZNK6SkDraw8drawPathERK6SkPathRK7SkPaintPK8SkMatrixbb	0xb0625
	_ZN14SkBitmapDevice8drawRectERK6SkDrawRK6SkRectRK7SkPaint	0x9d2f7
	_ZNK6SkDraw8drawRectERK6SkRectRK7SkPaint	0xb0ac3
	_ZN14SkBitmapDevice10drawPointsERK6SkDrawN8SkCanvas9PointModeEjPK7SkPointRK7SkPaint	0x9d30d
	_ZNK6SkDraw10drawPointsEN8SkCanvas9PointModeEjPK7SkPointRK7SkPaintb	0xb13f7
	_ZN14SkBitmapDevice9drawPaintERK6SkDrawRK7SkPaint	0x9d32b
	_ZNK6SkDraw9drawPaintERK7SkPaint	0xb02f5
	_ZN14SkBitmapDevice12unlockPixelsEv	0x9d333
	_ZN14SkBitmapDevice10lockPixelsEv	0x9d34d
	_ZN14SkBitmapDevice36replaceBitmapBackendForRasterSurfaceERK8SkBitmap	0x9d367
	_ZN14SkBitmapDeviceD2Ev	0x9d37d
	_ZN12SkBaseDeviceD2Ev	0xae98d
	_ZN14SkBitmapDeviceD1Ev	0x9d37d
	_ZN14SkBitmapDeviceD0Ev	0x9d39d
	_ZN14SkBitmapDevice15filterTextFlagsERK7SkPaintPN12SkBaseDevice9TextFlagsE	0x9d3af
	_ZN10SkXfermode6IsModeEPKS_NS_4ModeE	0xdb2d3
	_ZN14SkBitmapDevice9drawRRectERK6SkDrawRK7SkRRectRK7SkPaint	0x9d419
	_ZN6SkPath8addRRectERK7SkRRectNS_9DirectionE	0xc2b75
	_ZN14SkBitmapDevice8drawOvalERK6SkDrawRK6SkRectRK7SkPaint	0x9d45b
	_ZN6SkPath7addOvalERK6SkRectNS_9DirectionE	0xc2469
	_ZN14SkBitmapDevice14drawBitmapRectERK6SkDrawRK8SkBitmapPK6SkRectRS7_RK7SkPaintN8SkCanvas19DrawBitmapRectFlagsE	0x9d49d
	_ZN8SkMatrix13setRectToRectERK6SkRectS2_NS_10ScaleToFitE	0xbb0d5
	_ZN8SkMatrix12preTranslateEff	0xbb4cd
	_ZN7SkPaintC1ERKS_	0xbe261
	_ZN7SkPaint8setStyleENS_5StyleE	0xbe5af
	_ZN7SkPaint9setShaderEP8SkShader	0xbf34d
	_ZN6SkRect9intersectERKS_	0xca7f3
	_ZN8SkShader18CreateBitmapShaderERK8SkBitmapNS_8TileModeES3_	0xd3181
	_ZN14SkBitmapDevice5clearEj	0x9d74d
	_ZN14SkBitmapDevice12onReadPixelsERK8SkBitmapiiN8SkCanvas10Config8888E	0x9d753
	_Z25SkConvertConfig8888PixelsPjjN8SkCanvas10Config8888EPKjjS1_ii	0xaca81
	_ZN14SkBitmapDevice11writePixelsERK8SkBitmapiiN8SkCanvas10Config8888E	0x9d7f1
	_ZN7SkPaint15setXfermodeModeEN10SkXfermode4ModeE	0xbf3c5
	_ZN12SkRasterClipC1ERK7SkIRect	0xc9fdd
	_ZN6SkDrawC1Ev	0xaf9f3
	_ZN8SkMatrix1IEv	0xbc255
	_ZN12SkRasterClipD1Ev	0xca00f
	_ZN14SkBitmapDeviceC2ERK8SkBitmap	0x9da11
	_ZN12SkBaseDeviceC2Ev	0xae9d9
	_ZN14SkBitmapDeviceC1ERK8SkBitmap	0x9da11
	_ZN14SkBitmapDeviceC2ERK8SkBitmapRK18SkDeviceProperties	0x9da35
	_ZN12SkBaseDeviceC2ERK18SkDeviceProperties	0xaea35
	_ZN14SkBitmapDeviceC1ERK8SkBitmapRK18SkDeviceProperties	0x9da35
	_ZN14SkBitmapDeviceC2EN8SkBitmap6ConfigEiib	0x9da5d
	_ZN14SkBitmapDeviceC1EN8SkBitmap6ConfigEiib	0x9da5d
	_ZN14SkBitmapDeviceC2EN8SkBitmap6ConfigEiibRK18SkDeviceProperties	0x9dad9
	_ZN14SkBitmapDeviceC1EN8SkBitmap6ConfigEiibRK18SkDeviceProperties	0x9dad9
	_ZN14SkBitmapDevice24onCreateCompatibleDeviceEN8SkBitmap6ConfigEiibN12SkBaseDevice5UsageE	0x9db59
	_Z19highQualityFilter16RK17SkBitmapProcStateiiPti	0x9dfbd
	_Z19highQualityFilter32RK17SkBitmapProcStateiiPji	0x9e269
	_ZN14SkBitmapFilter8AllocateEv	0x9e50d
	_ZN17SkBitmapProcState20setBitmapFilterProcsEv	0x9e551
	_ZN17SkBitmapHeapEntryC2Ev	0x9e61d
	_ZN17SkBitmapHeapEntryC1Ev	0x9e61d
	_ZN17SkBitmapHeapEntryD2Ev	0x9e639
	_ZN17SkBitmapHeapEntryD1Ev	0x9e639
	_ZN17SkBitmapHeapEntry13addReferencesEi	0x9e649
	_ZN12SkBitmapHeap11LookupEntry4LessERKS0_S2_	0x9e65b
	_ZN12SkBitmapHeapC2Eii	0x9e691
	_ZN12SkBitmapHeapC1Eii	0x9e691
	_ZN12SkBitmapHeapC2EPNS_15ExternalStorageEi	0x9e6d1
	_ZN12SkBitmapHeapC1EPNS_15ExternalStorageEi	0x9e6d1
	_ZNK12SkBitmapHeap14extractBitmapsEv	0x9e721
	_ZN12SkBitmapHeap13removeFromLRUEPNS_11LookupEntryE	0x9e791
	_ZN12SkBitmapHeap11appendToLRUEPNS_11LookupEntryE	0x9e7c3
	_ZN12SkBitmapHeap18findEntryToReplaceERK8SkBitmap	0x9e7d7
	_ZN12SkBitmapHeap17findInLookupTableERKNS_11LookupEntryEPP17SkBitmapHeapEntry	0x9e809
	_ZN12SkBitmapHeap10copyBitmapERK8SkBitmapRS0_	0x9e8d5
	_ZN12SkBitmapHeap17deferAddingOwnersEv	0x9e91b
	_ZN12SkBitmapHeap23endAddingOwnersDeferralEb	0x9e923
	_ZN12SkBitmapHeapD2Ev	0x9e9a1
	_ZN12SkBitmapHeapD1Ev	0x9e9a1
	_ZN12SkBitmapHeapD0Ev	0x9ea25
	_ZN12SkBitmapHeap26removeEntryFromLookupTableEPNS_11LookupEntryE	0x9ea57
	_ZN12SkBitmapHeap6insertERK8SkBitmap	0x9eabb
	_ZN12SkBitmapHeap20freeMemoryIfPossibleEj	0x9ecab
	_ZNK18SkBitmapProcShader8isOpaqueEv	0x9ed59
	_ZN18SkBitmapProcShader12asAShadeProcEPPv	0x9ed67
	_ZN17SkBitmapProcStateD1Ev	0xa1dbd
	_ZN8SkShaderD2Ev	0x98945
	_ZN18SkBitmapProcShader9shadeSpanEiiPji	0x9edb7
	_ZNK17SkBitmapProcState21maxCountForBufferSizeEj	0xa22c5
	_ZN18SkBitmapProcShader11shadeSpan16EiiPti	0x9ee21
	_ZN18SkBitmapProcShader10endContextEv	0x9ee8b
	_ZN17SkBitmapProcState10endContextEv	0xa1d8f
	_ZN8SkShader10endContextEv	0x9d1d9
	_ZNK18SkBitmapProcShader9asABitmapEP8SkBitmapP8SkMatrixPN8SkShader8TileModeE	0x9eea1
	_ZNK18SkBitmapProcShader7flattenER24SkFlattenableWriteBuffer	0x9eecf
	_ZNK8SkShader7flattenER24SkFlattenableWriteBuffer	0xd2f6f
	_ZNK8SkMatrix15computeTypeMaskEv	0xba9ff
	_ZN18SkBitmapProcShader10setContextERK8SkBitmapRK7SkPaintRK8SkMatrix	0x9ef17
	_ZN17SkBitmapProcState11chooseProcsERK8SkMatrixRK7SkPaint	0xa1f15
	_ZN8SkShader10setContextERK8SkBitmapRK7SkPaintRK8SkMatrix	0xd3083
	_ZN11GrEffectRefnwEj	0x149e49
	_ZNK18SkBitmapProcShader11asNewEffectEP9GrContextRK7SkPaint	0x9f099
	_ZN8SkMatrix7setIDivEii	0xbae39
	_ZNK8SkMatrix17invertNonIdentityEPS_	0xbb749
	_ZN8SkMatrix9preConcatERKS_	0xbb425
	_ZNK7SkPaint14getFilterLevelEv	0xbe453
	_ZNK8SkMatrix13getMinStretchEv	0xbc0a5
	_ZNK8SkMatrix13getMaxStretchEv	0xbc17d
	_ZN16SkErrorInternals8SetErrorE7SkErrorPKcz	0xb3c85
	_Z31GrLockAndRefCachedBitmapTextureP9GrContextRK8SkBitmapPK15GrTextureParams	0x13a149
	_ZN8GrEffectnwEj	0x149e49
	_ZN15GrBicubicEffectC1EP9GrTexturePKfRK8SkMatrixPKN8SkShader8TileModeE	0x157555
	_ZN21GrSingleTextureEffectC2EP9GrTextureRK8SkMatrixRK15GrTextureParams10GrCoordSet	0x157c61
	_Z35GrUnlockAndUnrefCachedBitmapTextureP9GrTexture	0x13a0b3
	_ZN18SkBitmapProcShader5CanDoERK8SkBitmapN8SkShader8TileModeES4_	0x9f1e9
	_ZN18SkBitmapProcShaderC2ERK8SkBitmapN8SkShader8TileModeES4_	0x9f205
	_ZN8SkShaderC2Ev	0xd2fd1
	_ZN18SkBitmapProcShaderC1ERK8SkBitmapN8SkShader8TileModeES4_	0x9f205
	_ZN18SkBitmapProcShaderC2ER23SkFlattenableReadBuffer	0x9f251
	_ZN8SkShaderC2ER23SkFlattenableReadBuffer	0xd2ff1
	_ZN18SkBitmapProcShaderC1ER23SkFlattenableReadBuffer	0x9f251
	_ZN8SkShader18CreateBitmapShaderERK8SkBitmapNS_8TileModeES3_Pvj	0x9f2c5
	_ZN13SkColorShaderC1Ej	0xd31b1
	_ZN8SkShader14shadeSpanAlphaEiiPhi	0xd2e2f
	_ZNK8SkShader11asAGradientEPNS_12GradientInfoE	0x98baf
	_Z28S32_opaque_D32_nofilter_DXDYRK17SkBitmapProcStatePKjiPj	0x9faa3
	_Z26S32_opaque_D32_nofilter_DXRK17SkBitmapProcStatePKjiPj	0x9fb11
	_Z24S32_opaque_D32_filter_DXRK17SkBitmapProcStatePKjiPj	0x9fbbd
	_Z26S32_opaque_D32_filter_DXDYRK17SkBitmapProcStatePKjiPj	0x9fc1d
	_Z27S32_alpha_D32_nofilter_DXDYRK17SkBitmapProcStatePKjiPj	0x9fc85
	_Z25S32_alpha_D32_nofilter_DXRK17SkBitmapProcStatePKjiPj	0x9fd15
	_Z23S32_alpha_D32_filter_DXRK17SkBitmapProcStatePKjiPj	0x9fe05
	_Z25S32_alpha_D32_filter_DXDYRK17SkBitmapProcStatePKjiPj	0x9fe69
	_Z28S16_opaque_D32_nofilter_DXDYRK17SkBitmapProcStatePKjiPj	0x9fed7
	_Z26S16_opaque_D32_nofilter_DXRK17SkBitmapProcStatePKjiPj	0x9ff5d
	_Z24S16_opaque_D32_filter_DXRK17SkBitmapProcStatePKjiPj	0xa0039
	_Z26S16_opaque_D32_filter_DXDYRK17SkBitmapProcStatePKjiPj	0xa0099
	_Z27S16_alpha_D32_nofilter_DXDYRK17SkBitmapProcStatePKjiPj	0xa0107
	_Z25S16_alpha_D32_nofilter_DXRK17SkBitmapProcStatePKjiPj	0xa01a5
	_Z23S16_alpha_D32_filter_DXRK17SkBitmapProcStatePKjiPj	0xa02ad
	_Z25S16_alpha_D32_filter_DXDYRK17SkBitmapProcStatePKjiPj	0xa0317
	_Z28SI8_opaque_D32_nofilter_DXDYRK17SkBitmapProcStatePKjiPj	0xa038d
	_Z26SI8_opaque_D32_nofilter_DXRK17SkBitmapProcStatePKjiPj	0xa0421
	_Z24SI8_opaque_D32_filter_DXRK17SkBitmapProcStatePKjiPj	0xa050d
	_Z26SI8_opaque_D32_filter_DXDYRK17SkBitmapProcStatePKjiPj	0xa058d
	_Z27SI8_alpha_D32_nofilter_DXDYRK17SkBitmapProcStatePKjiPj	0xa061d
	_Z25SI8_alpha_D32_nofilter_DXRK17SkBitmapProcStatePKjiPj	0xa06dd
	_Z23SI8_alpha_D32_filter_DXRK17SkBitmapProcStatePKjiPj	0xa07e5
	_Z25SI8_alpha_D32_filter_DXDYRK17SkBitmapProcStatePKjiPj	0xa086f
	_Z30S4444_opaque_D32_nofilter_DXDYRK17SkBitmapProcStatePKjiPj	0xa0917
	_Z28S4444_opaque_D32_nofilter_DXRK17SkBitmapProcStatePKjiPj	0xa099d
	_Z26S4444_opaque_D32_filter_DXRK17SkBitmapProcStatePKjiPj	0xa0a79
	_Z28S4444_opaque_D32_filter_DXDYRK17SkBitmapProcStatePKjiPj	0xa0ad5
	_Z29S4444_alpha_D32_nofilter_DXDYRK17SkBitmapProcStatePKjiPj	0xa0b3f
	_Z27S4444_alpha_D32_nofilter_DXRK17SkBitmapProcStatePKjiPj	0xa0bdd
	_Z25S4444_alpha_D32_filter_DXRK17SkBitmapProcStatePKjiPj	0xa0ce5
	_Z27S4444_alpha_D32_filter_DXDYRK17SkBitmapProcStatePKjiPj	0xa0d4b
	_Z27SA8_alpha_D32_nofilter_DXDYRK17SkBitmapProcStatePKjiPj	0xa0dbd
	_Z25SA8_alpha_D32_nofilter_DXRK17SkBitmapProcStatePKjiPj	0xa0e51
	_Z23SA8_alpha_D32_filter_DXRK17SkBitmapProcStatePKjiPj	0xa0f45
	_Z25SA8_alpha_D32_filter_DXDYRK17SkBitmapProcStatePKjiPj	0xa0fe9
	_Z21S32_D16_nofilter_DXDYRK17SkBitmapProcStatePKjiPt	0xa108d
	_Z19S32_D16_nofilter_DXRK17SkBitmapProcStatePKjiPt	0xa1111
	_Z17S32_D16_filter_DXRK17SkBitmapProcStatePKjiPt	0xa11ed
	_Z19S32_D16_filter_DXDYRK17SkBitmapProcStatePKjiPt	0xa1257
	_Z21S16_D16_nofilter_DXDYRK17SkBitmapProcStatePKjiPt	0xa12cf
	_Z19S16_D16_nofilter_DXRK17SkBitmapProcStatePKjiPt	0xa1349
	_Z17S16_D16_filter_DXRK17SkBitmapProcStatePKjiPt	0xa13f5
	_Z19S16_D16_filter_DXDYRK17SkBitmapProcStatePKjiPt	0xa1461
	_Z21SI8_D16_nofilter_DXDYRK17SkBitmapProcStatePKjiPt	0xa14db
	_ZN12SkColorTable14lock16BitCacheEv	0xac409
	_Z19SI8_D16_nofilter_DXRK17SkBitmapProcStatePKjiPt	0xa1569
	_Z17SI8_D16_filter_DXRK17SkBitmapProcStatePKjiPt	0xa1641
	_Z19SI8_D16_filter_DXDYRK17SkBitmapProcStatePKjiPt	0xa16c7
	_Z34Clamp_S16_D16_filter_DX_shaderprocRK17SkBitmapProcStateiiPti	0xa1761
	_Z35Repeat_S16_D16_filter_DX_shaderprocRK17SkBitmapProcStateiiPti	0xa184d
	_Z41Clamp_SI8_opaque_D32_filter_DX_shaderprocRK17SkBitmapProcStateiiPji	0xa1927
	_ZN18SkScaledImageCache6UnlockEPNS_2IDE	0xce909
	_ZN17SkBitmapProcState18possiblyScaleImageEv	0xa1a43
	_ZN17SkBitmapProcState24platformConvolutionProcsEP18SkConvolutionProcs	0x16d05d
	_ZN18SkScaledImageCache12GetAllocatorEv	0xce9a5
	_ZN14SkBitmapScaler6ResizeEP8SkBitmapRKS0_NS_12ResizeMethodEiiRK18SkConvolutionProcsPNS0_9AllocatorE	0xa3409
	_ZN18SkScaledImageCache10AddAndLockERK8SkBitmapffS2_	0xce899
	_ZN8SkMatrix12setTranslateEff	0xbad11
	_ZN18SkScaledImageCache14FindAndLockMipERK8SkBitmapPPK8SkMipMap	0xce869
	_ZN8SkMipMap5BuildERK8SkBitmap	0xbcc9d
	_ZN18SkScaledImageCache13AddAndLockMipERK8SkBitmapPK8SkMipMap	0xce8d9
	_ZNK8SkMipMap12extractLevelEfPNS_5LevelE	0xbce79
	_ZN8SkMatrix9postScaleEff	0xbb5df
	_ZN18SkScaledImageCache11FindAndLockERK8SkBitmapffPS0_	0xce829
	_ZN17SkBitmapProcState14lockBaseBitmapEv	0xa1ca9
	_ZN17SkBitmapProcStateD2Ev	0xa1dbd
	_ZN17SkBitmapProcState17setupForTranslateEv	0xa1ded
	_ZN17SkBitmapProcState18chooseShaderProc32Ev	0xa1e69
	_ZN8SkMatrix8postIDivEii	0xbaee9
	_ZNK8SkMatrix9mapPointsEP7SkPointPKS0_i	0xbbb49
	_ZN17SkBitmapProcState16chooseMatrixProcEb	0xa2c49
	_Z18SkPreMultiplyColorj	0xac10d
	_ZN17SkBitmapProcState13platformProcsEv	0x16d02d
	_Z22S16_D16_filter_DX_neonRK17SkBitmapProcStatePKjiPt	0x168c29
	_Z39Clamp_S16_D16_filter_DX_shaderproc_neonRK17SkBitmapProcStateiiPti	0x169007
	_Z40Repeat_S16_D16_filter_DX_shaderproc_neonRK17SkBitmapProcStateiiPti	0x1690f3
	_Z29SI8_opaque_D32_filter_DX_neonRK17SkBitmapProcStatePKjiPj	0x1682cf
	_Z46Clamp_SI8_opaque_D32_filter_DX_shaderproc_neonRK17SkBitmapProcStateiiPji	0x1691cd
	_Z25GeneralXY_nofilter_affineRK17SkBitmapProcStatePjiii	0xa22e9
	_Z24GeneralXY_nofilter_scaleRK17SkBitmapProcStatePjiii	0xa248d
	_Z22GeneralXY_filter_perspRK17SkBitmapProcStatePjiii	0xa2641
	_ZN11SkPerspIterC1ERK8SkMatrixffi	0xbbe29
	_ZN11SkPerspIter4nextEv	0xbbe61
	_Z24GeneralXY_nofilter_perspRK17SkBitmapProcStatePjiii	0xa2713
	_Z23GeneralXY_filter_affineRK17SkBitmapProcStatePjiii	0xa2a15
	_Z22GeneralXY_filter_scaleRK17SkBitmapProcStatePjiii	0xa2acd
	_Z20decal_nofilter_scalePjiii	0xa2b9d
	_Z18decal_filter_scalePjiii	0xa2c07
	_ZN14SkResizeFilter14computeFiltersEiiifP21SkConvolutionFilter1DRK18SkConvolutionProcs	0xa2f39
	_ZN21SkConvolutionFilter1D9AddFilterEiPKsi	0xada25
	_ZN14SkResizeFilterC2EN14SkBitmapScaler12ResizeMethodEiiiiRK7SkIRectRK18SkConvolutionProcs	0xa3131
	_ZN21SkConvolutionFilter1DC1Ev	0xad44d
	_ZN14SkResizeFilterC1EN14SkBitmapScaler12ResizeMethodEiiiiRK7SkIRectRK18SkConvolutionProcs	0xa3131
	_ZN14SkBitmapScaler6ResizeEP8SkBitmapRKS0_NS_12ResizeMethodEiiRK7SkIRectRK18SkConvolutionProcsPNS0_9AllocatorE	0xa3295
	_ZN21SkConvolutionFilter1DD1Ev	0xad48d
	_Z14BGRAConvolve2DPKhibRK21SkConvolutionFilter1DS3_iPhRK18SkConvolutionProcsb	0xad4c5
	_ZNK8SkBitmap10scrollRectEPK7SkIRectiiP8SkRegion	0xa3447
	_ZN8SkRegion8setEmptyEv	0xcabb7
	_ZN8SkRegion2opERKS_RK7SkIRectNS_2OpE	0xcb545
	_ZN10SkBlitMask19BlitLCD16RowFactoryEb	0xa3c65
	_ZN10SkBlitMask22PlatformBlitRowProcs16Eb	0x16d075
	_ZN10SkBlitMask12ColorFactoryEN8SkBitmap6ConfigEN6SkMask6FormatEj	0xa3ccd
	_ZN10SkBlitMask18PlatformColorProcsEN8SkBitmap6ConfigEN6SkMask6FormatEj	0x16d063
	_ZN10SkBlitMask9BlitColorERK8SkBitmapRK6SkMaskRK7SkIRectj	0xa3d3d
	_ZN10SkBlitMask10RowFactoryEN8SkBitmap6ConfigEN6SkMask6FormatENS_8RowFlagsE	0xa3d9d
	_ZN10SkBlitMask16PlatformRowProcsEN8SkBitmap6ConfigEN6SkMask6FormatENS_8RowFlagsE	0x98baf
	_ZN9SkBlitRow7FactoryEjN8SkBitmap6ConfigE	0xa4205
	_ZN9SkBlitRow16PlatformProcs565Ej	0x16d091
	_ZN9SkBlitRow7Color32EPjPKjij	0xa4301
	_ZN9SkBlitRow9Factory32Ej	0xa43c5
	_ZN9SkBlitRow15PlatformProcs32Ej	0x16d0a9
	_ZN9SkBlitRow16ColorProcFactoryEv	0xa43e1
	_ZN9SkBlitRow17PlatformColorProcEv	0x16d0c1
	_ZN9SkBlitRow11ColorRect32EPjiijj	0xa43f5
	_ZN9SkBlitRow20ColorRectProcFactoryEv	0xa44b5
	_Z28PlatformColorRectProcFactoryv	0x98baf
	_ZN9SkBlitterD1Ev	0xa44c9
	_ZN9SkBlitter17justAnOpaqueColorEPj	0x98baf
	_ZN9SkBlitter5blitHEiii	0x9d1d9
	_ZN9SkBlitter9blitAntiHEiiPKhPKs	0x9d1d9
	_ZN9SkBlitter8blitRectEiiii	0xa44d9
	_ZN13SkNullBlitter5blitHEiii	0x9d1d9
	_ZN13SkNullBlitter9blitAntiHEiiPKhPKs	0x9d1d9
	_ZN13SkNullBlitter5blitVEiiih	0x9d1d9
	_ZN13SkNullBlitter8blitRectEiiii	0x9d1d9
	_ZN13SkNullBlitter8blitMaskERK6SkMaskRK7SkIRect	0x9d1d9
	_ZN13SkNullBlitter17justAnOpaqueColorEPj	0x98baf
	_ZNK13SkNullBlitter13isNullBlitterEv	0x9d1fb
	_ZN17SkRectClipBlitter17justAnOpaqueColorEPj	0xa45cd
	_ZN16SkRgnClipBlitter17justAnOpaqueColorEPj	0xa45cd
	_ZN9SkBlitterD0Ev	0xa4639
	_ZN16SkRgnClipBlitter8blitMaskERK6SkMaskRK7SkIRect	0xa468b
	_ZN8SkRegion10CliperatorC1ERKS_RK7SkIRect	0xcb9ad
	_ZN8SkRegion10Cliperator4nextEv	0xcba01
	_ZN16SkRgnClipBlitter12blitAntiRectEiiiihh	0xa46bf
	_ZN16SkRgnClipBlitter8blitRectEiiii	0xa4795
	_ZN16SkRgnClipBlitter5blitVEiiih	0xa47dd
	_ZN16SkRgnClipBlitter5blitHEiii	0xa4825
	_ZN8SkRegion10SpaneratorC1ERKS_iii	0xcba51
	_ZN8SkRegion10Spanerator4nextEPiS1_	0xcbabd
	_ZN9SkBlitter5blitVEiiih	0xa4861
	_ZN17SkRectClipBlitter5blitVEiiih	0xa48ad
	_ZN17SkRectClipBlitter5blitHEiii	0xa48e3
	_ZN16SkRgnClipBlitter9blitAntiHEiiPKhPKs	0xa4b19
	_ZN23SkFlattenableReadBuffer10readShaderEv	0xb4ca9
	_ZN9SkBlitter8blitMaskERK6SkMaskRK7SkIRect	0xa4c5d
	_ZN15SkShaderBlitterD2Ev	0xa4e05
	_ZN15SkShaderBlitterD1Ev	0xa4e05
	_ZN15SkShaderBlitterD0Ev	0xa4e35
	_ZN17SkRectClipBlitter8blitMaskERK6SkMaskRK7SkIRect	0xa4f37
	_ZN17SkRectClipBlitter12blitAntiRectEiiiihh	0xa4f5f
	_ZN17SkRectClipBlitter8blitRectEiiii	0xa5003
	_ZN17SkRectClipBlitter9blitAntiHEiiPKhPKs	0xa50a9
	_ZN9SkBlitter14blitMaskRegionERK6SkMaskRK8SkRegion	0xa512b
	_ZN9SkBlitter14blitRectRegionERK7SkIRectRK8SkRegion	0xa517f
	_ZN9SkBlitter10blitRegionERK8SkRegion	0xa51bb
	_ZN16SkBlitterClipper5applyEP9SkBlitterPK8SkRegionPK7SkIRect	0xa51f1
	_ZN15SkShaderBlitterC2ERK8SkBitmapRK7SkPaint	0xa5285
	_ZN15SkShaderBlitterC1ERK8SkBitmapRK7SkPaint	0xa5285
	_ZN9SkBlitter6ChooseERK8SkBitmapRK8SkMatrixRK7SkPaintPvjb	0xa52cd
	_ZN10SkXfermode6AsModeEPKS_PNS_4ModeE	0xdb299
	_ZN7SkPaint11setXfermodeEP10SkXfermode	0xbf39d
	_ZN7SkPaint14setColorFilterEP13SkColorFilter	0xbf375
	_ZN7SkPaint8setColorEj	0xbe5cd
	_ZN13SkColorShaderC1Ev	0xd318d
	_ZNK13SkColorFilter11filterColorEj	0xac31f
	_ZN14SkFilterShaderC1EP8SkShaderP13SkColorFilter	0xb4801
	_ZN21SkA8_Coverage_BlitterC1ERK8SkBitmapRK7SkPaint	0xa61dd
	_ZN19SkA8_Shader_BlitterC1ERK8SkBitmapRK7SkPaint	0xa619d
	_ZN12SkA8_BlitterC1ERK8SkBitmapRK7SkPaint	0xa6185
	_Z20SkBlitter_ChooseD565RK8SkBitmapRK7SkPaintPvj	0xa87f5
	_ZN23SkARGB32_Shader_BlitterC1ERK8SkBitmapRK7SkPaint	0xa74b5
	_ZN16SkARGB32_BlitterC2ERK8SkBitmapRK7SkPaint	0xa7455
	_ZN16SkARGB32_BlitterC1ERK8SkBitmapRK7SkPaint	0xa7455
	_ZN8SkShader12asAShadeProcEPPv	0x98baf
	_ZN8SkShader11shadeSpan16EiiPti	0x9d1d9
	_ZNK8SkShader9asABitmapEP8SkBitmapP8SkMatrixPNS_8TileModeE	0x98baf
	_ZNK8SkShader11asNewEffectEP9GrContextRK7SkPaint	0x98baf
	_ZN12SkA8_Blitter17justAnOpaqueColorEPj	0xa56f5
	_ZN12SkA8_Blitter5blitVEiiih	0xa5705
	_ZN21SkA8_Coverage_Blitter17justAnOpaqueColorEPj	0x98baf
	_ZN21SkA8_Coverage_Blitter8blitRectEiiii	0xa57b7
	_ZN21SkA8_Coverage_Blitter5blitHEiii	0xa57dd
	_ZN21SkA8_Coverage_Blitter9blitAntiHEiiPKhPKs	0xa57f7
	_ZN19SkA8_Shader_Blitter9blitAntiHEiiPKhPKs	0xa5827
	_ZN19SkA8_Shader_Blitter5blitHEiii	0xa592b
	_ZN12SkA8_Blitter8blitRectEiiii	0xa59bf
	_ZN12SkA8_Blitter9blitAntiHEiiPKhPKs	0xa5a1d
	_ZN12SkA8_Blitter5blitHEiii	0xa5a8b
	_ZN19SkA8_Shader_BlitterD2Ev	0xa5ac9
	_ZN19SkA8_Shader_BlitterD1Ev	0xa5ac9
	_ZN19SkA8_Shader_BlitterD0Ev	0xa5b01
	_ZN21SkA8_Coverage_Blitter5blitVEiiih	0xa5ba5
	_ZN21SkA8_Coverage_Blitter8blitMaskERK6SkMaskRK7SkIRect	0xa5bcb
	_ZN19SkA8_Shader_Blitter8blitMaskERK6SkMaskRK7SkIRect	0xa5c17
	_ZN12SkA8_Blitter8blitMaskERK6SkMaskRK7SkIRect	0xa5ceb
	_ZN12SkA8_BlitterC2ERK8SkBitmapRK7SkPaint	0xa6185
	_ZN19SkA8_Shader_BlitterC2ERK8SkBitmapRK7SkPaint	0xa619d
	_ZN21SkA8_Coverage_BlitterC2ERK8SkBitmapRK7SkPaint	0xa61dd
	_ZN16SkARGB32_Blitter17justAnOpaqueColorEPj	0xa623f
	_ZN16SkARGB32_Blitter5blitHEiii	0xa6251
	_ZN16SkARGB32_Blitter9blitAntiHEiiPKhPKs	0xa6271
	_ZN22SkARGB32_Black_Blitter9blitAntiHEiiPKhPKs	0xa62fd
	_ZN23SkARGB32_Shader_Blitter5blitHEiii	0xa63c9
	_ZN23SkARGB32_Shader_Blitter9blitAntiHEiiPKhPKs	0xa642b
	_ZN23SkARGB32_Shader_Blitter8blitMaskERK6SkMaskRK7SkIRect	0xa6643
	_ZN23SkARGB32_Shader_Blitter8blitRectEiiii	0xa6751
	_ZN23SkARGB32_Shader_BlitterD2Ev	0xa68c5
	_ZN23SkARGB32_Shader_BlitterD1Ev	0xa68c5
	_ZN23SkARGB32_Shader_BlitterD0Ev	0xa68fd
	_ZN16SkARGB32_Blitter8blitRectEiiii	0xa6979
	_ZN16SkARGB32_Blitter5blitVEiiih	0xa69cd
	_ZN16SkARGB32_Blitter8blitMaskERK6SkMaskRK7SkIRect	0xa6a1b
	_ZN23SkARGB32_Shader_Blitter5blitVEiiih	0xa6f31
	_ZN23SkARGB32_Opaque_Blitter8blitMaskERK6SkMaskRK7SkIRect	0xa7167
	_ZN23SkARGB32_Shader_BlitterC2ERK8SkBitmapRK7SkPaint	0xa74b5
	_ZN22SkRGB16_Opaque_Blitter5blitVEiiih	0xa75c9
	_ZN15SkRGB16_Blitter17justAnOpaqueColorEPj	0xa7609
	_ZN15SkRGB16_Blitter5blitHEiii	0xa7661
	_ZN15SkRGB16_Blitter9blitAntiHEiiPKhPKs	0xa767d
	_ZN15SkRGB16_Blitter5blitVEiiih	0xa7701
	_ZN15SkRGB16_Blitter8blitRectEiiii	0xa7745
	_ZN24SkRGB16_Shader16_Blitter5blitHEiii	0xa7773
	_ZN24SkRGB16_Shader16_Blitter9blitAntiHEiiPKhPKs	0xa77df
	_ZN22SkRGB16_Shader_Blitter5blitHEiii	0xa78dd
	_ZN22SkRGB16_Shader_Blitter8blitRectEiiii	0xa7913
	_ZN22SkRGB16_Shader_Blitter9blitAntiHEiiPKhPKs	0xa79ad
	_ZN31SkRGB16_Shader_Xfermode_Blitter5blitHEiii	0xa7a77
	_ZN22SkRGB16_Shader_BlitterD2Ev	0xa7b09
	_ZN22SkRGB16_Shader_BlitterD1Ev	0xa7b09
	_ZN22SkRGB16_Shader_BlitterD0Ev	0xa7b29
	_ZN31SkRGB16_Shader_Xfermode_BlitterD2Ev	0xa7b69
	_ZN31SkRGB16_Shader_Xfermode_BlitterD1Ev	0xa7b69
	_ZN31SkRGB16_Shader_Xfermode_BlitterD0Ev	0xa7b9d
	_ZN24SkRGB16_Shader16_Blitter8blitRectEiiii	0xa7baf
	_ZN31SkRGB16_Shader_Xfermode_Blitter9blitAntiHEiiPKhPKs	0xa7d2d
	_ZN15SkRGB16_Blitter8blitMaskERK6SkMaskRK7SkIRect	0xa7e0f
	_ZN22SkRGB16_Opaque_Blitter8blitMaskERK6SkMaskRK7SkIRect	0xa8011
	_Z18sk_dither_memset16Pttti	0xa8489
	_ZN22SkRGB16_Opaque_Blitter8blitRectEiiii	0xa84cd
	_ZN22SkRGB16_Opaque_Blitter9blitAntiHEiiPKhPKs	0xa853d
	_ZN22SkRGB16_Opaque_Blitter5blitHEiii	0xa8611
	_ZN15SkRGB16_BlitterC2ERK8SkBitmapRK7SkPaint	0xa8661
	_ZN15SkRGB16_BlitterC1ERK8SkBitmapRK7SkPaint	0xa8661
	_ZN22SkRGB16_Opaque_BlitterC2ERK8SkBitmapRK7SkPaint	0xa872d
	_ZN22SkRGB16_Opaque_BlitterC1ERK8SkBitmapRK7SkPaint	0xa872d
	_ZN22SkRGB16_Shader_BlitterC2ERK8SkBitmapRK7SkPaint	0xa8745
	_ZN22SkRGB16_Shader_BlitterC1ERK8SkBitmapRK7SkPaint	0xa8745
	_ZN24SkRGB16_Shader16_BlitterC2ERK8SkBitmapRK7SkPaint	0xa87a1
	_ZN24SkRGB16_Shader16_BlitterC1ERK8SkBitmapRK7SkPaint	0xa87a1
	_ZN31SkRGB16_Shader_Xfermode_BlitterC2ERK8SkBitmapRK7SkPaint	0xa87b9
	_ZN31SkRGB16_Shader_Xfermode_BlitterC1ERK8SkBitmapRK7SkPaint	0xa87b9
	_ZN15SkSpriteBlitter5setupERK8SkBitmapiiRK7SkPaint	0xa88b9
	_ZN15SkSpriteBlitterD2Ev	0xa88c5
	_ZN15SkSpriteBlitterD1Ev	0xa88c5
	_ZN15SkSpriteBlitterD0Ev	0xa88e5
	_ZN15SkSpriteBlitterC2ERK8SkBitmap	0xa88f9
	_ZN15SkSpriteBlitterC1ERK8SkBitmap	0xa88f9
	_ZN9SkBlitter12ChooseSpriteERK8SkBitmapRK7SkPaintS2_iiPvj	0xa8915
	_ZN15SkSpriteBlitter9ChooseD16ERK8SkBitmapRK7SkPaintPvj	0xd3ff1
	_ZN15SkSpriteBlitter9ChooseD32ERK8SkBitmapRK7SkPaintPvj	0xd36c1
	_ZN9SkRBuffer15readNoSizeCheckEPvj	0xa898d
	_ZN22SkRBufferWithSizeCheck4readEPvj	0xa89a5
	_ZN9SkRBuffer4skipEj	0xa89df
	_ZN9SkRBuffer12skipToAlign4Ev	0xa89e9
	_ZN9SkWBuffer16writeNoSizeCheckEPKvj	0xa8a01
	_ZN9SkWBuffer4skipEj	0xa8a1b
	_ZN9SkWBuffer11padToAlign4Ev	0xa8a35
	_ZNK8SkCanvas16isDrawingToLayerEv	0xa8aa1
	_ZN8SkCanvas9setMatrixERK8SkMatrix	0xa8aaf
	_ZN8SkCanvas11ClipVisitorD2Ev	0xa8ad5
	_ZN8SkCanvas11ClipVisitorD1Ev	0xa8ad5
	_ZN8SkCanvas11ClipVisitorD0Ev	0xa8b05
	_ZN8SkCanvas11drawPictureER9SkPicture	0xa8b1d
	_ZN9SkPicture4drawEP8SkCanvasP21SkDrawPictureCallback	0xc56a7
	_ZN12SkBaseDevice22createCompatibleDeviceEN8SkBitmap6ConfigEiib	0xaea5d
	_ZN8SkCanvas6concatERK8SkMatrix	0xa8b3f
	_ZN8SkCanvas4skewEff	0xa8b51
	_ZN8SkMatrix7preSkewEff	0xbb445
	_ZN8SkCanvas6rotateEf	0xa8b63
	_ZN8SkMatrix9preRotateEf	0xbb47d
	_ZN8SkCanvas5scaleEff	0xa8b75
	_ZN8SkMatrix8preScaleEff	0xbae73
	_ZN8SkCanvas9translateEff	0xa8b87
	_ZN8SkCanvas9setDeviceEP12SkBaseDevice	0xa8bdf
	_ZN7SkDeque4IterC2ERKS_NS0_9IterStartE	0xae981
	_ZN7SkDeque4Iter4nextEv	0xae8f5
	_ZN12SkRasterClip7setRectERK7SkIRect	0xca06d
	_ZN12SkRasterClip2opERK7SkIRectN8SkRegion2OpE	0xca097
	_ZN8SkCanvas8clipPathERK6SkPathN8SkRegion2OpEb	0xa8d45
	_ZNK6SkPath9transformERK8SkMatrixPS_	0xc2cb9
	_ZN6SkPath5resetEv	0xc0fe5
	_ZN11SkClipStack11clipDevPathERK6SkPathN8SkRegion2OpEb	0xabfd1
	_ZN11SkClipStack4IterC1ERKS_NS0_9IterStartE	0xabab3
	_ZN6SkPathaSERKS_	0xc0f4f
	_Z2OpRK6SkPathS1_8SkPathOpPS_	0x11411d
	_ZN11SkClipStack4Iter4nextEv	0xaba51
	_ZNK12SkRasterClip9getBoundsEv	0xca041
	_ZN12SkRasterClip8setEmptyEv	0xca04b
	_ZN8SkRegion7setRectEiiii	0xcabd1
	_ZN12SkRasterClip7setPathERK6SkPathRK8SkRegionb	0xca375
	_ZN12SkRasterClipC1Ev	0xc9f73
	_ZN12SkRasterClip2opERKS_N8SkRegion2OpE	0xca309
	_ZN8SkCanvas8clipRectERK6SkRectN8SkRegion2OpEb	0xa8ed7
	_ZN11SkClipStack11clipDevRectERK6SkRectN8SkRegion2OpEb	0xabe6d
	_ZN12SkRasterClip2opERK6SkRectN8SkRegion2OpEb	0xca219
	_ZN8SkCanvas9clipRRectERK7SkRRectN8SkRegion2OpEb	0xa8f61
	_ZNK7SkRRect11computeTypeEv	0xcc4cd
	_ZN8SkCanvas10clipRegionERK8SkRegionNS0_2OpE	0xa8ff7
	_ZN12SkRasterClip2opERK8SkRegionNS0_2OpE	0xca0c1
	_ZN8SkCanvas13predrawNotifyEv	0xa905f
	_ZN14SkSurface_Base11aboutToDrawEN9SkSurface17ContentChangeModeE	0xfafa1
	_ZN8SkRegionaSERKS_	0xcac67
	_ZN8SkMatrix13postTranslateEff	0xbb66f
	_ZNK12SkRasterClip9translateEiiPS_	0xca107
	_ZN12SkRasterClip10forceGetBWEv	0xca1e5
	_ZN8SkCanvas4initEP12SkBaseDevice	0xa922d
	_ZN7SkDeque9push_backEv	0xae833
	_ZN8SkCanvasC2Ev	0xa92c1
	_ZN11SkClipStackC1Ev	0xab7a5
	_ZN7SkDequeC1EjPvji	0xae721
	_ZN8SkCanvasC1Ev	0xa92c1
	_ZN8SkCanvasC2EP12SkBaseDevice	0xa92f9
	_ZN8SkCanvasC1EP12SkBaseDevice	0xa92f9
	_ZN8SkCanvasC2ERK8SkBitmap	0xa9335
	_ZNK8SkCanvas13getDrawFilterEv	0xa9381
	_ZN8SkCanvas11getMetaDataEv	0xa9387
	_ZN10SkMetaDataC1Ev	0xbc6cb
	_ZN8SkCanvas5flushEv	0xa93a7
	_ZNK8SkCanvas9getDeviceEv	0xa93e7
	_ZN8SkCanvas10readPixelsEP8SkBitmapiiNS_10Config8888E	0xa93ef
	_ZN12SkBaseDevice10readPixelsEP8SkBitmapiiN8SkCanvas10Config8888E	0xaeab9
	_ZN8SkCanvas10readPixelsERK7SkIRectP8SkBitmap	0xa9405
	_ZN8SkCanvas11writePixelsERK8SkBitmapiiNS_10Config8888E	0xa9499
	_ZN8SkCanvas19updateDeviceCMCacheEv	0xa94fd
	_ZN12SkRasterClipC1ERKS_	0xc9f97
	_ZN6SkDrawC2Ev	0xaf9f3
	_ZN8SkCanvas5clearEj	0xa9593
	_ZNK8SkCanvas12getTopDeviceEb	0xa95c5
	_ZN8SkCanvas12internalSaveENS_9SaveFlagsE	0xa95d7
	_ZN11SkClipStack4saveEv	0xab93b
	_ZN8SkCanvas4saveENS_9SaveFlagsE	0xa9685
	_ZN8SkCanvas14saveLayerAlphaEPK6SkRectjNS_9SaveFlagsE	0xa9689
	_ZN7SkPaint8setAlphaEj	0xbe5dd
	_ZNK8SkCanvas12getSaveCountEv	0xa96cf
	_ZN8SkCanvas14restoreToCountEi	0xa96d3
	_ZN8SkCanvas11resetMatrixEv	0xa96f5
	_ZNK8SkCanvas11replayClipsEPNS_11ClipVisitorE	0xa9711
	_ZN11SkClipStack4IterC2ERKS_NS0_9IterStartE	0xabab3
	_ZNK8SkMatrix26computePerspectiveTypeMaskEv	0xba9bd
	_ZNK8SkCanvas11quickRejectERK6SkPath	0xa9951
	_ZN8SkCanvas14clipRectBoundsEPK6SkRectNS_9SaveFlagsEP7SkIRect	0xa9977
	_ZNK8SkCanvas11getClipTypeEv	0xa9a15
	_ZNK8SkCanvas12getTotalClipEv	0xa9a31
	_ZN8SkCanvas17createLayerDeviceEN8SkBitmap6ConfigEiib	0xa9a39
	_ZN12SkBaseDevice34createCompatibleDeviceForSaveLayerEN8SkBitmap6ConfigEiib	0xaea73
	_ZN8SkCanvas22createCompatibleDeviceEN8SkBitmap6ConfigEiib	0xa9a53
	_ZN8SkCanvas12getGrContextEv	0xa9a6d
	_ZN10GrResource10getContextEv	0x15324d
	_ZN8SkCanvas8DrawRectERK6SkDrawRK7SkPaintRK6SkRectf	0xa9a8b
	_ZN7SkPaint14setStrokeWidthEf	0xbe5fd
	_ZN8SkCanvas19DrawTextDecorationsERK6SkDrawRK7SkPaintPKcjff	0xa9ae9
	_ZN8SkCanvas8drawARGBEjjjjN10SkXfermode4ModeE	0xa9c01
	_ZN7SkPaint7setARGBEjjjj	0xbe5eb
	_ZN8SkCanvas9drawColorEjN10SkXfermode4ModeE	0xa9c49
	_ZN8SkCanvas9drawPointEffj	0xa9c97
	_ZN8SkCanvas8drawLineEffffRK7SkPaint	0xa9cd5
	_ZN8SkCanvas14drawRectCoordsEffffRK7SkPaint	0xa9cfb
	_ZN8SkCanvas10drawCircleEfffRK7SkPaint	0xa9d19
	_ZN8SkCanvas13drawRoundRectERK6SkRectffRK7SkPaint	0xa9d6d
	_ZN7SkRRect9setRectXYERK6SkRectff	0xcc23f
	_ZN8SkCanvas7drawArcERK6SkRectffbRK7SkPaint	0xa9de1
	_ZN6SkPath6moveToEff	0xc140d
	_ZN6SkPath5arcToERK6SkRectffb	0xc1af3
	_ZN6SkPath5closeEv	0xc1a2d
	_ZN8SkCanvas16drawTextOnPathHVEPKvjRK6SkPathffRK7SkPaint	0xa9e8d
	_ZN8SkCanvas9LayerIterC2EPS_b	0xa9ec3
	_ZN8SkCanvas9LayerIterC1EPS_b	0xa9ec3
	_ZN8SkCanvas9LayerIterD2Ev	0xa9ef3
	_ZN8SkCanvas9LayerIterD1Ev	0xa9ef3
	_ZN8SkCanvas9LayerIter4nextEv	0xa9f03
	_ZNK8SkCanvas9LayerIter6deviceEv	0xa9f19
	_ZNK8SkCanvas9LayerIter6matrixEv	0xa9f21
	_ZNK8SkCanvas9LayerIter5paintEv	0xa9f29
	_ZNK8SkCanvas9LayerIter4clipEv	0xa9f39
	_ZNK8SkCanvas9LayerIter1xEv	0xa9f41
	_ZNK8SkCanvas9LayerIter1yEv	0xa9f4b
	_ZN7SkPaintaSERKS_	0xbe329
	_ZN7SkPaint8setFlagsEj	0xbe485
	_ZN7SkPaint10setHintingENS_7HintingE	0xbe469
	_ZN8SkCanvas17internalSaveLayerEPK6SkRectPK7SkPaintNS_9SaveFlagsEb	0xa9fb9
	_ZN7SkPaint14setImageFilterEP13SkImageFilter	0xbe797
	_ZN8SkCanvas9saveLayerEPK6SkRectPK7SkPaintNS_9SaveFlagsE	0xaa1a1
	_ZN14AutoDrawLooper6doNextEN12SkDrawFilter4TypeE	0xaa1ad
	_ZNK7SkPaint13nothingToDrawEv	0xbf8cb
	_ZN8SkCanvas18internalDrawDeviceEP12SkBaseDeviceiiPK7SkPaint	0xaa25d
	_ZN13SkImageFilter11filterImageEPNS_5ProxyERK8SkBitmapRK8SkMatrixPS2_P8SkIPoint	0xb807d
	_ZN8SkCanvas15internalRestoreEv	0xaa3fd
	_ZN11SkClipStack7restoreEv	0xab965
	_ZN7SkDeque8pop_backEv	0xae7b3
	_ZN8SkCanvas7restoreEv	0xaa4a7
	_ZN8SkCanvas35updateClipConservativelyUsingBoundsERK6SkRectN8SkRegion2OpEb	0xaa4b3
	_ZN8SkCanvasD2Ev	0xaa581
	_ZN10SkMetaDataD1Ev	0xbc6ff
	_ZN7SkDequeD1Ev	0xae753
	_ZN11SkClipStackD1Ev	0xab929
	_ZN8SkCanvasD0Ev	0xaa5e1
	_ZN8SkCanvas12drawVerticesENS_10VertexModeEiPK7SkPointS3_PKjP10SkXfermodePKtiRK7SkPaint	0xaa5f5
	_ZN8SkCanvas14drawTextOnPathEPKvjRK6SkPathPK8SkMatrixRK7SkPaint	0xaa6ad
	_ZN8SkCanvas12drawPosTextHEPKvjPKffRK7SkPaint	0xaa749
	_ZN8SkCanvas11drawPosTextEPKvjPK7SkPointRK7SkPaint	0xaa80d
	_ZN8SkCanvas8drawTextEPKvjffRK7SkPaint	0xaa8d1
	_ZN8SkCanvas8drawOvalERK6SkRectRK7SkPaint	0xaa9a5
	_ZN8SkCanvas8drawRectERK6SkRectRK7SkPaint	0xaaa49
	_ZN8SkCanvas9drawRRectERK7SkRRectRK7SkPaint	0xaaaed
	_ZN8SkCanvas10drawPointsENS_9PointModeEjPK7SkPointRK7SkPaint	0xaabc9
	_ZN8SkCanvas17internalDrawPaintERK7SkPaint	0xaacf5
	_ZN8SkCanvas9drawPaintERK7SkPaint	0xaad75
	_ZN8SkCanvas8drawPathERK6SkPathRK7SkPaint	0xaad79
	_ZN8SkCanvas10drawSpriteERK8SkBitmapiiPK7SkPaint	0xab009
	_ZN8SkCanvas22internalDrawBitmapRectERK8SkBitmapPK6SkRectRS4_PK7SkPaintNS_19DrawBitmapRectFlagsE	0xab025
	_ZN8SkCanvas22internalDrawBitmapNineERK8SkBitmapRK7SkIRectRK6SkRectPK7SkPaint	0xab135
	_ZN8SkCanvas14drawBitmapNineERK8SkBitmapRK7SkIRectRK6SkRectPK7SkPaint	0xab351
	_ZN8SkCanvas20drawBitmapRectToRectERK8SkBitmapPK6SkRectRS4_PK7SkPaintNS_19DrawBitmapRectFlagsE	0xab355
	_ZN8SkCanvas18internalDrawBitmapERK8SkBitmapRK8SkMatrixPK7SkPaint	0xab361
	_ZN8SkCanvas16drawBitmapMatrixERK8SkBitmapRK8SkMatrixPK7SkPaint	0xab41d
	_ZN12SkChunkAllocC2Ej	0xab4a9
	_ZN12SkChunkAllocC1Ej	0xab4a9
	_ZN12SkChunkAlloc5resetEv	0xab4c3
	_ZN12SkChunkAllocD2Ev	0xab4e5
	_ZN12SkChunkAllocD1Ev	0xab4e5
	_ZN12SkChunkAlloc8newBlockEjNS_13AllocFailTypeE	0xab4f1
	_ZN12SkChunkAlloc5allocEjNS_13AllocFailTypeE	0xab52d
	_ZN12SkChunkAlloc7unallocEPv	0xab569
	_ZNK12SkChunkAlloc8containsEPKv	0xab58f
	_ZN6SkRect4joinEffff	0xca8d7
	_ZN11SkClipStack7Element19invertShapeFillTypeEv	0xab727
	_ZNK11SkClipStack7Element24rectRectIntersectAllowedERK6SkRectb	0xab77d
	_ZN11SkClipStackC2Ev	0xab7a5
	_ZN7SkDequeC1Eji	0xae70d
	_ZNK11SkClipStackeqERKS_	0xab7b9
	_ZeqRK6SkPathS1_	0xc0f79
	_ZN11SkClipStack5resetEv	0xab871
	_ZN11SkClipStackaSERKS_	0xab88d
	_ZN6SkPathC1ERKS_	0xc0f2f
	_ZN11SkClipStackC2ERKS_	0xab90f
	_ZN11SkClipStackC1ERKS_	0xab90f
	_ZN11SkClipStackD2Ev	0xab929
	_ZN11SkClipStack9restoreToEi	0xab943
	_ZNK11SkClipStack9getBoundsEP6SkRectPNS_10BoundsTypeEPb	0xab96f
	_ZNK11SkClipStack21intersectRectWithClipEP6SkRect	0xab9a3
	_ZN11SkClipStack9clipEmptyEv	0xab9d5
	_ZN11SkClipStack4IterC2Ev	0xaba3f
	_ZN7SkDeque4IterC1Ev	0xae8eb
	_ZN11SkClipStack4IterC1Ev	0xaba3f
	_ZN11SkClipStack4Iter4prevEv	0xaba57
	_ZN7SkDeque4Iter4prevEv	0xae919
	_ZN11SkClipStack4Iter13skipToTopmostEN8SkRegion2OpE	0xaba5d
	_ZN7SkDeque4Iter5resetERKS_NS0_9IterStartE	0xae947
	_ZN11SkClipStack4Iter5resetERKS_NS0_9IterStartE	0xabaab
	_ZNK11SkClipStack13quickContainsERK6SkRect	0xabad1
	_ZNK6SkPath26conservativelyContainsRectERK6SkRect	0xc37f5
	_ZNK11SkClipStack21getConservativeBoundsEiiiiP6SkRectPb	0xabb51
	_ZN11SkClipStack12GetNextGenIDEv	0xabbed
	_ZN11SkClipStack7Element19updateBoundAndGenIDEPKS0_	0xabbf9
	_ZN7SkDeque4IterC1ERKS_NS0_9IterStartE	0xae981
	_ZN11SkClipStackC2ERK7SkIRect	0xabf45
	_ZN11SkClipStackC1ERK7SkIRect	0xabf45
	_ZN11SkClipStackC2ERK6SkRect	0xabfa7
	_ZN11SkClipStackC1ERK6SkRect	0xabfa7
	_ZNK6SkPath6isRectEP6SkRect	0xc1215
	_ZNK11SkClipStack15getTopmostGenIDEv	0xac09f
	_ZNK11SkClipStack10isWideOpenEv	0xac0bf
	_Z17SkPreMultiplyARGBjjjj	0xac109
	_Z10SkRGBToHSVjjjPf	0xac121
	_Z12SkHSVToColorjPKf	0xac1ed
	_ZNK13SkColorFilter11asColorModeEPjPN10SkXfermode4ModeE	0x98baf
	_ZNK13SkColorFilter13asColorMatrixEPf	0x98baf
	_ZNK13SkColorFilter16asComponentTableEP8SkBitmap	0x98baf
	_ZNK13SkColorFilter11asNewEffectEP9GrContext	0x98baf
	_ZNK13SkColorFilter12filterSpan16EPKtiPt	0xac311
	_ZNK13SkFlattenable7flattenER24SkFlattenableWriteBuffer	0x9d1d9
	_ZN12SkColorTableD2Ev	0xac345
	_ZN12SkColorTableD1Ev	0xac345
	_ZN12SkColorTableD0Ev	0xac379
	_ZN12SkColorTableC2ERKS_	0xac38d
	_ZN12SkColorTableC2EPKji11SkAlphaType	0xac3c5
	_ZN12SkColorTableC1EPKji11SkAlphaType	0xac3c5
	_ZN12SkColorTableC2ER23SkFlattenableReadBuffer	0xac459
	_ZN12SkColorTableC1ER23SkFlattenableReadBuffer	0xac459
	_ZNK12SkColorTable13writeToBufferER24SkFlattenableWriteBuffer	0xac4a1
	_ZN15SkComposeShader10endContextEv	0xac4cd
	_ZNK15SkComposeShader7flattenER24SkFlattenableWriteBuffer	0xac4eb
	_ZN15SkComposeShader9shadeSpanEiiPji	0xac515
	_ZN15SkComposeShader10setContextERK8SkBitmapRK7SkPaintRK8SkMatrix	0xac685
	_ZN8SkMatrix9setConcatERKS_S1_	0xbb219
	_ZN15SkComposeShaderD2Ev	0xac70d
	_ZN15SkComposeShaderD1Ev	0xac70d
	_ZN15SkComposeShaderD0Ev	0xac73d
	_ZN15SkComposeShaderC2EP8SkShaderS1_P10SkXfermode	0xac751
	_ZN15SkComposeShaderC1EP8SkShaderS1_P10SkXfermode	0xac751
	_ZN15SkComposeShaderC2ER23SkFlattenableReadBuffer	0xac789
	_ZN23SkFlattenableReadBuffer12readXfermodeEv	0xb4cc1
	_ZN15SkComposeShaderC1ER23SkFlattenableReadBuffer	0xac789
	_Z16SkPackConfig8888N8SkCanvas10Config8888Ejjjj	0xad301
	_ZN21SkConvolutionFilter1DC2Ev	0xad44d
	_ZN21SkConvolutionFilter1DD2Ev	0xad48d
	_ZNK21SkConvolutionFilter1D15GetSingleFilterEPiS0_S0_	0xad4a3
	_ZN21SkConvolutionFilter1D9AddFilterEiPKfi	0xadb29
	_Z14SkCordicSinCosiPi	0xadc9d
	_Z11SkCordicTani	0xadd21
	_Z9SkDivBitsiii	0xb9eef
	_Z12SkCordicASini	0xadd35
	_Z12SkCordicACosi	0xadd6d
	_Z13SkCordicATan2ii	0xadd7b
	_Z11SkCordicLogi	0xaddb1
	_Z11SkCordicExpi	0xaddf1
	_ZN14SkCubicClipperC2Ev	0xadf11
	_ZN14SkCubicClipperC1Ev	0xadf11
	_ZN14SkCubicClipper7setClipERK7SkIRect	0xadf21
	_ZN14SkCubicClipper9clipCubicEPK7SkPointPS0_	0xadf53
	_Z13SkChopCubicAtPK7SkPointPS_f	0xb6237
	_ZN6SkDataD2Ev	0xae0c5
	_ZN6SkDataD1Ev	0xae0c5
	_ZN6SkData12NewEmptyImplEPPS_	0xae0f9
	_Z10sk_fmunmapPKvj	0x11dcb1
	_ZN6SkDataD0Ev	0xae141
	_ZN6SkDataC2EPKvjPFvS1_jPvES2_	0xae155
	_ZN6SkDataC1EPKvjPFvS1_jPvES2_	0xae155
	_ZNK6SkData6equalsEPKS_	0xae175
	_ZNK6SkData9copyRangeEjjPv	0xae19b
	_ZN6SkData11NewWithCopyEPKvj	0xae249
	_ZN6SkData11NewWithProcEPKvjPFvS1_jPvES2_	0xae295
	_ZN6SkData11NewFromFILEEP6SkFILE	0xae2c9
	_Z8sk_fmmapP6SkFILEPj	0x11dd21
	_ZN6SkData15NewFromFileNameEPKc	0xae2e9
	_Z8sk_fopenPKc12SkFILE_Flags	0x11dd3b
	_Z9sk_fcloseP6SkFILE	0x11de2b
	_ZN6SkData9NewFromFDEi	0xae30d
	_Z9sk_fdmmapiPj	0x11dcb5
	_ZN6SkData9NewSubsetEPKS_jj	0xae32d
	_ZN6SkData14NewWithCStringEPKc	0xae381
	_ZN11SkDataTableD2Ev	0xae3a5
	_ZN11SkDataTableD1Ev	0xae3a5
	_ZN11SkDataTableD0Ev	0xae3ef
	_ZN11SkDataTableC2Ev	0xae401
	_ZN11SkDataTableC1Ev	0xae401
	_ZN11SkDataTableC2EPKvjiPFvPvES2_	0xae421
	_ZN11SkDataTableC1EPKvjiPFvPvES2_	0xae421
	_ZN11SkDataTableC2EPKNS_3DirEiPFvPvES3_	0xae445
	_ZN11SkDataTableC1EPKNS_3DirEiPFvPvES3_	0xae445
	_ZNK11SkDataTable6atSizeEi	0xae469
	_ZNK11SkDataTable2atEiPj	0xae479
	_ZN11SkDataTable8NewEmptyEv	0xae4a1
	_ZN11SkDataTable13NewCopyArraysEPKPKvPKji	0xae4d1
	_ZN11SkDataTable12NewCopyArrayEPKvji	0xae55d
	_ZN11SkDataTable12NewArrayProcEPKvjiPFvPvES2_	0xae5b1
	_ZN18SkDataTableBuilderC2Ej	0xae5f5
	_ZN18SkDataTableBuilderC1Ej	0xae5f5
	_ZN18SkDataTableBuilder5resetEj	0xae603
	_ZN18SkDataTableBuilderD2Ev	0xae62f
	_ZN18SkDataTableBuilderD1Ev	0xae62f
	_ZN18SkDataTableBuilder6appendEPKvj	0xae643
	_ZN18SkDataTableBuilder15detachDataTableEv	0xae6a5
	_ZN7SkDequeC2Eji	0xae70d
	_ZN7SkDequeC2EjPvji	0xae721
	_ZN7SkDequeD2Ev	0xae753
	_ZN7SkDeque9pop_frontEv	0xae771
	_ZNK7SkDeque18numBlocksAllocatedEv	0xae7fd
	_ZN7SkDeque13allocateBlockEi	0xae80d
	_ZN7SkDeque10push_frontEv	0xae88f
	_ZN7SkDeque9freeBlockEPNS_5BlockE	0xae8e5
	_ZN7SkDeque4IterC2Ev	0xae8eb
	_ZN12SkBaseDeviceD1Ev	0xae98d
	_ZN12SkBaseDeviceD0Ev	0xae9c5
	_ZN15SkFontLCDConfig22GetSubpixelOrientationEv	0xb555d
	_ZN15SkFontLCDConfig16GetSubpixelOrderEv	0xb5575
	_ZN12SkBaseDeviceC1Ev	0xae9d9
	_ZN12SkBaseDeviceC1ERK18SkDeviceProperties	0xaea35
	_ZN12SkBaseDevice11getMetaDataEv	0xaea89
	_ZN14SkDeviceLooperC2ERK8SkBitmapRK12SkRasterClipRK7SkIRectb	0xaebdf
	_ZN14SkDeviceLooperC1ERK8SkBitmapRK12SkRasterClipRK7SkIRectb	0xaebdf
	_ZN14SkDeviceLooperD2Ev	0xaecaf
	_ZN14SkDeviceLooperD1Ev	0xaecaf
	_ZNK14SkDeviceLooper7mapRectEP6SkRectRKS0_	0xaecc7
	_ZNK14SkDeviceLooper9mapMatrixEP8SkMatrixRKS0_	0xaed1d
	_ZN14SkDeviceLooper24computeCurrBitmapAndClipEv	0xaed61
	_ZN14SkDeviceLooper4nextEv	0xaedd5
	_ZN15SkDeviceProfileC2EffNS_9LCDConfigENS_13FontHintLevelE	0xaee45
	_ZN15SkDeviceProfileC1EffNS_9LCDConfigENS_13FontHintLevelE	0xaee45
	_ZNK15SkDeviceProfile29generateTableForLuminanceByteEjPh	0x9d1d9
	_ZN15SkDeviceProfile6CreateEffNS_9LCDConfigENS_13FontHintLevelE	0xaeec1
	_ZN15SkDeviceProfile10GetDefaultEv	0xaeee9
	_ZN15SkDeviceProfile9RefGlobalEv	0xaef2d
	_ZN15SkDeviceProfile9SetGlobalEPS_	0xaef6d
	_ZN9VertState9TrianglesEPS_	0xaf0e3
	_ZN9VertState10TrianglesXEPS_	0xaf101
	_ZN9VertState13TriangleStripEPS_	0xaf12f
	_ZN9VertState14TriangleStripXEPS_	0xaf159
	_ZN9VertState11TriangleFanEPS_	0xaf19b
	_ZN9VertState12TriangleFanXEPS_	0xaf1bb
	_ZN9SkBounder6commitEv	0x9d1d9
	_ZN6SkScan12AntiHairLineERK7SkPointS2_RK12SkRasterClipP9SkBlitter	0xd2369
	_ZN6SkScan8HairLineERK7SkPointS2_RK12SkRasterClipP9SkBlitter	0xd22a9
	_ZNK8SkRegion8containsEii	0xcadcb
	_ZNK12SkRasterClip13quickContainsERK7SkIRect	0xca195
	_ZN6SkScan9FillXRectERK7SkIRectRK12SkRasterClipP9SkBlitter	0xcfe57
	_ZN6SkScan13AntiFillXRectERK7SkIRectRK12SkRasterClipP9SkBlitter	0xd1667
	_ZN13SkPathMeasure9getPosTanEfP7SkPointS1_	0xc49a1
	_ZN16SkTriColorShader9shadeSpanEiiPji	0xaf761
	_ZN6SkDraw21ShouldDrawTextAsPathsERK7SkPaintRK8SkMatrix	0xaf8dd
	_ZN8SkMatrix8setScaleEff	0xbaddd
	_ZN8SkMatrix8postSkewEff	0xbb577
	_ZN7SkPaint16TooBigToUseCacheERK8SkMatrixS2_	0xbe7dd
	_ZN6SkDrawC2ERKS_	0xafa03
	_ZN6SkDrawC1ERKS_	0xafa03
	_ZNK6SkDraw34computeConservativeLocalClipBoundsEP6SkRect	0xafa19
	_ZN9PtProcRec4initEN8SkCanvas9PointModeERK7SkPaintPK8SkMatrixPK12SkRasterClip	0xafa95
	_ZN9PtProcRec10chooseProcEPP9SkBlitter	0xafb45
	_ZN22SkAAClipBlitterWrapper4initERK12SkRasterClipP9SkBlitter	0xca46d
	_ZN6SkDraw15ComputeRectTypeERK7SkPaintRK8SkMatrixP7SkPoint	0xafc31
	_ZNK8SkMatrix10mapVectorsEP7SkPointPKS0_i	0xbbc05
	_Z29SkDrawTreatAAStrokeAsHairlinefRK8SkMatrixPf	0xafcf5
	_ZN12SkGlyphCache11AttachCacheEPS_	0xb75c9
	_ZN12SkDraw1Glyph4initEPK6SkDrawP9SkBlitterP12SkGlyphCacheRK7SkPaint	0xafddd
	_ZN12TextMapState8pickProcEi	0xafe91
	_ZN9VertState10chooseProcEN8SkCanvas10VertexModeE	0xafef9
	_ZN16SkTriColorShader5setupEPK7SkPointPKjiii	0xaff51
	_ZN9SkBounderC2Ev	0xafffd
	_ZN8SkRegion14GetEmptyRegionEv	0xcb821
	_ZN9SkBounderC1Ev	0xafffd
	_ZN9SkBounder7doIRectERK7SkIRect	0xb001d
	_ZNK6SkDraw11drawDevMaskERK6SkMaskRK7SkPaint	0xb003b
	_ZN22SkAAClipBlitterWrapperC1Ev	0xca3dd
	_ZNK6SkDraw16drawBitmapAsMaskERK8SkBitmapRK7SkPaint	0xb00dd
	_Z15SkTreatAsSpriteRK8SkMatrixiij	0xbc335
	_ZN6SkScan9FillIRectERK7SkIRectRK12SkRasterClipP9SkBlitter	0xcfe01
	_ZN9SkBounder12doIRectGlyphERK7SkIRectiiRK7SkGlyph	0xb048d
	_ZN9SkBounder10doHairlineERK7SkPointS2_RK7SkPaint	0xb04d7
	_ZN9SkBounder6doRectERK6SkRectRK7SkPaint	0xb0597
	_ZN9SkBounder6doPathERK6SkPathRK7SkPaintb	0xb05db
	_ZN10SkXfermode7AsCoeffEPKS_PNS_5CoeffES3_	0xdb2b1
	_ZNK12SkRasterizer9rasterizeERK6SkPathRK8SkMatrixPK7SkIRectP12SkMaskFilterP6SkMaskNSB_10CreateModeE	0xca52b
	_ZNK12SkMaskFilter10filterPathERK6SkPathRK8SkMatrixRK12SkRasterClipP9SkBounderP9SkBlitterN7SkPaint5StyleE	0xb9873
	_ZNK7SkPaint11getFillPathERK6SkPathPS0_PK6SkRect	0xbf707
	_ZN6SkScan12AntiFillPathERK6SkPathRK12SkRasterClipP9SkBlitter	0xd0895
	_ZN6SkScan12AntiHairPathERK6SkPathRK12SkRasterClipP9SkBlitter	0xd217d
	_ZN6SkScan8FillPathERK6SkPathRK12SkRasterClipP9SkBlitter	0xd0805
	_ZN6SkScan8HairPathERK6SkPathRK12SkRasterClipP9SkBlitter	0xd2171
	_ZN6SkDraw10DrawToMaskERK6SkPathPK7SkIRectPK12SkMaskFilterPK8SkMatrixP6SkMaskNSC_10CreateModeEN7SkPaint5StyleE	0xb08cb
	_ZN7SkPaint12setAntiAliasEb	0xbe4bf
	_ZN6SkScan12AntiFillRectERK6SkRectRK12SkRasterClipP9SkBlitter	0xd1789
	_ZN6SkScan8FillRectERK6SkRectRK12SkRasterClipP9SkBlitter	0xcfead
	_ZN6SkScan13AntiFrameRectERK6SkRectRK7SkPointRK12SkRasterClipP9SkBlitter	0xd1a95
	_ZN6SkScan9FrameRectERK6SkRectRK7SkPointRK12SkRasterClipP9SkBlitter	0xd2199
	_ZN6SkScan12AntiHairRectERK6SkRectRK12SkRasterClipP9SkBlitter	0xd1565
	_ZN6SkScan8HairRectERK6SkRectRK12SkRasterClipP9SkBlitter	0xd2039
	_ZNK6SkDraw16drawText_asPathsEPKcjffRK7SkPaint	0xb0c31
	_ZN16SkTextToPathIterC1EPKcjRK7SkPaintb	0xbfb91
	_ZN16SkTextToPathIter4nextEPPK6SkPathPf	0xbf84b
	_ZN16SkTextToPathIterD1Ev	0xbf833
	_ZNK7SkPaint16getDrawCacheProcEv	0xbe93d
	_ZNK7SkPaint11detachCacheEPK18SkDevicePropertiesPK8SkMatrix	0xbfb75
	_Z30SkComputeAxisAlignmentForHTextRK8SkMatrix	0xcee67
	_ZNK6SkDraw19drawPosText_asPathsEPKcjPKffiRK7SkPaint	0xb0f39
	_ZN7SkPaint15setupForAsPathsEv	0xbe961
	_ZN12SkGlyphCache8findPathERK7SkGlyph	0xb7339
	_ZNK6SkDraw9drawRRectERK7SkRRectRK7SkPaint	0xb1325
	_ZNK7SkRRect9transformERK8SkMatrixPS_	0xcc7bb
	_ZNK12SkMaskFilter11filterRRectERK7SkRRectRK8SkMatrixRK12SkRasterClipP9SkBounderP9SkBlitterN7SkPaint5StyleE	0xb99b9
	_ZN6SkPath9addCircleEfffNS_9DirectionE	0xc2799
	_ZN7SkPaint13setPathEffectEP12SkPathEffect	0xbf3e1
	_ZN7SkPaint12setStrokeCapENS_3CapE	0xbe64d
	_ZN6SkPath6lineToEff	0xc14cd
	_ZN6SkPath6rewindEv	0xc1007
	_ZN11SkStrokeRecC1ERK7SkPaint	0xd6bcb
	_ZN13SkPathMeasure9getLengthEv	0xc4715
	_ZN8SkMatrix10postConcatERKS_	0xbb557
	_ZN6SkPath4IterC1ERKS_b	0xc1f7d
	_ZN6SkPath6quadToEffff	0xc1549
	_ZN6SkPath7cubicToEffffff	0xc1905
	_ZN6SkPath4Iter25consumeDegenerateSegmentsEv	0xc206d
	_ZN6SkPath4Iter6doNextEP7SkPoint	0xc2173
	_ZN13SkPathMeasureD1Ev	0xc4299
	_ZN13SkPathMeasureC1ERK6SkPathb	0xc425d
	_ZNK12SkDraw1Glyph16blitMaskAsSpriteERK6SkMask	0xb1c65
	_ZN12SkGlyphCache9findImageERK7SkGlyph	0xb72f3
	_ZN10SkXfermode6CreateENS_4ModeE	0xdb145
	_ZN8SkMatrix13setPolyToPolyEPK7SkPointS2_i	0xbbf39
	_ZN6SkScan12FillTriangleEPK7SkPointRK12SkRasterClipP9SkBlitter	0xd2955
	_ZN12SkDrawLooper20canComputeFastBoundsERK7SkPaint	0xb24e5
	_ZN7SkPaint9setLooperEP12SkDrawLooper	0xbe775
	_ZN12SkDrawLooper17computeFastBoundsERK7SkPaintRK6SkRectPS3_	0xb2559
	_ZN13SkEdgeBuilderC2Ev	0xb270d
	_ZN13SkEdgeBuilderC1Ev	0xb270d
	_ZN13SkEdgeBuilder9buildPolyERK6SkPathPK7SkIRecti	0xb2727
	_ZNK6SkPath11countPointsEv	0xc1337
	_ZN13SkLineClipper8ClipLineEPK7SkPointRK6SkRectPS0_	0xb8bff
	_ZN13SkEdgeBuilder8addCubicEPK7SkPoint	0xb285b
	_ZN11SkCubicEdge8setCubicEPK7SkPointPK7SkIRecti	0xb393f
	_ZN13SkEdgeBuilder7addQuadEPK7SkPoint	0xb2887
	_ZN15SkQuadraticEdge12setQuadraticEPK7SkPointi	0xb3789
	_Z20SkChopQuadAtYExtremaPK7SkPointPS_	0xb5e67
	_ZN13SkEdgeBuilder7addLineEPK7SkPoint	0xb28db
	_ZN13SkEdgeBuilder10addClipperEP13SkEdgeClipper	0xb2905
	_ZN13SkEdgeClipper4nextEP7SkPoint	0xb34cd
	_ZN13SkEdgeBuilder5buildERK6SkPathPK7SkIRecti	0xb2947
	_ZN13SkEdgeClipper8clipQuadEPK7SkPointRK6SkRect	0xb2fe1
	_ZNK7SkConic15computeQuadPOW2Ef	0xb7059
	_ZNK7SkConic17chopIntoQuadsPOW2EP7SkPointi	0xb70ff
	_ZN13SkEdgeClipper9clipCubicEPK7SkPointRK6SkRect	0xb341b
	_Z21SkChopCubicAtYExtremaPK7SkPointPS_	0xb63cf
	_Z19SkFindUnitQuadRootsfffPf	0xb5abd
	_ZN13SkEdgeClipper11appendVLineEfffb	0xb2cc1
	_ZN13SkEdgeClipper10appendQuadEPK7SkPointb	0xb2cf1
	_ZN13SkEdgeClipper12clipMonoQuadEPK7SkPointRK6SkRect	0xb2d47
	_Z12SkChopQuadAtPK7SkPointPS_f	0xb5d3f
	_Z20SkChopQuadAtXExtremaPK7SkPointPS_	0xb5f2b
	_ZN13SkEdgeClipper11appendCubicEPK7SkPointb	0xb3081
	_ZN13SkEdgeClipper13clipMonoCubicEPK7SkPointRK6SkRect	0xb30c7
	_Z21SkChopCubicAtXExtremaPK7SkPointPS_	0xb641d
	_ZN6SkEdge16chopLineWithClipERK7SkIRect	0xb3609
	_ZN6SkEdge7setLineERK7SkPointS2_PK7SkIRecti	0xb3627
	_ZN15SkQuadraticEdge15updateQuadraticEv	0xb371f
	_ZN11SkCubicEdge11updateCubicEv	0xb38c5
	_ZN16SkErrorInternals20DefaultErrorCallbackE7SkErrorPv	0xb3c6d
	_ZN16SkErrorInternals16SetErrorCallbackEPFv7SkErrorPvES1_	0xb3bd9
	_ZN5SkTLS3GetEPFPvvEPFvS0_E	0xd78ab
	_Z18SkSetErrorCallbackPFv7SkErrorPvES0_	0xb3c31
	_ZN16SkErrorInternals12GetLastErrorEv	0xb3c35
	_Z14SkGetLastErrorv	0xb3c51
	_ZN16SkErrorInternals18GetLastErrorStringEv	0xb3c55
	_Z20SkGetLastErrorStringv	0xb3c69
	_ZN16SkErrorInternals10ClearErrorEv	0xb3d79
	_Z16SkClearLastErrorv	0xb3d89
	_Z28SkGetBilinearFilterProcTablev	0xb46b9
	_Z22SkGetFilter32ProcTablev	0xb46c5
	_Z31SkGetBilinearFilterPtrProcTablev	0xb46d1
	_ZN14SkFilterShader8getFlagsEv	0xb46e9
	_ZN14SkFilterShader9shadeSpanEiiPji	0xb4713
	_ZN14SkFilterShader11shadeSpan16EiiPti	0xb4735
	_ZN14SkFilterShader10endContextEv	0xb4757
	_ZN14SkFilterShader10setContextERK8SkBitmapRK7SkPaintRK8SkMatrix	0xb476d
	_ZNK14SkFilterShader7flattenER24SkFlattenableWriteBuffer	0xb47a3
	_ZN14SkFilterShaderD2Ev	0xb47c5
	_ZN14SkFilterShaderD1Ev	0xb47c5
	_ZN14SkFilterShaderD0Ev	0xb47ed
	_ZN14SkFilterShaderC2EP8SkShaderP13SkColorFilter	0xb4801
	_ZN14SkFilterShaderC2ER23SkFlattenableReadBuffer	0xb482d
	_ZN23SkFlattenableReadBuffer15readColorFilterEv	0xb4c55
	_ZN14SkFilterShaderC1ER23SkFlattenableReadBuffer	0xb482d
	_ZN11SkRefCntSet6decPtrEPv	0xb486f
	_ZN11SkRefCntSet6incPtrEPv	0xb4887
	_ZN11SkRefCntSetD2Ev	0xb49b9
	_ZN8SkPtrSet5resetEv	0xc9c51
	_ZN11SkRefCntSetD1Ev	0xb49b9
	_ZN11SkRefCntSetD0Ev	0xb49d9
	_ZN17SkNamedFactorySetC2Ev	0xb49ed
	_ZN17SkNamedFactorySetC1Ev	0xb49ed
	_ZN17SkNamedFactorySet23getNextAddedFactoryNameEv	0xb4a29
	_ZN13SkFlattenable8RegisterEPKcPFPS_R23SkFlattenableReadBufferENS_4TypeE	0xb4a41
	_ZN13SkFlattenable13NameToFactoryEPKc	0xb4a81
	_ZN13SkFlattenable30InitializeFlattenablesIfNeededEv	0x119a85
	_ZN13SkFlattenable10NameToTypeEPKcPNS_4TypeE	0xb4ac5
	_ZN13SkFlattenable13FactoryToNameEPFPS_R23SkFlattenableReadBufferE	0xb4b11
	_ZN17SkNamedFactorySet4findEPFP13SkFlattenableR23SkFlattenableReadBufferE	0xb4b4d
	_ZNK8SkPtrSet4findEPv	0xc9c95
	_ZN8SkPtrSet3addEPv	0xc9cbd
	_ZN23SkFlattenableReadBufferD2Ev	0xb4bad
	_ZN23SkFlattenableReadBufferD1Ev	0xb4bad
	_ZN23SkFlattenableReadBuffer15readFunctionPtrEv	0xb4bbd
	_ZN23SkFlattenableReadBuffer8validateEb	0x9d1fb
	_ZN24SkFlattenableWriteBufferD2Ev	0xb4bcd
	_ZN24SkFlattenableWriteBufferD1Ev	0xb4bcd
	_ZN24SkFlattenableWriteBuffer16writeFunctionPtrEPv	0xb4bdd
	_ZN24SkFlattenableWriteBufferD0Ev	0xb4bf1
	_ZN23SkFlattenableReadBufferD0Ev	0xb4c09
	_ZN24SkFlattenableWriteBuffer10writePaintERK7SkPaint	0xb4c21
	_ZNK7SkPaint7flattenER24SkFlattenableWriteBuffer	0xbf0e9
	_ZN23SkFlattenableReadBuffer9readPaintEP7SkPaint	0xb4c2b
	_ZN7SkPaint9unflattenER23SkFlattenableReadBuffer	0xbf431
	_ZN23SkFlattenableReadBufferC2Ev	0xb4c41
	_ZN23SkFlattenableReadBufferC1Ev	0xb4c41
	_ZN23SkFlattenableReadBuffer14readDrawLooperEv	0xb4c61
	_ZN23SkFlattenableReadBuffer15readImageFilterEv	0xb4c6d
	_ZN23SkFlattenableReadBuffer14readMaskFilterEv	0xb4c79
	_ZN23SkFlattenableReadBuffer14readPathEffectEv	0xb4c85
	_ZN23SkFlattenableReadBuffer14readRasterizerEv	0xb4c9d
	_ZN23SkFlattenableReadBuffer14readUnitMapperEv	0xb4cb5
	_ZN24SkFlattenableWriteBufferC2Ev	0xb4ccd
	_ZN24SkFlattenableWriteBufferC1Ev	0xb4ccd
	_ZN24SkFlattenableWriteBuffer13flattenObjectEPK13SkFlattenableRS_	0xb4ce1
	_Z32SkValidatingSerializeFlattenableP13SkFlattenable	0xb4cef
	_ZN20SkOrderedWriteBufferC1Ej	0xbd7a1
	_ZN20SkOrderedWriteBuffer16writeFlattenableEPK13SkFlattenable	0xbd4c9
	_ZNK10SkWriter327flattenEPv	0xd8afd
	_ZN20SkOrderedWriteBufferD1Ev	0xbd3ad
	_Z34SkValidatingDeserializeFlattenablePKvjN13SkFlattenable4TypeE	0xb4d33
	_ZN22SkValidatingReadBufferC1EPKvj	0xd86bd
	_ZN22SkValidatingReadBuffer15readFlattenableEN13SkFlattenable4TypeE	0xd872b
	_ZN22SkValidatingReadBufferD1Ev	0xd85f5
	_ZN7SkFloat8GetShiftEii	0xb4dcd
	_ZN7SkFloat8SetShiftEii	0xb4e0d
	_ZN7SkFloat3NegEi	0xb4e15
	_ZN7SkFloat3AddEii	0xb4e1d
	_ZN7SkFloat3MulEii	0xb4e6d
	_ZN7SkFloat6MulIntEii	0xb4eb5
	_ZN7SkFloat3DivEii	0xb4ecd
	_ZN7SkFloat6DivIntEii	0xb4f01
	_ZN7SkFloat6InvertEi	0xb4f19
	_ZN7SkFloat4SqrtEi	0xb4f31
	_Z10SkSqrtBitsii	0xba16b
	_ZN7SkFloat8CubeRootEi	0xb4c35
	_ZN7SkFloat3CmpEii	0xb4f67
	_Z21SkFloatBits_toIntCasti	0xb4f95
	_Z22SkFloatBits_toIntFloori	0xb4fcb
	_Z22SkFloatBits_toIntRoundi	0xb500f
	_Z21SkFloatBits_toIntCeili	0xb505d
	_Z16SkIntToFloatCasti	0xb50ad
	_Z32SkIntToFloatCast_NoOverflowChecki	0xb5109
	_ZN8SkStream14readPackedUIntEv	0xd45c9
	_ZN8SkString3setEPKcj	0xd52df
	_ZN8SkString12writable_strEv	0xd52ad
	_ZN9SkWStream15writePackedUIntEj	0xd4761
	_ZN16SkFontDescriptorC2EN10SkTypeface5StyleE	0xb5195
	_ZN16SkFontDescriptorC1EN10SkTypeface5StyleE	0xb5195
	_ZN16SkFontDescriptorC2EP8SkStream	0xb51bb
	_ZN16SkFontDescriptorC1EP8SkStream	0xb51bb
	_ZN16SkFontDescriptor9serializeEP9SkWStream	0xb5229
	_ZN12SkFontStream15CountTTCEntriesEP8SkStream	0xb5285
	_ZN12SkFontStream12GetTableDataEP8SkStreamijjjPv	0xb5449
	_ZN12SkFontStream12GetTableTagsEP8SkStreamiPj	0xb54e7
	_Z14set_up_defaultPP9SkFontMgr	0xb552d
	_ZN9SkFontMgr7FactoryEv	0x98baf
	_ZN15SkFontLCDConfig22SetSubpixelOrientationENS_14LCDOrientationE	0xb5569
	_ZN15SkFontLCDConfig16SetSubpixelOrderENS_8LCDOrderE	0xb5581
	_ZN10SkFontHost22GetSubpixelOrientationEv	0xb555d
	_ZN10SkFontHost22SetSubpixelOrientationENS_14LCDOrientationE	0xb5569
	_ZN10SkFontHost16GetSubpixelOrderEv	0xb5575
	_ZN10SkFontHost16SetSubpixelOrderENS_8LCDOrderE	0xb5581
	_ZN11SkFontStyleC2Ev	0xb558d
	_ZN11SkFontStyleC1Ev	0xb558d
	_ZN11SkFontStyleC2EiiNS_5SlantE	0xb559d
	_ZN11SkFontStyleC1EiiNS_5SlantE	0xb559d
	_ZN14SkFontStyleSet11CreateEmptyEv	0xb55d9
	_ZN9SkFontMgr13countFamiliesEv	0xb5601
	_ZN9SkFontMgr13getFamilyNameEiP8SkString	0xb560b
	_ZN9SkFontMgr14createStyleSetEi	0xb5615
	_ZN9SkFontMgr11matchFamilyEPKc	0xb5629
	_ZN9SkFontMgr16matchFamilyStyleEPKcRK11SkFontStyle	0xb563d
	_ZN9SkFontMgr14matchFaceStyleEPK10SkTypefaceRK11SkFontStyle	0xb5647
	_ZN9SkFontMgr14createFromDataEP6SkDatai	0xb5651
	_ZN9SkFontMgr16createFromStreamEP8SkStreami	0xb5663
	_ZN9SkFontMgr14createFromFileEPKci	0xb5675
	_ZN9SkFontMgr20legacyCreateTypefaceEPKcj	0xb5687
	_ZN9SkFontMgr10RefDefaultEv	0xb5691
	_Z17SkXRayCrossesLineRK7SkPointPS0_Pb	0xb59a5
	_Z12SkEvalQuadAtPK7SkPointfPS_S2_	0xb5bf3
	_Z16SkEvalQuadAtHalfPK7SkPointPS_S2_	0xb5c9d
	_Z16SkChopQuadAtHalfPK7SkPointPS_	0xb5dcd
	_Z17SkFindQuadExtremafffPf	0xb5e49
	_Z22SkFindQuadMaxCurvaturePK7SkPoint	0xb5ff1
	_Z24SkChopQuadAtMaxCurvaturePK7SkPointPS_	0xb6055
	_Z20SkConvertQuadToCubicPK7SkPointPS_	0xb6091
	_Z15SkGetCubicCoeffPK7SkPointPfS2_	0xb6101
	_Z13SkEvalCubicAtPK7SkPointfPS_S2_S2_	0xb611d
	_Z18SkFindCubicExtremaffffPf	0xb61f1
	_Z13SkChopCubicAtPK7SkPointPS_PKfi	0xb6261
	_Z17SkChopCubicAtHalfPK7SkPointPS_	0xb630b
	_Z22SkFindCubicInflectionsPK7SkPointPf	0xb646b
	_Z24SkChopCubicAtInflectionsPK7SkPointPS_	0xb64f1
	_Z23SkFindCubicMaxCurvaturePK7SkPointPf	0xb6529
	_Z25SkChopCubicAtMaxCurvaturePK7SkPointPS_Pf	0xb680d
	_Z27SkXRayCrossesMonotonicCubicRK7SkPointPS0_Pb	0xb6851
	_Z26SkNumXRayCrossingsForCubicRK7SkPointPS0_Pb	0xb6a05
	_Z14SkBuildQuadArcRK7SkPointS1_19SkRotationDirectionPK8SkMatrixPS_	0xb6a8d
	_ZN8SkMatrix9setSinCosEff	0xbafbd
	_ZNK7SkConic6evalAtEfP7SkPointS1_	0xb6cc5
	_ZNK7SkConic6chopAtEfPS_	0xb6d35
	_ZNK7SkConic4chopEPS_	0xb6e5b
	_ZNK7SkConic18computeAsQuadErrorEP7SkPoint	0xb6f7f
	_ZNK7SkConic9asQuadTolEf	0xb6fe1
	_ZNK7SkConic12findXExtremaEPf	0xb711f
	_ZNK7SkConic12findYExtremaEPf	0xb7127
	_ZNK7SkConic14chopAtXExtremaEPS_	0xb7133
	_ZNK7SkConic14chopAtYExtremaEPS_	0xb715f
	_ZNK7SkConic18computeTightBoundsEP6SkRect	0xb718b
	_ZNK7SkConic17computeFastBoundsEP6SkRect	0xb71ef
	_ZN7SkMutexC1Ev	0x11e00d
	_ZN5SkTLS4FindEPFPvvE	0xd78e9
	_ZN12SkGlyphCache14unicharToGlyphEi	0xb72b7
	_ZN15SkScalerContext13charToGlyphIDEi	0xcf071
	_ZN12SkGlyphCache14glyphToUnicharEt	0xb72e1
	_ZN15SkScalerContext13glyphIDToCharEt	0xcf00f
	_ZN12SkGlyphCache13getGlyphCountEv	0xb72e7
	_ZNK7SkGlyph16computeImageSizeEv	0xcec45
	_ZN15SkScalerContext8getImageERK7SkGlyph	0xcf4a5
	_ZN15SkScalerContext7getPathERK7SkGlyphP6SkPath	0xcf2b1
	_ZNK12SkGlyphCache14getAuxProcDataEPFvPvEPS0_	0xb7377
	_ZN12SkGlyphCache10setAuxProcEPFvPvES0_	0xb7397
	_ZN12SkGlyphCache23invokeAndRemoveAuxProcsEv	0xb73cd
	_ZN12SkGlyphCacheD2Ev	0xb73eb
	_ZN12SkGlyphCacheD1Ev	0xb73eb
	_ZN7SkMutexD1Ev	0x11e021
	_ZN12SkGlyphCache14VisitAllCachesEPFbPS_PvES1_	0xb7481
	_ZNK20SkGlyphCache_Globals15internalGetTailEv	0xb74b3
	_ZN20SkGlyphCache_Globals25internalAttachCacheToHeadEP12SkGlyphCache	0xb74c3
	_ZN20SkGlyphCache_Globals19internalDetachCacheEP12SkGlyphCache	0xb74e1
	_ZN20SkGlyphCache_Globals13internalPurgeEj	0xb750d
	_ZN20SkGlyphCache_Globals17attachCacheToHeadEP12SkGlyphCache	0xb75a3
	_ZN20SkGlyphCache_Globals8purgeAllEv	0xb75db
	_ZN20SkGlyphCache_Globals18setCacheCountLimitEi	0xb75f7
	_ZN20SkGlyphCache_Globals17setCacheSizeLimitEj	0xb761f
	_ZN10SkGraphics17GetFontCacheLimitEv	0xb764d
	_ZN10SkGraphics17SetFontCacheLimitEj	0xb7657
	_ZN10SkGraphics16GetFontCacheUsedEv	0xb7669
	_ZN10SkGraphics22GetFontCacheCountLimitEv	0xb7673
	_ZN10SkGraphics22SetFontCacheCountLimitEi	0xb767d
	_ZN10SkGraphics21GetFontCacheCountUsedEv	0xb768f
	_ZN10SkGraphics14PurgeFontCacheEv	0xb7699
	_ZN15SkTypefaceCache8PurgeAllEv	0xd811d
	_ZN10SkGraphics20GetTLSFontCacheLimitEv	0xb76ad
	_ZN10SkGraphics20SetTLSFontCacheLimitEj	0xb76c1
	_ZN5SkTLS6DeleteEPFPvvE	0xd7911
	_ZN12SkGlyphCacheC2EP10SkTypefacePK12SkDescriptorP15SkScalerContext	0xb771f
	_ZN15SkScalerContext14getFontMetricsEPN7SkPaint11FontMetricsE	0xced95
	_ZN12SkGlyphCacheC1EP10SkTypefacePK12SkDescriptorP15SkScalerContext	0xb771f
	_ZN12SkGlyphCache10VisitCacheEP10SkTypefacePK12SkDescriptorPFbPKS_PvES7_	0xb77ab
	_ZN10SkTypeface18GetDefaultTypefaceENS_5StyleE	0xd7b8d
	_ZNK10SkTypeface19createScalerContextEPK12SkDescriptorb	0xcee8d
	_ZN12SkGlyphCache13lookupMetricsEjNS_11MetricsTypeE	0xb786d
	_ZN15SkScalerContext10getAdvanceEP7SkGlyph	0xcfc21
	_ZN15SkScalerContext10getMetricsEP7SkGlyph	0xcf2bf
	_ZN12SkGlyphCache17getGlyphIDMetricsEtii	0xb7923
	_ZN12SkGlyphCache17getGlyphIDMetricsEt	0xb7977
	_ZN12SkGlyphCache17getUnicharMetricsEiii	0xb79bb
	_ZN12SkGlyphCache17getUnicharMetricsEi	0xb7a17
	_ZN12SkGlyphCache17getGlyphIDAdvanceEt	0xb7a5b
	_ZN12SkGlyphCache17getUnicharAdvanceEi	0xb7a8b
	_ZN10SkGraphics10GetVersionEPiS0_S0_	0xb7abf
	_ZN10SkGraphics4InitEv	0x9d1d9
	_ZN10SkGraphics4TermEv	0xb7ad3
	_ZN7SkPaint4TermEv	0xbeeb5
	_ZN10SkXfermode4TermEv	0xdb10d
	_ZN10SkGraphics8SetFlagsEPKc	0xb7ae5
	_ZNK13SkImageFilter7flattenER24SkFlattenableWriteBuffer	0xb7b4d
	_ZN13SkImageFilter13onFilterImageEPNS_5ProxyERK8SkBitmapRK8SkMatrixPS2_P8SkIPoint	0x98baf
	_ZN13SkImageFilter14onFilterBoundsERK7SkIRectRK8SkMatrixPS0_	0xb7baf
	_ZNK13SkImageFilter11asNewEffectEPP11GrEffectRefP9GrTextureRK8SkMatrixRK7SkIRect	0x98baf
	_ZNK13SkImageFilter13asColorFilterEPP13SkColorFilter	0x98baf
	_ZNK13SkImageFilter17canFilterImageGPUEv	0xb7bbd
	_ZN13SkImageFilterD2Ev	0xb7cc1
	_ZN13SkImageFilterD1Ev	0xb7cc1
	_ZN13SkImageFilterD0Ev	0xb7d09
	_ZN9GrContext20unlockScratchTextureEP9GrTexture	0x1452cd
	_ZN9GrContext24lockAndRefScratchTextureERK13GrTextureDescNS_15ScratchTexMatchE	0x1451b7
	_ZN13SkImageFilterC2EiPPS_PKNS_8CropRectE	0xb7e05
	_ZN13SkImageFilterC1EiPPS_PKNS_8CropRectE	0xb7e05
	_ZN13SkImageFilterC2EPS_PKNS_8CropRectE	0xb7e79
	_ZN13SkImageFilterC1EPS_PKNS_8CropRectE	0xb7e79
	_ZN13SkImageFilterC2EPS_S0_PKNS_8CropRectE	0xb7ee1
	_ZN13SkImageFilterC1EPS_S0_PKNS_8CropRectE	0xb7ee1
	_ZN13SkImageFilterC2EiR23SkFlattenableReadBuffer	0xb7f59
	_ZN13SkImageFilterC1EiR23SkFlattenableReadBuffer	0xb7f59
	_ZN13SkImageFilter12filterBoundsERK7SkIRectRK8SkMatrixPS0_	0xb80bd
	_ZNK13SkImageFilter13applyCropRectEP7SkIRectRK8SkMatrix	0xb80c9
	_ZN13SkImageFilter14filterImageGPUEPNS_5ProxyERK8SkBitmapRK8SkMatrixPS2_P8SkIPoint	0xb8389
	_ZN18SkImageFilterUtils17GetInputResultGPUEP13SkImageFilterPNS0_5ProxyERK8SkBitmapRK8SkMatrixPS4_P8SkIPoint	0xb86ab
	_ZN9GrContext14drawRectToRectERK7GrPaintRK6SkRectS5_PK8SkMatrixS8_	0x145cd1
	_ZN18SkImageFilterUtils11WrapTextureEP9GrTextureiiP8SkBitmap	0xb8659
	_ZN12SkGrPixelRefC1ERK11SkImageInfoP9GrSurfaceb	0x13aaf5
	_ZN11SkImageInfo9unflattenER23SkFlattenableReadBuffer	0xb87ff
	_ZNK11SkImageInfo7flattenER24SkFlattenableWriteBuffer	0xb8845
	_ZN13SkLineClipper13IntersectLineEPK7SkPointRK6SkRectPS0_	0xb897d
	_ZN16SkMallocPixelRef12onLockPixelsEPP12SkColorTable	0xb8e0d
	_ZN16SkMallocPixelRef14onUnlockPixelsEv	0x9d1d9
	_ZN16SkMallocPixelRefD2Ev	0xb8e15
	_ZN10SkPixelRefD2Ev	0xc9761
	_ZN16SkMallocPixelRefD1Ev	0xb8e15
	_ZN16SkMallocPixelRefD0Ev	0xb8e51
	_ZNK16SkMallocPixelRef7flattenER24SkFlattenableWriteBuffer	0xb8e89
	_ZNK10SkPixelRef7flattenER24SkFlattenableWriteBuffer	0xc9419
	_ZNK16SkMallocPixelRef23getAllocatedSizeInBytesEv	0xb8ed3
	_ZN16SkMallocPixelRefC2ERK11SkImageInfoPvjP12SkColorTableb	0xb8ee1
	_ZN10SkPixelRefC2ERK11SkImageInfo	0xc94ed
	_ZN10SkPixelRef12setPreLockedEPvP12SkColorTable	0xc9619
	_ZN16SkMallocPixelRefC1ERK11SkImageInfoPvjP12SkColorTableb	0xb8ee1
	_ZN16SkMallocPixelRefC2ER23SkFlattenableReadBuffer	0xb8ff9
	_ZN10SkPixelRefC2ER23SkFlattenableReadBufferP11SkBaseMutex	0xc95a9
	_ZN16SkMallocPixelRefC1ER23SkFlattenableReadBuffer	0xb8ff9
	_ZN10SkPixelRef9globalRefEPv	0xa8b99
	_ZN10SkPixelRef11globalUnrefEv	0x98989
	_ZNK10SkPixelRef23onLockPixelsAreWritableEv	0x9d1fb
	_ZN10SkPixelRef22onImplementsDecodeIntoEv	0x98baf
	_ZN10SkPixelRef12onDecodeIntoEiP8SkBitmap	0x98baf
	_ZN10SkPixelRef12onReadPixelsEP8SkBitmapPK7SkIRect	0x98baf
	_ZN10SkPixelRef16onRefEncodedDataEv	0x98baf
	_ZNK6SkMask21computeTotalImageSizeEv	0xb90bf
	_ZNK12SkMaskFilter10filterMaskEP6SkMaskRKS0_RK8SkMatrixP8SkIPoint	0x98baf
	_ZNK12SkMaskFilter17filterRRectToNineERK7SkRRectRK8SkMatrixRK7SkIRectPNS_9NinePatchE	0xb913d
	_ZNK12SkMaskFilter17filterRectsToNineEPK6SkRectiRK8SkMatrixRK7SkIRectPNS_9NinePatchE	0xb913d
	_ZNK12SkMaskFilter11asNewEffectEPP11GrEffectRefP9GrTexture	0x98baf
	_ZNK12SkMaskFilter16canFilterMaskGPUERK6SkRectRK7SkIRectRK8SkMatrixPS0_	0x98baf
	_ZNK12SkMaskFilter13filterMaskGPUEP9GrTextureRK6SkRectPS1_b	0x98baf
	_ZNK12SkMaskFilter17computeFastBoundsERK6SkRectPS0_	0xb9141
	_ZNK12SkMaskFilter13filterMaskGPUEP9GrContextRK8SkBitmapRK6SkRectPS2_	0xb925b
	_Z28SkBitmapConfig2GrPixelConfigN8SkBitmap6ConfigE	0x13a0cd
	_ZN22SkAAClipBlitterWrapperC1ERK12SkRasterClipP9SkBlitter	0xca4ad
	_ZNK6SkPath13isNestedRectsEP6SkRectPNS_9DirectionE	0xc1267
	_ZN21SkColorSpaceLuminance5FetchEf	0xb9b11
	_Z33SkTMaskGamma_build_correcting_lutPhjfRK21SkColorSpaceLuminancefS2_f	0xb9c35
	_Z14SkCLZ_portablej	0xb9d89
	_Z8SkMulDiviii	0xb9dc7
	_Z10SkMulShiftiij	0xb9de7
	_Z19SkFixedMul_portableii	0xb9e65
	_Z19SkFractMul_portableii	0xb9e71
	_Z16SkFixedMulCommoniii	0xb9e7d
	_Z17SkFixedFastInverti	0xb9e9d
	_Z10SkFixedModii	0xba12b
	_Z14SkCubeRootBitsii	0xba191
	_Z11SkFixedMeanii	0xba1cb
	_Z14SkScalarSinCosfPf	0xba1e1
	_Z13SkFixedSinCosiPi	0xba239
	_Z10SkFixedTani	0xba2b1
	_Z11SkFixedASini	0xba2b5
	_Z11SkFixedACosi	0xba2b9
	_Z12SkFixedATan2ii	0xba2bd
	_Z10SkFixedExpi	0xba2c1
	_Z10SkFixedLogi	0xba2c5
	_ZN8SkMatrix9Trans_ptsERKS_P7SkPointPKS2_i	0xba2f5
	_ZN8SkMatrix9Scale_ptsERKS_P7SkPointPKS2_i	0xba327
	_ZN8SkMatrix14ScaleTrans_ptsERKS_P7SkPointPKS2_i	0xba359
	_ZN8SkMatrix7Rot_ptsERKS_P7SkPointPKS2_i	0xba39b
	_ZN8SkMatrix12RotTrans_ptsERKS_P7SkPointPKS2_i	0xba3dd
	_ZN8SkMatrix9Persp_ptsERKS_P7SkPointPKS2_i	0xba42f
	_ZN8SkMatrix8Persp_xyERKS_ffP7SkPoint	0xba4af
	_ZN8SkMatrix11RotTrans_xyERKS_ffP7SkPoint	0xba523
	_ZN8SkMatrix6Rot_xyERKS_ffP7SkPoint	0xba55d
	_ZN8SkMatrix13ScaleTrans_xyERKS_ffP7SkPoint	0xba597
	_ZN8SkMatrix8Scale_xyERKS_ffP7SkPoint	0xba5c1
	_ZN8SkMatrix8Trans_xyERKS_ffP7SkPoint	0xba5e3
	_ZN8SkMatrix11Identity_xyERKS_ffP7SkPoint	0xba605
	_ZN8SkMatrix9Poly2ProcEPK7SkPointPS_RS1_	0xba60d
	_ZN8SkMatrix9Poly3ProcEPK7SkPointPS_RS1_	0xba695
	_ZN8SkMatrix9Poly4ProcEPK7SkPointPS_RS1_	0xba725
	_ZN8SkMatrix12Identity_ptsERKS_P7SkPointPKS2_i	0xba959
	_ZeqRK8SkMatrixS1_	0xbaad7
	_ZNK8SkMatrix12isSimilarityEf	0xbab85
	_ZNK8SkMatrix20preservesRightAnglesEf	0xbac61
	_ZN8SkMatrix8setScaleEffff	0xbad69
	_ZN8SkMatrix9setSinCosEffff	0xbaf65
	_ZN8SkMatrix9setRotateEfff	0xbaff5
